EXPORTS 
	??_R0?AV<lambda_488c629a0a7c1ecc954ac8047e960599>@@@8 	 DATA
	??_R0?AV<lambda_4cde73e63763cb313bd212247f8ddbb0>@@@8 	 DATA
	??_R0?AV<lambda_530843cc44829e3530ea01af34e42038>@@@8 	 DATA
	??_R0?AV<lambda_69d578ede27bd906c7e1bc689c004001>@@@8 	 DATA
	??_R0?AV<lambda_9f92d7825455e143dbf3293131d714f3>@@@8 	 DATA
	??_R0?AV<lambda_fd68a9891d2d9d887c20652be0ece82a>@@@8 	 DATA
	??_R0?AV?$_Binder@U_Unforced@std@@P8DepthFrameProducer@video@libeYs3D@@EAAXPEAVFrame@45@@ZPEAV345@AEBU?$_Ph@$00@2@@std@@@8 	 DATA
	??_R0?AV?$_Binder@U_Unforced@std@@P8FrameProducer@video@libeYs3D@@EAA_NPEBUSensorDataSet@sensors@5@@ZPEAV345@AEBU?$_Ph@$00@2@@std@@@8 	 DATA
	??_R0?AV?$_Binder@U_Unforced@std@@P8FrameProducer@video@libeYs3D@@EAA_NPEBVFrame@45@@ZPEAV345@AEBU?$_Ph@$00@2@@std@@@8 	 DATA
	??_R0?AV?$_Binder@U_Unforced@std@@P8FrameSetPipeline@devices@libeYs3D@@EAA_NPEBVFrame@video@5@@ZPEAV345@AEBU?$_Ph@$00@2@@std@@@8 	 DATA
	??_R0?AV?$_Binder@U_Unforced@std@@P8FrameSetPipeline@devices@libeYs3D@@EAA_NPEBVPCFrame@video@5@@ZPEAV345@AEBU?$_Ph@$00@2@@std@@@8 	 DATA
	??_R0?AV?$_Binder@U_Unforced@std@@P8PCFrameProducer@video@libeYs3D@@EAA_NPEBVFrame@45@@ZPEAV345@AEBU?$_Ph@$00@2@@std@@@8 	 DATA
	??_R0?AV?$_Binder@U_Unforced@std@@P8Pipeline@devices@libeYs3D@@EAA_NPEBUSensorData@sensors@5@@ZPEAV345@AEBU?$_Ph@$00@2@@std@@@8 	 DATA
	??_R0?AV?$_Binder@U_Unforced@std@@P8Pipeline@devices@libeYs3D@@EAA_NPEBVFrame@video@5@@ZPEAV345@AEBU?$_Ph@$00@2@@std@@@8 	 DATA
	??_R0?AV?$_Binder@U_Unforced@std@@P8Pipeline@devices@libeYs3D@@EAA_NPEBVPCFrame@video@5@@ZPEAV345@AEBU?$_Ph@$00@2@@std@@@8 	 DATA
	??_R0?AV?$_Binder@U_Unforced@std@@P8SensorDataProducer@sensors@libeYs3D@@EAA_NPEBUSensorDataSet@45@@ZPEAV345@AEBU?$_Ph@$00@2@@std@@@8 	 DATA
	??_R0?AV?$_Func_base@W4WorkerProcessingResult@base@libeYs3D@@$$QEAV?$Optional@VCallbackWorkItem@sensors@libeYs3D@@@23@@std@@@8 	 DATA
	??_R0?AV?$_Func_base@W4WorkerProcessingResult@base@libeYs3D@@$$QEAV?$Optional@VCallbackWorkItem@video@libeYs3D@@@23@@std@@@8 	 DATA
	??_R0?AV?$_Func_base@W4WorkerProcessingResult@base@libeYs3D@@$$QEAV?$Optional@VDACalculateWorkItem@video@libeYs3D@@@23@@std@@@8 	 DATA
	??_R0?AV?$_Func_base@X$$QEAVCallbackWorkItem@sensors@libeYs3D@@@std@@@8 	 DATA
	??_R0?AV?$_Func_base@X$$QEAVCallbackWorkItem@video@libeYs3D@@@std@@@8 	 DATA
	??_R0?AV?$_Func_base@X$$QEAVDACalculateWorkItem@video@libeYs3D@@@std@@@8 	 DATA
	??_R0?AV?$_Func_base@XPEAVFrame@video@libeYs3D@@@std@@@8 	 DATA
	??_R0?AV?$_Func_base@_J$$V@std@@@8 	 DATA
	??_R0?AV?$_Func_base@_NPEBUSensorData@sensors@libeYs3D@@@std@@@8 	 DATA
	??_R0?AV?$_Func_base@_NPEBUSensorDataSet@sensors@libeYs3D@@@std@@@8 	 DATA
	??_R0?AV?$_Func_base@_NPEBVFrame@video@libeYs3D@@@std@@@8 	 DATA
	??_R0?AV?$_Func_base@_NPEBVPCFrame@video@libeYs3D@@@std@@@8 	 DATA
	??_R0?AV?$_Func_impl_no_alloc@V<lambda_488c629a0a7c1ecc954ac8047e960599>@@_J$$V@std@@@8 	 DATA
	??_R0?AV?$_Func_impl_no_alloc@V<lambda_4cde73e63763cb313bd212247f8ddbb0>@@W4WorkerProcessingResult@base@libeYs3D@@$$QEAV?$Optional@VDACalculateWorkItem@video@libeYs3D@@@34@@std@@@8 	 DATA
	??_R0?AV?$_Func_impl_no_alloc@V<lambda_530843cc44829e3530ea01af34e42038>@@W4WorkerProcessingResult@base@libeYs3D@@$$QEAV?$Optional@VCallbackWorkItem@sensors@libeYs3D@@@34@@std@@@8 	 DATA
	??_R0?AV?$_Func_impl_no_alloc@V<lambda_69d578ede27bd906c7e1bc689c004001>@@_J$$V@std@@@8 	 DATA
	??_R0?AV?$_Func_impl_no_alloc@V<lambda_9f92d7825455e143dbf3293131d714f3>@@W4WorkerProcessingResult@base@libeYs3D@@$$QEAV?$Optional@VCallbackWorkItem@video@libeYs3D@@@34@@std@@@8 	 DATA
	??_R0?AV?$_Func_impl_no_alloc@V<lambda_fd68a9891d2d9d887c20652be0ece82a>@@_J$$V@std@@@8 	 DATA
	??_R0?AV?$_Func_impl_no_alloc@V?$_Binder@U_Unforced@std@@P8DepthFrameProducer@video@libeYs3D@@EAAXPEAVFrame@45@@ZPEAV345@AEBU?$_Ph@$00@2@@std@@XPEAVFrame@video@libeYs3D@@@std@@@8 	 DATA
	??_R0?AV?$_Func_impl_no_alloc@V?$_Binder@U_Unforced@std@@P8FrameProducer@video@libeYs3D@@EAA_NPEBUSensorDataSet@sensors@5@@ZPEAV345@AEBU?$_Ph@$00@2@@std@@_NPEBUSensorDataSet@sensors@libeYs3D@@@std@@@8 	 DATA
	??_R0?AV?$_Func_impl_no_alloc@V?$_Binder@U_Unforced@std@@P8FrameProducer@video@libeYs3D@@EAA_NPEBVFrame@45@@ZPEAV345@AEBU?$_Ph@$00@2@@std@@_NPEBVFrame@video@libeYs3D@@@std@@@8 	 DATA
	??_R0?AV?$_Func_impl_no_alloc@V?$_Binder@U_Unforced@std@@P8FrameSetPipeline@devices@libeYs3D@@EAA_NPEBVFrame@video@5@@ZPEAV345@AEBU?$_Ph@$00@2@@std@@_NPEBVFrame@video@libeYs3D@@@std@@@8 	 DATA
	??_R0?AV?$_Func_impl_no_alloc@V?$_Binder@U_Unforced@std@@P8FrameSetPipeline@devices@libeYs3D@@EAA_NPEBVPCFrame@video@5@@ZPEAV345@AEBU?$_Ph@$00@2@@std@@_NPEBVPCFrame@video@libeYs3D@@@std@@@8 	 DATA
	??_R0?AV?$_Func_impl_no_alloc@V?$_Binder@U_Unforced@std@@P8PCFrameProducer@video@libeYs3D@@EAA_NPEBVFrame@45@@ZPEAV345@AEBU?$_Ph@$00@2@@std@@_NPEBVFrame@video@libeYs3D@@@std@@@8 	 DATA
	??_R0?AV?$_Func_impl_no_alloc@V?$_Binder@U_Unforced@std@@P8Pipeline@devices@libeYs3D@@EAA_NPEBUSensorData@sensors@5@@ZPEAV345@AEBU?$_Ph@$00@2@@std@@_NPEBUSensorData@sensors@libeYs3D@@@std@@@8 	 DATA
	??_R0?AV?$_Func_impl_no_alloc@V?$_Binder@U_Unforced@std@@P8Pipeline@devices@libeYs3D@@EAA_NPEBVFrame@video@5@@ZPEAV345@AEBU?$_Ph@$00@2@@std@@_NPEBVFrame@video@libeYs3D@@@std@@@8 	 DATA
	??_R0?AV?$_Func_impl_no_alloc@V?$_Binder@U_Unforced@std@@P8Pipeline@devices@libeYs3D@@EAA_NPEBVPCFrame@video@5@@ZPEAV345@AEBU?$_Ph@$00@2@@std@@_NPEBVPCFrame@video@libeYs3D@@@std@@@8 	 DATA
	??_R0?AV?$_Func_impl_no_alloc@V?$_Binder@U_Unforced@std@@P8SensorDataProducer@sensors@libeYs3D@@EAA_NPEBUSensorDataSet@45@@ZPEAV345@AEBU?$_Ph@$00@2@@std@@_NPEBUSensorDataSet@sensors@libeYs3D@@@std@@@8 	 DATA
	??_R0?AV?$_Iosb@H@std@@@8 	 DATA
	??_R0?AV?$_Ref_count@VCameraDevice@devices@libeYs3D@@@std@@@8 	 DATA
	??_R0?AV?$_Ref_count@VEYS3DSystem@libeYs3D@@@std@@@8 	 DATA
	??_R0?AV?$_Ref_count@VFrameSetPipeline@devices@libeYs3D@@@std@@@8 	 DATA
	??_R0?AV?$_Ref_count@VPipeline@devices@libeYs3D@@@std@@@8 	 DATA
	??_R0?AV?$basic_filebuf@DU?$char_traits@D@std@@@std@@@8 	 DATA
	??_R0?AV?$basic_ifstream@DU?$char_traits@D@std@@@std@@@8 	 DATA
	??_R0?AV?$basic_ios@DU?$char_traits@D@std@@@std@@@8 	 DATA
	??_R0?AV?$basic_iostream@DU?$char_traits@D@std@@@std@@@8 	 DATA
	??_R0?AV?$basic_istream@DU?$char_traits@D@std@@@std@@@8 	 DATA
	??_R0?AV?$basic_ofstream@DU?$char_traits@D@std@@@std@@@8 	 DATA
	??_R0?AV?$basic_ostream@DU?$char_traits@D@std@@@std@@@8 	 DATA
	??_R0?AV?$basic_ostringstream@DU?$char_traits@D@std@@V?$allocator@D@2@@std@@@8 	 DATA
	??_R0?AV?$basic_streambuf@DU?$char_traits@D@std@@@std@@@8 	 DATA
	??_R0?AV?$basic_stringbuf@DU?$char_traits@D@std@@V?$allocator@D@2@@std@@@8 	 DATA
	??_R0?AV?$basic_stringstream@DU?$char_traits@D@std@@V?$allocator@D@2@@std@@@8 	 DATA
	??_R0?AVCameraDevice8036@devices@libeYs3D@@@8 	 DATA
	??_R0?AVCameraDevice8037@devices@libeYs3D@@@8 	 DATA
	??_R0?AVCameraDevice8052@devices@libeYs3D@@@8 	 DATA
	??_R0?AVCameraDevice8053@devices@libeYs3D@@@8 	 DATA
	??_R0?AVCameraDevice8059@devices@libeYs3D@@@8 	 DATA
	??_R0?AVCameraDevice8062@devices@libeYs3D@@@8 	 DATA
	??_R0?AVCameraDevice8067@devices@libeYs3D@@@8 	 DATA
	??_R0?AVCameraDevice@devices@libeYs3D@@@8 	 DATA
	??_R0?AVCameraDeviceHypatia@devices@libeYs3D@@@8 	 DATA
	??_R0?AVColorFrameProducer@video@libeYs3D@@@8 	 DATA
	??_R0?AVDepthFrameProducer@video@libeYs3D@@@8 	 DATA
	??_R0?AVEYS3DSystem@libeYs3D@@@8 	 DATA
	??_R0?AVFrameProducer@video@libeYs3D@@@8 	 DATA
	??_R0?AVFrameSetPipeline@devices@libeYs3D@@@8 	 DATA
	??_R0?AVFunctorThread@base@libeYs3D@@@8 	 DATA
	??_R0?AVIMUDataProducer@sensors@libeYs3D@@@8 	 DATA
	??_R0?AVIMUDevice8062@devices@libeYs3D@@@8 	 DATA
	??_R0?AVIMUDevice@devices@libeYs3D@@@8 	 DATA
	??_R0?AVPCFrameProducer@video@libeYs3D@@@8 	 DATA
	??_R0?AVPCProducer@video@libeYs3D@@@8 	 DATA
	??_R0?AVPipeline@devices@libeYs3D@@@8 	 DATA
	??_R0?AVProducer@video@libeYs3D@@@8 	 DATA
	??_R0?AVRegisterReadWriteController@devices@libeYs3D@@@8 	 DATA
	??_R0?AVSensorDataProducer@sensors@libeYs3D@@@8 	 DATA
	??_R0?AVThread@base@libeYs3D@@@8 	 DATA
	??_R0?AV_Ref_count_base@std@@@8 	 DATA
	??_R0?AVbad_cast@std@@@8 	 DATA
	??_R0?AVexception@std@@@8 	 DATA
	??_R0?AVios_base@std@@@8 	 DATA
	?_OptionsStorage@?1??__local_stdio_printf_options@@9@4_KA 	 DATA
	?_OptionsStorage@?1??__local_stdio_scanf_options@@9@4_KA 	 DATA
	?_Psave@?$_Facetptr@V?$codecvt@DDU_Mbstatet@@@std@@@std@@2PEBVfacet@locale@2@EB 	 DATA
	?_Stinit@?1??_Init@?$basic_filebuf@DU?$char_traits@D@std@@@std@@IEAAXPEAU_iobuf@@W4_Initfl@23@@Z@4U_Mbstatet@@A 	 DATA
	?defaultAlpha@ColorPaletteGenerator@@0HA 	 DATA
	?gGlobalState@?A0xa7fd18e7@base@libeYs3D@@3U?$LazyInstance@VGlobalState@?A0xa7fd18e7@base@libeYs3D@@@23@A 	 DATA
	?maxHueAngle@ColorPaletteGenerator@@0NA 	 DATA
	?sEYS3DSystem@EYS3DSystem@libeYs3D@@0V?$shared_ptr@VEYS3DSystem@libeYs3D@@@std@@A 	 DATA
	?s_color_producer_tick_logger@@3VLogger@log4cplus@@A 	 DATA
	?s_console_logger@@3VLogger@log4cplus@@A 	 DATA
	?s_depth_accuracy_logger@@3VLogger@log4cplus@@A 	 DATA
	?s_depth_producer_tick_logger@@3VLogger@log4cplus@@A 	 DATA
	?s_imu_producer_tick_logger@@3VLogger@log4cplus@@A 	 DATA
	?s_pc_producer_tick_logger@@3VLogger@log4cplus@@A 	 DATA
	?s_performance_logger@@3VLogger@log4cplus@@A 	 DATA
	?sizeTable@IMUData@@2V?$map@W4IMUPacketSymbol@IMUData@@_KU?$less@W4IMUPacketSymbol@IMUData@@@std@@V?$allocator@U?$pair@$$CBW4IMUPacketSymbol@IMUData@@_K@std@@@4@@std@@A 	 DATA
	?sizeTable_DMP@IMUData@@2V?$map@W4IMUPacketSymbol@IMUData@@_KU?$less@W4IMUPacketSymbol@IMUData@@@std@@V?$allocator@U?$pair@$$CBW4IMUPacketSymbol@IMUData@@_K@std@@@4@@std@@A 	 DATA
	?sizeTable_Quaternion@IMUData@@2V?$map@W4IMUPacketSymbol@IMUData@@_KU?$less@W4IMUPacketSymbol@IMUData@@@std@@V?$allocator@U?$pair@$$CBW4IMUPacketSymbol@IMUData@@_K@std@@@4@@std@@A 	 DATA
	?tmpColorBuf@devices@libeYs3D@@3PEAEEA 	 DATA
	?tmpColorHeight@devices@libeYs3D@@3HA 	 DATA
	?tmpColorSerialNumber@devices@libeYs3D@@3HA 	 DATA
	?tmpColorSize@devices@libeYs3D@@3HA 	 DATA
	?tmpColorWidth@devices@libeYs3D@@3HA 	 DATA
	?tmpDepthBuf@devices@libeYs3D@@3PEAEEA 	 DATA
	?tmpDepthHeight@devices@libeYs3D@@3HA 	 DATA
	?tmpDepthSerialNumber@devices@libeYs3D@@3HA 	 DATA
	?tmpDepthSize@devices@libeYs3D@@3HA 	 DATA
	?tmpDepthWidth@devices@libeYs3D@@3HA 	 DATA
	?updateColorHandle@devices@libeYs3D@@3PEAXEA 	 DATA
	?updateDepthHandle@devices@libeYs3D@@3PEAXEA 	 DATA
	ProductID 	 DATA
	VendorID 	 DATA
	sqlite3_data_directory 	 DATA
	sqlite3_temp_directory 	 DATA
	??$<move>@AEAV<lambda_644b0c6f6f426dfd6f91480300661176>@@@@YA$$QEAV<lambda_644b0c6f6f426dfd6f91480300661176>@@AEAV0@@Z
	??$<move>@AEAV<lambda_c26ef134520f1d4904a3b959b66e0c10>@@@@YA$$QEAV<lambda_c26ef134520f1d4904a3b959b66e0c10>@@AEAV0@@Z
	??$<move>@AEAV<lambda_dbbb479bfc9ffc0a9f130fbf77aabe71>@@@@YA$$QEAV<lambda_dbbb479bfc9ffc0a9f130fbf77aabe71>@@AEAV0@@Z
	??$?0$$QEAW4IMUPacketSymbol@IMUData@@$$Z$$V@?$pair@$$CBW4IMUPacketSymbol@IMUData@@_K@std@@QEAA@Upiecewise_construct_t@1@V?$tuple@$$QEAW4IMUPacketSymbol@IMUData@@@1@V?$tuple@$$V@1@@Z
	??$?0$$V@?$_Compressed_pair@V?$allocator@D@std@@V?$_String_val@U?$_Simple_types@D@std@@@2@$00@std@@QEAA@U_Zero_then_variadic_args_t@1@@Z
	??$?0$$V@?$_Compressed_pair@V?$allocator@E@std@@V?$_Vector_val@U?$_Simple_types@E@std@@@2@$00@std@@QEAA@U_Zero_then_variadic_args_t@1@@Z
	??$?0$$V@?$_Compressed_pair@V?$allocator@F@std@@V?$_Vector_val@U?$_Simple_types@F@std@@@2@$00@std@@QEAA@U_Zero_then_variadic_args_t@1@@Z
	??$?0$$V@?$_Compressed_pair@V?$allocator@G@std@@V?$_Vector_val@U?$_Simple_types@G@std@@@2@$00@std@@QEAA@U_Zero_then_variadic_args_t@1@@Z
	??$?0$$V@?$_Compressed_pair@V?$allocator@H@std@@V?$_Vector_val@U?$_Simple_types@H@std@@@2@$00@std@@QEAA@U_Zero_then_variadic_args_t@1@@Z
	??$?0$$V@?$_Compressed_pair@V?$allocator@M@std@@V?$_Vector_val@U?$_Simple_types@M@std@@@2@$00@std@@QEAA@U_Zero_then_variadic_args_t@1@@Z
	??$?0$$V@?$_Compressed_pair@V?$allocator@U?$_Tree_node@U?$pair@$$CBHH@std@@PEAX@std@@@std@@V?$_Tree_val@U?$_Tree_simple_types@U?$pair@$$CBHH@std@@@std@@@2@$00@std@@QEAA@U_Zero_then_variadic_args_t@1@@Z
	??$?0$$V@?$_Compressed_pair@V?$allocator@U?$_Tree_node@U?$pair@$$CBHUPID_TABLE@ModeConfig@@@std@@PEAX@std@@@std@@V?$_Tree_val@U?$_Tree_simple_types@U?$pair@$$CBHUPID_TABLE@ModeConfig@@@std@@@std@@@2@$00@std@@QEAA@U_Zero_then_variadic_args_t@1@@Z
	??$?0$$V@?$_Compressed_pair@V?$allocator@U?$_Tree_node@U?$pair@$$CBU?$pair@GG@std@@V?$vector@V?$basic_string@DU?$char_traits@D@std@@V?$allocator@D@2@@std@@V?$allocator@V?$basic_string@DU?$char_traits@D@std@@V?$allocator@D@2@@std@@@2@@2@@std@@PEAX@std@@@std@@V?$_Tree_val@U?$_Tree_simple_types@U?$pair@$$CBU?$pair@GG@std@@V?$vector@V?$basic_string@DU?$char_traits@D@std@@V?$allocator@D@2@@std@@V?$allocator@V?$basic_string@DU?$char_traits@D@std@@V?$allocator@D@2@@std@@@2@@2@@std@@@std@@@2@$00@std@@QEAA@U_Zero_then_variadic_args_t@1@@Z
	??$?0$$V@?$_Compressed_pair@V?$allocator@U?$_Tree_node@U?$pair@$$CBUDeviceSellectInfo@libeYs3D@@V?$shared_ptr@VCameraDevice@devices@libeYs3D@@@std@@@std@@PEAX@std@@@std@@V?$_Tree_val@U?$_Tree_simple_types@U?$pair@$$CBUDeviceSellectInfo@libeYs3D@@V?$shared_ptr@VCameraDevice@devices@libeYs3D@@@std@@@std@@@std@@@2@$00@std@@QEAA@U_Zero_then_variadic_args_t@1@@Z
	??$?0$$V@?$_Compressed_pair@V?$allocator@U?$_Tree_node@U?$pair@$$CBW4IMUPacketSymbol@IMUData@@_K@std@@PEAX@std@@@std@@V?$_Tree_val@U?$_Tree_simple_types@U?$pair@$$CBW4IMUPacketSymbol@IMUData@@_K@std@@@std@@@2@$00@std@@QEAA@U_Zero_then_variadic_args_t@1@@Z
	??$?0$$V@?$_Compressed_pair@V?$allocator@UCloudPoint@@@std@@V?$_Vector_val@U?$_Simple_types@UCloudPoint@@@std@@@2@$00@std@@QEAA@U_Zero_then_variadic_args_t@1@@Z
	??$?0$$V@?$_Compressed_pair@V?$allocator@UCommand@?$WorkerThread@V?$Optional@VCallbackWorkItem@sensors@libeYs3D@@@base@libeYs3D@@@base@libeYs3D@@@std@@V?$_Vector_val@U?$_Simple_types@UCommand@?$WorkerThread@V?$Optional@VCallbackWorkItem@sensors@libeYs3D@@@base@libeYs3D@@@base@libeYs3D@@@std@@@2@$00@std@@QEAA@U_Zero_then_variadic_args_t@1@@Z
	??$?0$$V@?$_Compressed_pair@V?$allocator@UCommand@?$WorkerThread@V?$Optional@VCallbackWorkItem@video@libeYs3D@@@base@libeYs3D@@@base@libeYs3D@@@std@@V?$_Vector_val@U?$_Simple_types@UCommand@?$WorkerThread@V?$Optional@VCallbackWorkItem@video@libeYs3D@@@base@libeYs3D@@@base@libeYs3D@@@std@@@2@$00@std@@QEAA@U_Zero_then_variadic_args_t@1@@Z
	??$?0$$V@?$_Compressed_pair@V?$allocator@UCommand@?$WorkerThread@V?$Optional@VDACalculateWorkItem@video@libeYs3D@@@base@libeYs3D@@@base@libeYs3D@@@std@@V?$_Vector_val@U?$_Simple_types@UCommand@?$WorkerThread@V?$Optional@VDACalculateWorkItem@video@libeYs3D@@@base@libeYs3D@@@base@libeYs3D@@@std@@@2@$00@std@@QEAA@U_Zero_then_variadic_args_t@1@@Z
	??$?0$$V@?$_Compressed_pair@V?$allocator@UMODE_CONFIG@ModeConfig@@@std@@V?$_Vector_val@U?$_Simple_types@UMODE_CONFIG@ModeConfig@@@std@@@2@$00@std@@QEAA@U_Zero_then_variadic_args_t@1@@Z
	??$?0$$V@?$_Compressed_pair@V?$allocator@UtagAPC_STREAM_INFO@@@std@@V?$_Vector_val@U?$_Simple_types@UtagAPC_STREAM_INFO@@@std@@@2@$00@std@@QEAA@U_Zero_then_variadic_args_t@1@@Z
	??$?0$$V@?$_Compressed_pair@V?$allocator@V?$Optional@V?$WorkerThread@V?$Optional@VCallbackWorkItem@sensors@libeYs3D@@@base@libeYs3D@@@base@libeYs3D@@@base@libeYs3D@@@std@@V?$_Vector_val@U?$_Simple_types@V?$Optional@V?$WorkerThread@V?$Optional@VCallbackWorkItem@sensors@libeYs3D@@@base@libeYs3D@@@base@libeYs3D@@@base@libeYs3D@@@std@@@2@$00@std@@QEAA@U_Zero_then_variadic_args_t@1@@Z
	??$?0$$V@?$_Compressed_pair@V?$allocator@V?$Optional@V?$WorkerThread@V?$Optional@VCallbackWorkItem@video@libeYs3D@@@base@libeYs3D@@@base@libeYs3D@@@base@libeYs3D@@@std@@V?$_Vector_val@U?$_Simple_types@V?$Optional@V?$WorkerThread@V?$Optional@VCallbackWorkItem@video@libeYs3D@@@base@libeYs3D@@@base@libeYs3D@@@base@libeYs3D@@@std@@@2@$00@std@@QEAA@U_Zero_then_variadic_args_t@1@@Z
	??$?0$$V@?$_Compressed_pair@V?$allocator@V?$Optional@V?$WorkerThread@V?$Optional@VDACalculateWorkItem@video@libeYs3D@@@base@libeYs3D@@@base@libeYs3D@@@base@libeYs3D@@@std@@V?$_Vector_val@U?$_Simple_types@V?$Optional@V?$WorkerThread@V?$Optional@VDACalculateWorkItem@video@libeYs3D@@@base@libeYs3D@@@base@libeYs3D@@@base@libeYs3D@@@std@@@2@$00@std@@QEAA@U_Zero_then_variadic_args_t@1@@Z
	??$?0$$V@?$_Compressed_pair@V?$allocator@V?$basic_string@DU?$char_traits@D@std@@V?$allocator@D@2@@std@@@std@@V?$_Vector_val@U?$_Simple_types@V?$basic_string@DU?$char_traits@D@std@@V?$allocator@D@2@@std@@@std@@@2@$00@std@@QEAA@U_Zero_then_variadic_args_t@1@@Z
	??$?0$$V@?$_Compressed_pair@V?$allocator@W4IMU_DATA_FORMAT@IMUDevice@devices@libeYs3D@@@std@@V?$_Vector_val@U?$_Simple_types@W4IMU_DATA_FORMAT@IMUDevice@devices@libeYs3D@@@std@@@2@$00@std@@QEAA@U_Zero_then_variadic_args_t@1@@Z
	??$?0AEAGAEAG$0A@@?$pair@GG@std@@QEAA@AEAG0@Z
	??$?0AEAHH$0A@@?$pair@HH@std@@QEAA@AEAH$$QEAH@Z
	??$?0AEAPEAMAEAPEAM$0A@@?$pair@PEAMPEAM@std@@QEAA@AEAPEAM0@Z
	??$?0AEAPEAVFrameProducer@video@libeYs3D@@@?$_Compressed_pair@U?$default_delete@VFrameProducer@video@libeYs3D@@@std@@PEAVFrameProducer@video@libeYs3D@@$00@std@@QEAA@U_Zero_then_variadic_args_t@1@AEAPEAVFrameProducer@video@libeYs3D@@@Z
	??$?0AEAPEAVModeConfigOptions@@@?$_Compressed_pair@U?$default_delete@VModeConfigOptions@@@std@@PEAVModeConfigOptions@@$00@std@@QEAA@U_Zero_then_variadic_args_t@1@AEAPEAVModeConfigOptions@@@Z
	??$?0AEAPEAVPCProducer@video@libeYs3D@@@?$_Compressed_pair@U?$default_delete@VPCProducer@video@libeYs3D@@@std@@PEAVPCProducer@video@libeYs3D@@$00@std@@QEAA@U_Zero_then_variadic_args_t@1@AEAPEAVPCProducer@video@libeYs3D@@@Z
	??$?0AEAPEAV_Facet_base@std@@@?$_Compressed_pair@U?$default_delete@V_Facet_base@std@@@std@@PEAV_Facet_base@2@$00@std@@QEAA@U_Zero_then_variadic_args_t@1@AEAPEAV_Facet_base@1@@Z
	??$?0AEAV?$_Tree_const_iterator@V?$_Tree_val@U?$_Tree_simple_types@U?$pair@$$CBU?$pair@GG@std@@V?$vector@V?$basic_string@DU?$char_traits@D@std@@V?$allocator@D@2@@std@@V?$allocator@V?$basic_string@DU?$char_traits@D@std@@V?$allocator@D@2@@std@@@2@@2@@std@@@std@@@std@@@std@@AEAV01@$0A@@?$pair@V?$_Tree_const_iterator@V?$_Tree_val@U?$_Tree_simple_types@U?$pair@$$CBU?$pair@GG@std@@V?$vector@V?$basic_string@DU?$char_traits@D@std@@V?$allocator@D@2@@std@@V?$allocator@V?$basic_string@DU?$char_traits@D@std@@V?$allocator@D@2@@std@@@2@@2@@std@@@std@@@std@@@std@@V12@@std@@QEAA@AEAV?$_Tree_const_iterator@V?$_Tree_val@U?$_Tree_simple_types@U?$pair@$$CBU?$pair@GG@std@@V?$vector@V?$basic_string@DU?$char_traits@D@std@@V?$allocator@D@2@@std@@V?$allocator@V?$basic_string@DU?$char_traits@D@std@@V?$allocator@D@2@@std@@@2@@2@@std@@@std@@@std@@@1@0@Z
	??$?0AEAV?$_Tree_iterator@V?$_Tree_val@U?$_Tree_simple_types@U?$pair@$$CBHH@std@@@std@@@std@@@std@@_N$0A@@?$pair@V?$_Tree_iterator@V?$_Tree_val@U?$_Tree_simple_types@U?$pair@$$CBHH@std@@@std@@@std@@@std@@_N@std@@QEAA@AEAV?$_Tree_iterator@V?$_Tree_val@U?$_Tree_simple_types@U?$pair@$$CBHH@std@@@std@@@std@@@1@$$QEA_N@Z
	??$?0AEAV?$_Tree_iterator@V?$_Tree_val@U?$_Tree_simple_types@U?$pair@$$CBHUPID_TABLE@ModeConfig@@@std@@@std@@@std@@@std@@_N$0A@@?$pair@V?$_Tree_iterator@V?$_Tree_val@U?$_Tree_simple_types@U?$pair@$$CBHUPID_TABLE@ModeConfig@@@std@@@std@@@std@@@std@@_N@std@@QEAA@AEAV?$_Tree_iterator@V?$_Tree_val@U?$_Tree_simple_types@U?$pair@$$CBHUPID_TABLE@ModeConfig@@@std@@@std@@@std@@@1@$$QEA_N@Z
	??$?0AEAV?$_Tree_iterator@V?$_Tree_val@U?$_Tree_simple_types@U?$pair@$$CBU?$pair@GG@std@@V?$vector@V?$basic_string@DU?$char_traits@D@std@@V?$allocator@D@2@@std@@V?$allocator@V?$basic_string@DU?$char_traits@D@std@@V?$allocator@D@2@@std@@@2@@2@@std@@@std@@@std@@@std@@_N$0A@@?$pair@V?$_Tree_iterator@V?$_Tree_val@U?$_Tree_simple_types@U?$pair@$$CBU?$pair@GG@std@@V?$vector@V?$basic_string@DU?$char_traits@D@std@@V?$allocator@D@2@@std@@V?$allocator@V?$basic_string@DU?$char_traits@D@std@@V?$allocator@D@2@@std@@@2@@2@@std@@@std@@@std@@@std@@_N@std@@QEAA@AEAV?$_Tree_iterator@V?$_Tree_val@U?$_Tree_simple_types@U?$pair@$$CBU?$pair@GG@std@@V?$vector@V?$basic_string@DU?$char_traits@D@std@@V?$allocator@D@2@@std@@V?$allocator@V?$basic_string@DU?$char_traits@D@std@@V?$allocator@D@2@@std@@@2@@2@@std@@@std@@@std@@@1@$$QEA_N@Z
	??$?0AEAV?$_Tree_iterator@V?$_Tree_val@U?$_Tree_simple_types@U?$pair@$$CBUDeviceSellectInfo@libeYs3D@@V?$shared_ptr@VCameraDevice@devices@libeYs3D@@@std@@@std@@@std@@@std@@@std@@_N$0A@@?$pair@V?$_Tree_iterator@V?$_Tree_val@U?$_Tree_simple_types@U?$pair@$$CBUDeviceSellectInfo@libeYs3D@@V?$shared_ptr@VCameraDevice@devices@libeYs3D@@@std@@@std@@@std@@@std@@@std@@_N@std@@QEAA@AEAV?$_Tree_iterator@V?$_Tree_val@U?$_Tree_simple_types@U?$pair@$$CBUDeviceSellectInfo@libeYs3D@@V?$shared_ptr@VCameraDevice@devices@libeYs3D@@@std@@@std@@@std@@@std@@@1@$$QEA_N@Z
	??$?0AEAV?$_Tree_iterator@V?$_Tree_val@U?$_Tree_simple_types@U?$pair@$$CBW4IMUPacketSymbol@IMUData@@_K@std@@@std@@@std@@@std@@_N$0A@@?$pair@V?$_Tree_iterator@V?$_Tree_val@U?$_Tree_simple_types@U?$pair@$$CBW4IMUPacketSymbol@IMUData@@_K@std@@@std@@@std@@@std@@_N@std@@QEAA@AEAV?$_Tree_iterator@V?$_Tree_val@U?$_Tree_simple_types@U?$pair@$$CBW4IMUPacketSymbol@IMUData@@_K@std@@@std@@@std@@@1@$$QEA_N@Z
	??$?0AEBH$$Z$$V@?$pair@$$CBHUPID_TABLE@ModeConfig@@@std@@QEAA@Upiecewise_construct_t@1@V?$tuple@AEBH@1@V?$tuple@$$V@1@@Z
	??$?0AEBH$0A@@?$tuple@AEBH@std@@QEAA@AEBH@Z
	??$?0AEBH@?$_Tuple_val@AEBH@std@@QEAA@AEBH@Z
	??$?0AEBU?$_Ph@$00@std@@@?$_Tuple_val@U?$_Ph@$00@std@@@std@@QEAA@AEBU?$_Ph@$00@1@@Z
	??$?0AEBU?$less@H@std@@U_Zero_then_variadic_args_t@1@@?$_Compressed_pair@U?$less@H@std@@V?$_Compressed_pair@V?$allocator@U?$_Tree_node@U?$pair@$$CBHH@std@@PEAX@std@@@std@@V?$_Tree_val@U?$_Tree_simple_types@U?$pair@$$CBHH@std@@@std@@@2@$00@2@$00@std@@QEAA@U_One_then_variadic_args_t@1@AEBU?$less@H@1@$$QEAU_Zero_then_variadic_args_t@1@@Z
	??$?0AEBU?$less@H@std@@U_Zero_then_variadic_args_t@1@@?$_Compressed_pair@U?$less@H@std@@V?$_Compressed_pair@V?$allocator@U?$_Tree_node@U?$pair@$$CBHUPID_TABLE@ModeConfig@@@std@@PEAX@std@@@std@@V?$_Tree_val@U?$_Tree_simple_types@U?$pair@$$CBHUPID_TABLE@ModeConfig@@@std@@@std@@@2@$00@2@$00@std@@QEAA@U_One_then_variadic_args_t@1@AEBU?$less@H@1@$$QEAU_Zero_then_variadic_args_t@1@@Z
	??$?0AEBU?$less@U?$pair@GG@std@@@std@@U_Zero_then_variadic_args_t@1@@?$_Compressed_pair@U?$less@U?$pair@GG@std@@@std@@V?$_Compressed_pair@V?$allocator@U?$_Tree_node@U?$pair@$$CBU?$pair@GG@std@@V?$vector@V?$basic_string@DU?$char_traits@D@std@@V?$allocator@D@2@@std@@V?$allocator@V?$basic_string@DU?$char_traits@D@std@@V?$allocator@D@2@@std@@@2@@2@@std@@PEAX@std@@@std@@V?$_Tree_val@U?$_Tree_simple_types@U?$pair@$$CBU?$pair@GG@std@@V?$vector@V?$basic_string@DU?$char_traits@D@std@@V?$allocator@D@2@@std@@V?$allocator@V?$basic_string@DU?$char_traits@D@std@@V?$allocator@D@2@@std@@@2@@2@@std@@@std@@@2@$00@2@$00@std@@QEAA@U_One_then_variadic_args_t@1@AEBU?$less@U?$pair@GG@std@@@1@$$QEAU_Zero_then_variadic_args_t@1@@Z
	??$?0AEBU?$less@UDeviceSellectInfo@libeYs3D@@@std@@U_Zero_then_variadic_args_t@1@@?$_Compressed_pair@U?$less@UDeviceSellectInfo@libeYs3D@@@std@@V?$_Compressed_pair@V?$allocator@U?$_Tree_node@U?$pair@$$CBUDeviceSellectInfo@libeYs3D@@V?$shared_ptr@VCameraDevice@devices@libeYs3D@@@std@@@std@@PEAX@std@@@std@@V?$_Tree_val@U?$_Tree_simple_types@U?$pair@$$CBUDeviceSellectInfo@libeYs3D@@V?$shared_ptr@VCameraDevice@devices@libeYs3D@@@std@@@std@@@std@@@2@$00@2@$00@std@@QEAA@U_One_then_variadic_args_t@1@AEBU?$less@UDeviceSellectInfo@libeYs3D@@@1@$$QEAU_Zero_then_variadic_args_t@1@@Z
	??$?0AEBU?$less@W4IMUPacketSymbol@IMUData@@@std@@U_Zero_then_variadic_args_t@1@@?$_Compressed_pair@U?$less@W4IMUPacketSymbol@IMUData@@@std@@V?$_Compressed_pair@V?$allocator@U?$_Tree_node@U?$pair@$$CBW4IMUPacketSymbol@IMUData@@_K@std@@PEAX@std@@@std@@V?$_Tree_val@U?$_Tree_simple_types@U?$pair@$$CBW4IMUPacketSymbol@IMUData@@_K@std@@@std@@@2@$00@2@$00@std@@QEAA@U_One_then_variadic_args_t@1@AEBU?$less@W4IMUPacketSymbol@IMUData@@@1@$$QEAU_Zero_then_variadic_args_t@1@@Z
	??$?0AEBU?$pair@GG@std@@$$Z$$V@?$pair@$$CBU?$pair@GG@std@@V?$vector@V?$basic_string@DU?$char_traits@D@std@@V?$allocator@D@2@@std@@V?$allocator@V?$basic_string@DU?$char_traits@D@std@@V?$allocator@D@2@@std@@@2@@2@@std@@QEAA@Upiecewise_construct_t@1@V?$tuple@AEBU?$pair@GG@std@@@1@V?$tuple@$$V@1@@Z
	??$?0AEBU?$pair@GG@std@@$0A@@?$tuple@AEBU?$pair@GG@std@@@std@@QEAA@AEBU?$pair@GG@1@@Z
	??$?0AEBU?$pair@GG@std@@@?$_Tuple_val@AEBU?$pair@GG@std@@@std@@QEAA@AEBU?$pair@GG@1@@Z
	??$?0AEBUDeviceSellectInfo@libeYs3D@@$$Z$$V@?$pair@$$CBUDeviceSellectInfo@libeYs3D@@V?$shared_ptr@VCameraDevice@devices@libeYs3D@@@std@@@std@@QEAA@Upiecewise_construct_t@1@V?$tuple@AEBUDeviceSellectInfo@libeYs3D@@@1@V?$tuple@$$V@1@@Z
	??$?0AEBUDeviceSellectInfo@libeYs3D@@$0A@@?$tuple@AEBUDeviceSellectInfo@libeYs3D@@@std@@QEAA@AEBUDeviceSellectInfo@libeYs3D@@@Z
	??$?0AEBUDeviceSellectInfo@libeYs3D@@@?$_Tuple_val@AEBUDeviceSellectInfo@libeYs3D@@@std@@QEAA@AEBUDeviceSellectInfo@libeYs3D@@@Z
	??$?0AEBV<lambda_488c629a0a7c1ecc954ac8047e960599>@@X@?$_Func_impl_no_alloc@V<lambda_488c629a0a7c1ecc954ac8047e960599>@@_J$$V@std@@QEAA@AEBV<lambda_488c629a0a7c1ecc954ac8047e960599>@@@Z
	??$?0AEBV<lambda_4cde73e63763cb313bd212247f8ddbb0>@@X@?$_Func_impl_no_alloc@V<lambda_4cde73e63763cb313bd212247f8ddbb0>@@W4WorkerProcessingResult@base@libeYs3D@@$$QEAV?$Optional@VDACalculateWorkItem@video@libeYs3D@@@34@@std@@QEAA@AEBV<lambda_4cde73e63763cb313bd212247f8ddbb0>@@@Z
	??$?0AEBV<lambda_530843cc44829e3530ea01af34e42038>@@X@?$_Func_impl_no_alloc@V<lambda_530843cc44829e3530ea01af34e42038>@@W4WorkerProcessingResult@base@libeYs3D@@$$QEAV?$Optional@VCallbackWorkItem@sensors@libeYs3D@@@34@@std@@QEAA@AEBV<lambda_530843cc44829e3530ea01af34e42038>@@@Z
	??$?0AEBV<lambda_69d578ede27bd906c7e1bc689c004001>@@X@?$_Func_impl_no_alloc@V<lambda_69d578ede27bd906c7e1bc689c004001>@@_J$$V@std@@QEAA@AEBV<lambda_69d578ede27bd906c7e1bc689c004001>@@@Z
	??$?0AEBV<lambda_9f92d7825455e143dbf3293131d714f3>@@X@?$_Func_impl_no_alloc@V<lambda_9f92d7825455e143dbf3293131d714f3>@@W4WorkerProcessingResult@base@libeYs3D@@$$QEAV?$Optional@VCallbackWorkItem@video@libeYs3D@@@34@@std@@QEAA@AEBV<lambda_9f92d7825455e143dbf3293131d714f3>@@@Z
	??$?0AEBV<lambda_fd68a9891d2d9d887c20652be0ece82a>@@X@?$_Func_impl_no_alloc@V<lambda_fd68a9891d2d9d887c20652be0ece82a>@@_J$$V@std@@QEAA@AEBV<lambda_fd68a9891d2d9d887c20652be0ece82a>@@@Z
	??$?0AEBV?$_Binder@U_Unforced@std@@P8DepthFrameProducer@video@libeYs3D@@EAAXPEAVFrame@45@@ZPEAV345@AEBU?$_Ph@$00@2@@std@@X@?$_Func_impl_no_alloc@V?$_Binder@U_Unforced@std@@P8DepthFrameProducer@video@libeYs3D@@EAAXPEAVFrame@45@@ZPEAV345@AEBU?$_Ph@$00@2@@std@@XPEAVFrame@video@libeYs3D@@@std@@QEAA@AEBV?$_Binder@U_Unforced@std@@P8DepthFrameProducer@video@libeYs3D@@EAAXPEAVFrame@45@@ZPEAV345@AEBU?$_Ph@$00@2@@1@@Z
	??$?0AEBV?$_Binder@U_Unforced@std@@P8FrameProducer@video@libeYs3D@@EAA_NPEBUSensorDataSet@sensors@5@@ZPEAV345@AEBU?$_Ph@$00@2@@std@@X@?$_Func_impl_no_alloc@V?$_Binder@U_Unforced@std@@P8FrameProducer@video@libeYs3D@@EAA_NPEBUSensorDataSet@sensors@5@@ZPEAV345@AEBU?$_Ph@$00@2@@std@@_NPEBUSensorDataSet@sensors@libeYs3D@@@std@@QEAA@AEBV?$_Binder@U_Unforced@std@@P8FrameProducer@video@libeYs3D@@EAA_NPEBUSensorDataSet@sensors@5@@ZPEAV345@AEBU?$_Ph@$00@2@@1@@Z
	??$?0AEBV?$_Binder@U_Unforced@std@@P8FrameProducer@video@libeYs3D@@EAA_NPEBVFrame@45@@ZPEAV345@AEBU?$_Ph@$00@2@@std@@X@?$_Func_impl_no_alloc@V?$_Binder@U_Unforced@std@@P8FrameProducer@video@libeYs3D@@EAA_NPEBVFrame@45@@ZPEAV345@AEBU?$_Ph@$00@2@@std@@_NPEBVFrame@video@libeYs3D@@@std@@QEAA@AEBV?$_Binder@U_Unforced@std@@P8FrameProducer@video@libeYs3D@@EAA_NPEBVFrame@45@@ZPEAV345@AEBU?$_Ph@$00@2@@1@@Z
	??$?0AEBV?$_Binder@U_Unforced@std@@P8FrameSetPipeline@devices@libeYs3D@@EAA_NPEBVFrame@video@5@@ZPEAV345@AEBU?$_Ph@$00@2@@std@@X@?$_Func_impl_no_alloc@V?$_Binder@U_Unforced@std@@P8FrameSetPipeline@devices@libeYs3D@@EAA_NPEBVFrame@video@5@@ZPEAV345@AEBU?$_Ph@$00@2@@std@@_NPEBVFrame@video@libeYs3D@@@std@@QEAA@AEBV?$_Binder@U_Unforced@std@@P8FrameSetPipeline@devices@libeYs3D@@EAA_NPEBVFrame@video@5@@ZPEAV345@AEBU?$_Ph@$00@2@@1@@Z
	??$?0AEBV?$_Binder@U_Unforced@std@@P8FrameSetPipeline@devices@libeYs3D@@EAA_NPEBVPCFrame@video@5@@ZPEAV345@AEBU?$_Ph@$00@2@@std@@X@?$_Func_impl_no_alloc@V?$_Binder@U_Unforced@std@@P8FrameSetPipeline@devices@libeYs3D@@EAA_NPEBVPCFrame@video@5@@ZPEAV345@AEBU?$_Ph@$00@2@@std@@_NPEBVPCFrame@video@libeYs3D@@@std@@QEAA@AEBV?$_Binder@U_Unforced@std@@P8FrameSetPipeline@devices@libeYs3D@@EAA_NPEBVPCFrame@video@5@@ZPEAV345@AEBU?$_Ph@$00@2@@1@@Z
	??$?0AEBV?$_Binder@U_Unforced@std@@P8PCFrameProducer@video@libeYs3D@@EAA_NPEBVFrame@45@@ZPEAV345@AEBU?$_Ph@$00@2@@std@@X@?$_Func_impl_no_alloc@V?$_Binder@U_Unforced@std@@P8PCFrameProducer@video@libeYs3D@@EAA_NPEBVFrame@45@@ZPEAV345@AEBU?$_Ph@$00@2@@std@@_NPEBVFrame@video@libeYs3D@@@std@@QEAA@AEBV?$_Binder@U_Unforced@std@@P8PCFrameProducer@video@libeYs3D@@EAA_NPEBVFrame@45@@ZPEAV345@AEBU?$_Ph@$00@2@@1@@Z
	??$?0AEBV?$_Binder@U_Unforced@std@@P8Pipeline@devices@libeYs3D@@EAA_NPEBUSensorData@sensors@5@@ZPEAV345@AEBU?$_Ph@$00@2@@std@@X@?$_Func_impl_no_alloc@V?$_Binder@U_Unforced@std@@P8Pipeline@devices@libeYs3D@@EAA_NPEBUSensorData@sensors@5@@ZPEAV345@AEBU?$_Ph@$00@2@@std@@_NPEBUSensorData@sensors@libeYs3D@@@std@@QEAA@AEBV?$_Binder@U_Unforced@std@@P8Pipeline@devices@libeYs3D@@EAA_NPEBUSensorData@sensors@5@@ZPEAV345@AEBU?$_Ph@$00@2@@1@@Z
	??$?0AEBV?$_Binder@U_Unforced@std@@P8Pipeline@devices@libeYs3D@@EAA_NPEBVFrame@video@5@@ZPEAV345@AEBU?$_Ph@$00@2@@std@@X@?$_Func_impl_no_alloc@V?$_Binder@U_Unforced@std@@P8Pipeline@devices@libeYs3D@@EAA_NPEBVFrame@video@5@@ZPEAV345@AEBU?$_Ph@$00@2@@std@@_NPEBVFrame@video@libeYs3D@@@std@@QEAA@AEBV?$_Binder@U_Unforced@std@@P8Pipeline@devices@libeYs3D@@EAA_NPEBVFrame@video@5@@ZPEAV345@AEBU?$_Ph@$00@2@@1@@Z
	??$?0AEBV?$_Binder@U_Unforced@std@@P8Pipeline@devices@libeYs3D@@EAA_NPEBVPCFrame@video@5@@ZPEAV345@AEBU?$_Ph@$00@2@@std@@X@?$_Func_impl_no_alloc@V?$_Binder@U_Unforced@std@@P8Pipeline@devices@libeYs3D@@EAA_NPEBVPCFrame@video@5@@ZPEAV345@AEBU?$_Ph@$00@2@@std@@_NPEBVPCFrame@video@libeYs3D@@@std@@QEAA@AEBV?$_Binder@U_Unforced@std@@P8Pipeline@devices@libeYs3D@@EAA_NPEBVPCFrame@video@5@@ZPEAV345@AEBU?$_Ph@$00@2@@1@@Z
	??$?0AEBV?$_Binder@U_Unforced@std@@P8SensorDataProducer@sensors@libeYs3D@@EAA_NPEBUSensorDataSet@45@@ZPEAV345@AEBU?$_Ph@$00@2@@std@@X@?$_Func_impl_no_alloc@V?$_Binder@U_Unforced@std@@P8SensorDataProducer@sensors@libeYs3D@@EAA_NPEBUSensorDataSet@45@@ZPEAV345@AEBU?$_Ph@$00@2@@std@@_NPEBUSensorDataSet@sensors@libeYs3D@@@std@@QEAA@AEBV?$_Binder@U_Unforced@std@@P8SensorDataProducer@sensors@libeYs3D@@EAA_NPEBUSensorDataSet@45@@ZPEAV345@AEBU?$_Ph@$00@2@@1@@Z
	??$?0AEBV?$allocator@D@std@@$$V@?$_Compressed_pair@V?$allocator@D@std@@V?$_String_val@U?$_Simple_types@D@std@@@2@$00@std@@QEAA@U_One_then_variadic_args_t@1@AEBV?$allocator@D@1@@Z
	??$?0AEBV?$allocator@D@std@@X@?$_String_alloc@U?$_String_base_types@DV?$allocator@D@std@@@std@@@std@@QEAA@AEBV?$allocator@D@1@@Z
	??$?0AEBV?$allocator@E@std@@$$V@?$_Compressed_pair@V?$allocator@E@std@@V?$_Vector_val@U?$_Simple_types@E@std@@@2@$00@std@@QEAA@U_One_then_variadic_args_t@1@AEBV?$allocator@E@1@@Z
	??$?0AEBV?$allocator@E@std@@X@?$_Vector_alloc@U?$_Vec_base_types@EV?$allocator@E@std@@@std@@@std@@QEAA@AEBV?$allocator@E@1@@Z
	??$?0AEBV?$allocator@G@std@@$$V@?$_Compressed_pair@V?$allocator@G@std@@V?$_Vector_val@U?$_Simple_types@G@std@@@2@$00@std@@QEAA@U_One_then_variadic_args_t@1@AEBV?$allocator@G@1@@Z
	??$?0AEBV?$allocator@G@std@@X@?$_Vector_alloc@U?$_Vec_base_types@GV?$allocator@G@std@@@std@@@std@@QEAA@AEBV?$allocator@G@1@@Z
	??$?0AEBV?$allocator@M@std@@$$V@?$_Compressed_pair@V?$allocator@M@std@@V?$_Vector_val@U?$_Simple_types@M@std@@@2@$00@std@@QEAA@U_One_then_variadic_args_t@1@AEBV?$allocator@M@1@@Z
	??$?0AEBV?$allocator@M@std@@X@?$_Vector_alloc@U?$_Vec_base_types@MV?$allocator@M@std@@@std@@@std@@QEAA@AEBV?$allocator@M@1@@Z
	??$?0AEBV?$allocator@USensorData@sensors@libeYs3D@@@std@@$$V@?$_Compressed_pair@V?$allocator@USensorData@sensors@libeYs3D@@@std@@V?$_Vector_val@U?$_Simple_types@USensorData@sensors@libeYs3D@@@std@@@2@$00@std@@QEAA@U_One_then_variadic_args_t@1@AEBV?$allocator@USensorData@sensors@libeYs3D@@@1@@Z
	??$?0AEBV?$allocator@USensorData@sensors@libeYs3D@@@std@@X@?$_Vector_alloc@U?$_Vec_base_types@USensorData@sensors@libeYs3D@@V?$allocator@USensorData@sensors@libeYs3D@@@std@@@std@@@std@@QEAA@AEBV?$allocator@USensorData@sensors@libeYs3D@@@1@@Z
	??$?0AEBV?$allocator@V?$Optional@V?$WorkerThread@V?$Optional@VCallbackWorkItem@sensors@libeYs3D@@@base@libeYs3D@@@base@libeYs3D@@@base@libeYs3D@@@std@@$$V@?$_Compressed_pair@V?$allocator@V?$Optional@V?$WorkerThread@V?$Optional@VCallbackWorkItem@sensors@libeYs3D@@@base@libeYs3D@@@base@libeYs3D@@@base@libeYs3D@@@std@@V?$_Vector_val@U?$_Simple_types@V?$Optional@V?$WorkerThread@V?$Optional@VCallbackWorkItem@sensors@libeYs3D@@@base@libeYs3D@@@base@libeYs3D@@@base@libeYs3D@@@std@@@2@$00@std@@QEAA@U_One_then_variadic_args_t@1@AEBV?$allocator@V?$Optional@V?$WorkerThread@V?$Optional@VCallbackWorkItem@sensors@libeYs3D@@@base@libeYs3D@@@base@libeYs3D@@@base@libeYs3D@@@1@@Z
	??$?0AEBV?$allocator@V?$Optional@V?$WorkerThread@V?$Optional@VCallbackWorkItem@sensors@libeYs3D@@@base@libeYs3D@@@base@libeYs3D@@@base@libeYs3D@@@std@@X@?$_Vector_alloc@U?$_Vec_base_types@V?$Optional@V?$WorkerThread@V?$Optional@VCallbackWorkItem@sensors@libeYs3D@@@base@libeYs3D@@@base@libeYs3D@@@base@libeYs3D@@V?$allocator@V?$Optional@V?$WorkerThread@V?$Optional@VCallbackWorkItem@sensors@libeYs3D@@@base@libeYs3D@@@base@libeYs3D@@@base@libeYs3D@@@std@@@std@@@std@@QEAA@AEBV?$allocator@V?$Optional@V?$WorkerThread@V?$Optional@VCallbackWorkItem@sensors@libeYs3D@@@base@libeYs3D@@@base@libeYs3D@@@base@libeYs3D@@@1@@Z
	??$?0AEBV?$allocator@V?$Optional@V?$WorkerThread@V?$Optional@VCallbackWorkItem@video@libeYs3D@@@base@libeYs3D@@@base@libeYs3D@@@base@libeYs3D@@@std@@$$V@?$_Compressed_pair@V?$allocator@V?$Optional@V?$WorkerThread@V?$Optional@VCallbackWorkItem@video@libeYs3D@@@base@libeYs3D@@@base@libeYs3D@@@base@libeYs3D@@@std@@V?$_Vector_val@U?$_Simple_types@V?$Optional@V?$WorkerThread@V?$Optional@VCallbackWorkItem@video@libeYs3D@@@base@libeYs3D@@@base@libeYs3D@@@base@libeYs3D@@@std@@@2@$00@std@@QEAA@U_One_then_variadic_args_t@1@AEBV?$allocator@V?$Optional@V?$WorkerThread@V?$Optional@VCallbackWorkItem@video@libeYs3D@@@base@libeYs3D@@@base@libeYs3D@@@base@libeYs3D@@@1@@Z
	??$?0AEBV?$allocator@V?$Optional@V?$WorkerThread@V?$Optional@VCallbackWorkItem@video@libeYs3D@@@base@libeYs3D@@@base@libeYs3D@@@base@libeYs3D@@@std@@X@?$_Vector_alloc@U?$_Vec_base_types@V?$Optional@V?$WorkerThread@V?$Optional@VCallbackWorkItem@video@libeYs3D@@@base@libeYs3D@@@base@libeYs3D@@@base@libeYs3D@@V?$allocator@V?$Optional@V?$WorkerThread@V?$Optional@VCallbackWorkItem@video@libeYs3D@@@base@libeYs3D@@@base@libeYs3D@@@base@libeYs3D@@@std@@@std@@@std@@QEAA@AEBV?$allocator@V?$Optional@V?$WorkerThread@V?$Optional@VCallbackWorkItem@video@libeYs3D@@@base@libeYs3D@@@base@libeYs3D@@@base@libeYs3D@@@1@@Z
	??$?0AEBV?$allocator@V?$Optional@V?$WorkerThread@V?$Optional@VDACalculateWorkItem@video@libeYs3D@@@base@libeYs3D@@@base@libeYs3D@@@base@libeYs3D@@@std@@$$V@?$_Compressed_pair@V?$allocator@V?$Optional@V?$WorkerThread@V?$Optional@VDACalculateWorkItem@video@libeYs3D@@@base@libeYs3D@@@base@libeYs3D@@@base@libeYs3D@@@std@@V?$_Vector_val@U?$_Simple_types@V?$Optional@V?$WorkerThread@V?$Optional@VDACalculateWorkItem@video@libeYs3D@@@base@libeYs3D@@@base@libeYs3D@@@base@libeYs3D@@@std@@@2@$00@std@@QEAA@U_One_then_variadic_args_t@1@AEBV?$allocator@V?$Optional@V?$WorkerThread@V?$Optional@VDACalculateWorkItem@video@libeYs3D@@@base@libeYs3D@@@base@libeYs3D@@@base@libeYs3D@@@1@@Z
	??$?0AEBV?$allocator@V?$Optional@V?$WorkerThread@V?$Optional@VDACalculateWorkItem@video@libeYs3D@@@base@libeYs3D@@@base@libeYs3D@@@base@libeYs3D@@@std@@X@?$_Vector_alloc@U?$_Vec_base_types@V?$Optional@V?$WorkerThread@V?$Optional@VDACalculateWorkItem@video@libeYs3D@@@base@libeYs3D@@@base@libeYs3D@@@base@libeYs3D@@V?$allocator@V?$Optional@V?$WorkerThread@V?$Optional@VDACalculateWorkItem@video@libeYs3D@@@base@libeYs3D@@@base@libeYs3D@@@base@libeYs3D@@@std@@@std@@@std@@QEAA@AEBV?$allocator@V?$Optional@V?$WorkerThread@V?$Optional@VDACalculateWorkItem@video@libeYs3D@@@base@libeYs3D@@@base@libeYs3D@@@base@libeYs3D@@@1@@Z
	??$?0AEBV?$allocator@V?$vector@FV?$allocator@F@std@@@std@@@std@@$$V@?$_Compressed_pair@V?$allocator@U?$_List_node@V?$vector@FV?$allocator@F@std@@@std@@PEAX@std@@@std@@V?$_List_val@U?$_List_simple_types@V?$vector@FV?$allocator@F@std@@@std@@@std@@@2@$00@std@@QEAA@U_One_then_variadic_args_t@1@AEBV?$allocator@V?$vector@FV?$allocator@F@std@@@std@@@1@@Z
	??$?0AEBV?$allocator@V?$vector@FV?$allocator@F@std@@@std@@@std@@X@?$_List_alloc@U?$_List_base_types@V?$vector@FV?$allocator@F@std@@@std@@V?$allocator@V?$vector@FV?$allocator@F@std@@@std@@@2@@std@@@std@@QEAA@AEBV?$allocator@V?$vector@FV?$allocator@F@std@@@std@@@1@@Z
	??$?0AEBV?$allocator@V?$vector@FV?$allocator@F@std@@@std@@@std@@X@?$_List_buy@V?$vector@FV?$allocator@F@std@@@std@@V?$allocator@V?$vector@FV?$allocator@F@std@@@std@@@2@@std@@QEAA@AEBV?$allocator@V?$vector@FV?$allocator@F@std@@@std@@@1@@Z
	??$?0AEBV?$allocator@W4IMU_DATA_FORMAT@IMUDevice@devices@libeYs3D@@@std@@$$V@?$_Compressed_pair@V?$allocator@W4IMU_DATA_FORMAT@IMUDevice@devices@libeYs3D@@@std@@V?$_Vector_val@U?$_Simple_types@W4IMU_DATA_FORMAT@IMUDevice@devices@libeYs3D@@@std@@@2@$00@std@@QEAA@U_One_then_variadic_args_t@1@AEBV?$allocator@W4IMU_DATA_FORMAT@IMUDevice@devices@libeYs3D@@@1@@Z
	??$?0AEBV?$allocator@W4IMU_DATA_FORMAT@IMUDevice@devices@libeYs3D@@@std@@X@?$_Vector_alloc@U?$_Vec_base_types@W4IMU_DATA_FORMAT@IMUDevice@devices@libeYs3D@@V?$allocator@W4IMU_DATA_FORMAT@IMUDevice@devices@libeYs3D@@@std@@@std@@@std@@QEAA@AEBV?$allocator@W4IMU_DATA_FORMAT@IMUDevice@devices@libeYs3D@@@1@@Z
	??$?0D@?$allocator@U_Container_proxy@std@@@std@@QEAA@AEBV?$allocator@D@1@@Z
	??$?0E@?$allocator@U_Container_proxy@std@@@std@@QEAA@AEBV?$allocator@E@1@@Z
	??$?0F@?$allocator@U_Container_proxy@std@@@std@@QEAA@AEBV?$allocator@F@1@@Z
	??$?0G@?$allocator@U_Container_proxy@std@@@std@@QEAA@AEBV?$allocator@G@1@@Z
	??$?0H@?$allocator@U_Container_proxy@std@@@std@@QEAA@AEBV?$allocator@H@1@@Z
	??$?0HH$0A@@?$pair@$$CBHH@std@@QEAA@$$QEAU?$pair@HH@1@@Z
	??$?0M@?$allocator@U_Container_proxy@std@@@std@@QEAA@AEBV?$allocator@M@1@@Z
	??$?0P8DepthFrameProducer@video@libeYs3D@@EAAXPEAVFrame@12@@ZPEAV012@AEBU?$_Ph@$00@std@@@?$_Compressed_pair@P8DepthFrameProducer@video@libeYs3D@@EAAXPEAVFrame@23@@ZV?$tuple@PEAVDepthFrameProducer@video@libeYs3D@@U?$_Ph@$00@std@@@std@@$0A@@std@@QEAA@U_One_then_variadic_args_t@1@$$QEAP8DepthFrameProducer@video@libeYs3D@@EAAXPEAVFrame@45@@Z$$QEAPEAV345@AEBU?$_Ph@$00@1@@Z
	??$?0P8FrameProducer@video@libeYs3D@@EAA_NPEBUSensorDataSet@sensors@2@@ZPEAV012@AEBU?$_Ph@$00@std@@@?$_Compressed_pair@P8FrameProducer@video@libeYs3D@@EAA_NPEBUSensorDataSet@sensors@3@@ZV?$tuple@PEAVFrameProducer@video@libeYs3D@@U?$_Ph@$00@std@@@std@@$0A@@std@@QEAA@U_One_then_variadic_args_t@1@$$QEAP8FrameProducer@video@libeYs3D@@EAA_NPEBUSensorDataSet@sensors@5@@Z$$QEAPEAV345@AEBU?$_Ph@$00@1@@Z
	??$?0P8FrameProducer@video@libeYs3D@@EAA_NPEBVFrame@12@@ZPEAV012@AEBU?$_Ph@$00@std@@@?$_Compressed_pair@P8FrameProducer@video@libeYs3D@@EAA_NPEBVFrame@23@@ZV?$tuple@PEAVFrameProducer@video@libeYs3D@@U?$_Ph@$00@std@@@std@@$0A@@std@@QEAA@U_One_then_variadic_args_t@1@$$QEAP8FrameProducer@video@libeYs3D@@EAA_NPEBVFrame@45@@Z$$QEAPEAV345@AEBU?$_Ph@$00@1@@Z
	??$?0P8FrameSetPipeline@devices@libeYs3D@@EAA_NPEBVFrame@video@2@@ZPEAV012@AEBU?$_Ph@$00@std@@@?$_Compressed_pair@P8FrameSetPipeline@devices@libeYs3D@@EAA_NPEBVFrame@video@3@@ZV?$tuple@PEAVFrameSetPipeline@devices@libeYs3D@@U?$_Ph@$00@std@@@std@@$0A@@std@@QEAA@U_One_then_variadic_args_t@1@$$QEAP8FrameSetPipeline@devices@libeYs3D@@EAA_NPEBVFrame@video@5@@Z$$QEAPEAV345@AEBU?$_Ph@$00@1@@Z
	??$?0P8FrameSetPipeline@devices@libeYs3D@@EAA_NPEBVPCFrame@video@2@@ZPEAV012@AEBU?$_Ph@$00@std@@@?$_Compressed_pair@P8FrameSetPipeline@devices@libeYs3D@@EAA_NPEBVPCFrame@video@3@@ZV?$tuple@PEAVFrameSetPipeline@devices@libeYs3D@@U?$_Ph@$00@std@@@std@@$0A@@std@@QEAA@U_One_then_variadic_args_t@1@$$QEAP8FrameSetPipeline@devices@libeYs3D@@EAA_NPEBVPCFrame@video@5@@Z$$QEAPEAV345@AEBU?$_Ph@$00@1@@Z
	??$?0P8PCFrameProducer@video@libeYs3D@@EAA_NPEBVFrame@12@@ZPEAV012@AEBU?$_Ph@$00@std@@@?$_Compressed_pair@P8PCFrameProducer@video@libeYs3D@@EAA_NPEBVFrame@23@@ZV?$tuple@PEAVPCFrameProducer@video@libeYs3D@@U?$_Ph@$00@std@@@std@@$0A@@std@@QEAA@U_One_then_variadic_args_t@1@$$QEAP8PCFrameProducer@video@libeYs3D@@EAA_NPEBVFrame@45@@Z$$QEAPEAV345@AEBU?$_Ph@$00@1@@Z
	??$?0P8Pipeline@devices@libeYs3D@@EAA_NPEBUSensorData@sensors@2@@ZPEAV012@AEBU?$_Ph@$00@std@@@?$_Compressed_pair@P8Pipeline@devices@libeYs3D@@EAA_NPEBUSensorData@sensors@3@@ZV?$tuple@PEAVPipeline@devices@libeYs3D@@U?$_Ph@$00@std@@@std@@$0A@@std@@QEAA@U_One_then_variadic_args_t@1@$$QEAP8Pipeline@devices@libeYs3D@@EAA_NPEBUSensorData@sensors@5@@Z$$QEAPEAV345@AEBU?$_Ph@$00@1@@Z
	??$?0P8Pipeline@devices@libeYs3D@@EAA_NPEBVFrame@video@2@@ZPEAV012@AEBU?$_Ph@$00@std@@@?$_Compressed_pair@P8Pipeline@devices@libeYs3D@@EAA_NPEBVFrame@video@3@@ZV?$tuple@PEAVPipeline@devices@libeYs3D@@U?$_Ph@$00@std@@@std@@$0A@@std@@QEAA@U_One_then_variadic_args_t@1@$$QEAP8Pipeline@devices@libeYs3D@@EAA_NPEBVFrame@video@5@@Z$$QEAPEAV345@AEBU?$_Ph@$00@1@@Z
	??$?0P8Pipeline@devices@libeYs3D@@EAA_NPEBVPCFrame@video@2@@ZPEAV012@AEBU?$_Ph@$00@std@@@?$_Compressed_pair@P8Pipeline@devices@libeYs3D@@EAA_NPEBVPCFrame@video@3@@ZV?$tuple@PEAVPipeline@devices@libeYs3D@@U?$_Ph@$00@std@@@std@@$0A@@std@@QEAA@U_One_then_variadic_args_t@1@$$QEAP8Pipeline@devices@libeYs3D@@EAA_NPEBVPCFrame@video@5@@Z$$QEAPEAV345@AEBU?$_Ph@$00@1@@Z
	??$?0P8SensorDataProducer@sensors@libeYs3D@@EAA_NPEBUSensorDataSet@12@@ZPEAV012@AEBU?$_Ph@$00@std@@@?$_Compressed_pair@P8SensorDataProducer@sensors@libeYs3D@@EAA_NPEBUSensorDataSet@23@@ZV?$tuple@PEAVSensorDataProducer@sensors@libeYs3D@@U?$_Ph@$00@std@@@std@@$0A@@std@@QEAA@U_One_then_variadic_args_t@1@$$QEAP8SensorDataProducer@sensors@libeYs3D@@EAA_NPEBUSensorDataSet@45@@Z$$QEAPEAV345@AEBU?$_Ph@$00@1@@Z
	??$?0PEAVDepthFrameProducer@video@libeYs3D@@@?$_Tuple_val@PEAVDepthFrameProducer@video@libeYs3D@@@std@@QEAA@$$QEAPEAVDepthFrameProducer@video@libeYs3D@@@Z
	??$?0PEAVDepthFrameProducer@video@libeYs3D@@AEBU?$_Ph@$00@std@@$0A@@?$tuple@PEAVDepthFrameProducer@video@libeYs3D@@U?$_Ph@$00@std@@@std@@QEAA@$$QEAPEAVDepthFrameProducer@video@libeYs3D@@AEBU?$_Ph@$00@1@@Z
	??$?0PEAVFrame@video@libeYs3D@@$$V$0A@@?$tuple@$$QEAPEAVFrame@video@libeYs3D@@@std@@QEAA@$$QEAPEAVFrame@video@libeYs3D@@@Z
	??$?0PEAVFrame@video@libeYs3D@@@?$_Tuple_val@$$QEAPEAVFrame@video@libeYs3D@@@std@@QEAA@$$QEAPEAVFrame@video@libeYs3D@@@Z
	??$?0PEAVFrameProducer@video@libeYs3D@@@?$_Tuple_val@PEAVFrameProducer@video@libeYs3D@@@std@@QEAA@$$QEAPEAVFrameProducer@video@libeYs3D@@@Z
	??$?0PEAVFrameProducer@video@libeYs3D@@@?$_Unique_ptr_base@VFrameProducer@video@libeYs3D@@U?$default_delete@VFrameProducer@video@libeYs3D@@@std@@@std@@QEAA@PEAVFrameProducer@video@libeYs3D@@@Z
	??$?0PEAVFrameProducer@video@libeYs3D@@AEBU?$_Ph@$00@std@@$0A@@?$tuple@PEAVFrameProducer@video@libeYs3D@@U?$_Ph@$00@std@@@std@@QEAA@$$QEAPEAVFrameProducer@video@libeYs3D@@AEBU?$_Ph@$00@1@@Z
	??$?0PEAVFrameProducer@video@libeYs3D@@U?$default_delete@VFrameProducer@video@libeYs3D@@@std@@@?$_Unique_ptr_base@VFrameProducer@video@libeYs3D@@U?$default_delete@VFrameProducer@video@libeYs3D@@@std@@@std@@QEAA@PEAVFrameProducer@video@libeYs3D@@$$QEAU?$default_delete@VFrameProducer@video@libeYs3D@@@1@@Z
	??$?0PEAVFrameSetPipeline@devices@libeYs3D@@@?$_Tuple_val@PEAVFrameSetPipeline@devices@libeYs3D@@@std@@QEAA@$$QEAPEAVFrameSetPipeline@devices@libeYs3D@@@Z
	??$?0PEAVFrameSetPipeline@devices@libeYs3D@@AEBU?$_Ph@$00@std@@$0A@@?$tuple@PEAVFrameSetPipeline@devices@libeYs3D@@U?$_Ph@$00@std@@@std@@QEAA@$$QEAPEAVFrameSetPipeline@devices@libeYs3D@@AEBU?$_Ph@$00@1@@Z
	??$?0PEAVModeConfigOptions@@@?$_Unique_ptr_base@VModeConfigOptions@@U?$default_delete@VModeConfigOptions@@@std@@@std@@QEAA@PEAVModeConfigOptions@@@Z
	??$?0PEAVPCFrameProducer@video@libeYs3D@@@?$_Tuple_val@PEAVPCFrameProducer@video@libeYs3D@@@std@@QEAA@$$QEAPEAVPCFrameProducer@video@libeYs3D@@@Z
	??$?0PEAVPCFrameProducer@video@libeYs3D@@AEBU?$_Ph@$00@std@@$0A@@?$tuple@PEAVPCFrameProducer@video@libeYs3D@@U?$_Ph@$00@std@@@std@@QEAA@$$QEAPEAVPCFrameProducer@video@libeYs3D@@AEBU?$_Ph@$00@1@@Z
	??$?0PEAVPCProducer@video@libeYs3D@@@?$_Unique_ptr_base@VPCProducer@video@libeYs3D@@U?$default_delete@VPCProducer@video@libeYs3D@@@std@@@std@@QEAA@PEAVPCProducer@video@libeYs3D@@@Z
	??$?0PEAVPCProducer@video@libeYs3D@@U?$default_delete@VPCProducer@video@libeYs3D@@@std@@@?$_Unique_ptr_base@VPCProducer@video@libeYs3D@@U?$default_delete@VPCProducer@video@libeYs3D@@@std@@@std@@QEAA@PEAVPCProducer@video@libeYs3D@@$$QEAU?$default_delete@VPCProducer@video@libeYs3D@@@1@@Z
	??$?0PEAVPipeline@devices@libeYs3D@@@?$_Tuple_val@PEAVPipeline@devices@libeYs3D@@@std@@QEAA@$$QEAPEAVPipeline@devices@libeYs3D@@@Z
	??$?0PEAVPipeline@devices@libeYs3D@@AEBU?$_Ph@$00@std@@$0A@@?$tuple@PEAVPipeline@devices@libeYs3D@@U?$_Ph@$00@std@@@std@@QEAA@$$QEAPEAVPipeline@devices@libeYs3D@@AEBU?$_Ph@$00@1@@Z
	??$?0PEAVSensorDataProducer@sensors@libeYs3D@@@?$_Tuple_val@PEAVSensorDataProducer@sensors@libeYs3D@@@std@@QEAA@$$QEAPEAVSensorDataProducer@sensors@libeYs3D@@@Z
	??$?0PEAVSensorDataProducer@sensors@libeYs3D@@AEBU?$_Ph@$00@std@@$0A@@?$tuple@PEAVSensorDataProducer@sensors@libeYs3D@@U?$_Ph@$00@std@@@std@@QEAA@$$QEAPEAVSensorDataProducer@sensors@libeYs3D@@AEBU?$_Ph@$00@1@@Z
	??$?0PEAV_Facet_base@std@@@?$_Unique_ptr_base@V_Facet_base@std@@U?$default_delete@V_Facet_base@std@@@2@@std@@QEAA@PEAV_Facet_base@1@@Z
	??$?0PEBUSensorData@sensors@libeYs3D@@$$V$0A@@?$tuple@$$QEAPEBUSensorData@sensors@libeYs3D@@@std@@QEAA@$$QEAPEBUSensorData@sensors@libeYs3D@@@Z
	??$?0PEBUSensorData@sensors@libeYs3D@@@?$_Tuple_val@$$QEAPEBUSensorData@sensors@libeYs3D@@@std@@QEAA@$$QEAPEBUSensorData@sensors@libeYs3D@@@Z
	??$?0PEBUSensorDataSet@sensors@libeYs3D@@$$V$0A@@?$tuple@$$QEAPEBUSensorDataSet@sensors@libeYs3D@@@std@@QEAA@$$QEAPEBUSensorDataSet@sensors@libeYs3D@@@Z
	??$?0PEBUSensorDataSet@sensors@libeYs3D@@@?$_Tuple_val@$$QEAPEBUSensorDataSet@sensors@libeYs3D@@@std@@QEAA@$$QEAPEBUSensorDataSet@sensors@libeYs3D@@@Z
	??$?0PEBVFrame@video@libeYs3D@@$$V$0A@@?$tuple@$$QEAPEBVFrame@video@libeYs3D@@@std@@QEAA@$$QEAPEBVFrame@video@libeYs3D@@@Z
	??$?0PEBVFrame@video@libeYs3D@@@?$_Tuple_val@$$QEAPEBVFrame@video@libeYs3D@@@std@@QEAA@$$QEAPEBVFrame@video@libeYs3D@@@Z
	??$?0PEBVPCFrame@video@libeYs3D@@$$V$0A@@?$tuple@$$QEAPEBVPCFrame@video@libeYs3D@@@std@@QEAA@$$QEAPEBVPCFrame@video@libeYs3D@@@Z
	??$?0PEBVPCFrame@video@libeYs3D@@@?$_Tuple_val@$$QEAPEBVPCFrame@video@libeYs3D@@@std@@QEAA@$$QEAPEBVPCFrame@video@libeYs3D@@@Z
	??$?0U?$_List_node@V?$vector@FV?$allocator@F@std@@@std@@PEAX@std@@@?$allocator@U_Container_proxy@std@@@std@@QEAA@AEBV?$allocator@U?$_List_node@V?$vector@FV?$allocator@F@std@@@std@@PEAX@std@@@1@@Z
	??$?0U?$_Tree_node@U?$pair@$$CBHH@std@@PEAX@std@@@?$allocator@U_Container_proxy@std@@@std@@QEAA@AEBV?$allocator@U?$_Tree_node@U?$pair@$$CBHH@std@@PEAX@std@@@1@@Z
	??$?0U?$_Tree_node@U?$pair@$$CBHUPID_TABLE@ModeConfig@@@std@@PEAX@std@@@?$allocator@U_Container_proxy@std@@@std@@QEAA@AEBV?$allocator@U?$_Tree_node@U?$pair@$$CBHUPID_TABLE@ModeConfig@@@std@@PEAX@std@@@1@@Z
	??$?0U?$_Tree_node@U?$pair@$$CBU?$pair@GG@std@@V?$vector@V?$basic_string@DU?$char_traits@D@std@@V?$allocator@D@2@@std@@V?$allocator@V?$basic_string@DU?$char_traits@D@std@@V?$allocator@D@2@@std@@@2@@2@@std@@PEAX@std@@@?$allocator@U_Container_proxy@std@@@std@@QEAA@AEBV?$allocator@U?$_Tree_node@U?$pair@$$CBU?$pair@GG@std@@V?$vector@V?$basic_string@DU?$char_traits@D@std@@V?$allocator@D@2@@std@@V?$allocator@V?$basic_string@DU?$char_traits@D@std@@V?$allocator@D@2@@std@@@2@@2@@std@@PEAX@std@@@1@@Z
	??$?0U?$_Tree_node@U?$pair@$$CBUDeviceSellectInfo@libeYs3D@@V?$shared_ptr@VCameraDevice@devices@libeYs3D@@@std@@@std@@PEAX@std@@@?$allocator@U_Container_proxy@std@@@std@@QEAA@AEBV?$allocator@U?$_Tree_node@U?$pair@$$CBUDeviceSellectInfo@libeYs3D@@V?$shared_ptr@VCameraDevice@devices@libeYs3D@@@std@@@std@@PEAX@std@@@1@@Z
	??$?0U?$_Tree_node@U?$pair@$$CBW4IMUPacketSymbol@IMUData@@_K@std@@PEAX@std@@@?$allocator@U_Container_proxy@std@@@std@@QEAA@AEBV?$allocator@U?$_Tree_node@U?$pair@$$CBW4IMUPacketSymbol@IMUData@@_K@std@@PEAX@std@@@1@@Z
	??$?0U?$default_delete@VFrameProducer@video@libeYs3D@@@std@@$0A@@?$unique_ptr@VFrameProducer@video@libeYs3D@@U?$default_delete@VFrameProducer@video@libeYs3D@@@std@@@std@@QEAA@$$T@Z
	??$?0U?$default_delete@VFrameProducer@video@libeYs3D@@@std@@$0A@@?$unique_ptr@VFrameProducer@video@libeYs3D@@U?$default_delete@VFrameProducer@video@libeYs3D@@@std@@@std@@QEAA@PEAVFrameProducer@video@libeYs3D@@@Z
	??$?0U?$default_delete@VFrameProducer@video@libeYs3D@@@std@@AEAPEAVFrameProducer@video@libeYs3D@@@?$_Compressed_pair@U?$default_delete@VFrameProducer@video@libeYs3D@@@std@@PEAVFrameProducer@video@libeYs3D@@$00@std@@QEAA@U_One_then_variadic_args_t@1@$$QEAU?$default_delete@VFrameProducer@video@libeYs3D@@@1@AEAPEAVFrameProducer@video@libeYs3D@@@Z
	??$?0U?$default_delete@VModeConfigOptions@@@std@@$0A@@?$unique_ptr@VModeConfigOptions@@U?$default_delete@VModeConfigOptions@@@std@@@std@@QEAA@PEAVModeConfigOptions@@@Z
	??$?0U?$default_delete@VPCProducer@video@libeYs3D@@@std@@$0A@@?$unique_ptr@VPCProducer@video@libeYs3D@@U?$default_delete@VPCProducer@video@libeYs3D@@@std@@@std@@QEAA@$$T@Z
	??$?0U?$default_delete@VPCProducer@video@libeYs3D@@@std@@$0A@@?$unique_ptr@VPCProducer@video@libeYs3D@@U?$default_delete@VPCProducer@video@libeYs3D@@@std@@@std@@QEAA@PEAVPCProducer@video@libeYs3D@@@Z
	??$?0U?$default_delete@VPCProducer@video@libeYs3D@@@std@@AEAPEAVPCProducer@video@libeYs3D@@@?$_Compressed_pair@U?$default_delete@VPCProducer@video@libeYs3D@@@std@@PEAVPCProducer@video@libeYs3D@@$00@std@@QEAA@U_One_then_variadic_args_t@1@$$QEAU?$default_delete@VPCProducer@video@libeYs3D@@@1@AEAPEAVPCProducer@video@libeYs3D@@@Z
	??$?0U?$default_delete@V_Facet_base@std@@@std@@$0A@@?$unique_ptr@V_Facet_base@std@@U?$default_delete@V_Facet_base@std@@@2@@std@@QEAA@PEAV_Facet_base@1@@Z
	??$?0U?$integral_constant@_N$00@std@@@_Unused_parameter@std@@QEAA@$$QEAU?$integral_constant@_N$00@1@@Z
	??$?0UCloudPoint@@@?$allocator@U_Container_proxy@std@@@std@@QEAA@AEBV?$allocator@UCloudPoint@@@1@@Z
	??$?0UCommand@?$WorkerThread@V?$Optional@VCallbackWorkItem@sensors@libeYs3D@@@base@libeYs3D@@@base@libeYs3D@@@?$allocator@U_Container_proxy@std@@@std@@QEAA@AEBV?$allocator@UCommand@?$WorkerThread@V?$Optional@VCallbackWorkItem@sensors@libeYs3D@@@base@libeYs3D@@@base@libeYs3D@@@1@@Z
	??$?0UCommand@?$WorkerThread@V?$Optional@VCallbackWorkItem@video@libeYs3D@@@base@libeYs3D@@@base@libeYs3D@@@?$allocator@U_Container_proxy@std@@@std@@QEAA@AEBV?$allocator@UCommand@?$WorkerThread@V?$Optional@VCallbackWorkItem@video@libeYs3D@@@base@libeYs3D@@@base@libeYs3D@@@1@@Z
	??$?0UCommand@?$WorkerThread@V?$Optional@VDACalculateWorkItem@video@libeYs3D@@@base@libeYs3D@@@base@libeYs3D@@@?$allocator@U_Container_proxy@std@@@std@@QEAA@AEBV?$allocator@UCommand@?$WorkerThread@V?$Optional@VDACalculateWorkItem@video@libeYs3D@@@base@libeYs3D@@@base@libeYs3D@@@1@@Z
	??$?0UMODE_CONFIG@ModeConfig@@@?$allocator@U_Container_proxy@std@@@std@@QEAA@AEBV?$allocator@UMODE_CONFIG@ModeConfig@@@1@@Z
	??$?0USensorData@sensors@libeYs3D@@@?$allocator@U_Container_proxy@std@@@std@@QEAA@AEBV?$allocator@USensorData@sensors@libeYs3D@@@1@@Z
	??$?0U_Exact_args_t@std@@$0A@@?$tuple@$$V@std@@QEAA@U_Exact_args_t@1@@Z
	??$?0U_Exact_args_t@std@@AEBH$$V$0A@@?$tuple@AEBH@std@@QEAA@U_Exact_args_t@1@AEBH@Z
	??$?0U_Exact_args_t@std@@AEBU?$_Ph@$00@1@$$V$0A@@?$tuple@U?$_Ph@$00@std@@@std@@QEAA@U_Exact_args_t@1@AEBU?$_Ph@$00@1@@Z
	??$?0U_Exact_args_t@std@@AEBU?$pair@GG@1@$$V$0A@@?$tuple@AEBU?$pair@GG@std@@@std@@QEAA@U_Exact_args_t@1@AEBU?$pair@GG@1@@Z
	??$?0U_Exact_args_t@std@@AEBUDeviceSellectInfo@libeYs3D@@$$V$0A@@?$tuple@AEBUDeviceSellectInfo@libeYs3D@@@std@@QEAA@U_Exact_args_t@1@AEBUDeviceSellectInfo@libeYs3D@@@Z
	??$?0U_Exact_args_t@std@@PEAVDepthFrameProducer@video@libeYs3D@@AEBU?$_Ph@$00@1@$0A@@?$tuple@PEAVDepthFrameProducer@video@libeYs3D@@U?$_Ph@$00@std@@@std@@QEAA@U_Exact_args_t@1@$$QEAPEAVDepthFrameProducer@video@libeYs3D@@AEBU?$_Ph@$00@1@@Z
	??$?0U_Exact_args_t@std@@PEAVFrame@video@libeYs3D@@$$V$0A@@?$tuple@$$QEAPEAVFrame@video@libeYs3D@@@std@@QEAA@U_Exact_args_t@1@$$QEAPEAVFrame@video@libeYs3D@@@Z
	??$?0U_Exact_args_t@std@@PEAVFrameProducer@video@libeYs3D@@AEBU?$_Ph@$00@1@$0A@@?$tuple@PEAVFrameProducer@video@libeYs3D@@U?$_Ph@$00@std@@@std@@QEAA@U_Exact_args_t@1@$$QEAPEAVFrameProducer@video@libeYs3D@@AEBU?$_Ph@$00@1@@Z
	??$?0U_Exact_args_t@std@@PEAVFrameSetPipeline@devices@libeYs3D@@AEBU?$_Ph@$00@1@$0A@@?$tuple@PEAVFrameSetPipeline@devices@libeYs3D@@U?$_Ph@$00@std@@@std@@QEAA@U_Exact_args_t@1@$$QEAPEAVFrameSetPipeline@devices@libeYs3D@@AEBU?$_Ph@$00@1@@Z
	??$?0U_Exact_args_t@std@@PEAVPCFrameProducer@video@libeYs3D@@AEBU?$_Ph@$00@1@$0A@@?$tuple@PEAVPCFrameProducer@video@libeYs3D@@U?$_Ph@$00@std@@@std@@QEAA@U_Exact_args_t@1@$$QEAPEAVPCFrameProducer@video@libeYs3D@@AEBU?$_Ph@$00@1@@Z
	??$?0U_Exact_args_t@std@@PEAVPipeline@devices@libeYs3D@@AEBU?$_Ph@$00@1@$0A@@?$tuple@PEAVPipeline@devices@libeYs3D@@U?$_Ph@$00@std@@@std@@QEAA@U_Exact_args_t@1@$$QEAPEAVPipeline@devices@libeYs3D@@AEBU?$_Ph@$00@1@@Z
	??$?0U_Exact_args_t@std@@PEAVSensorDataProducer@sensors@libeYs3D@@AEBU?$_Ph@$00@1@$0A@@?$tuple@PEAVSensorDataProducer@sensors@libeYs3D@@U?$_Ph@$00@std@@@std@@QEAA@U_Exact_args_t@1@$$QEAPEAVSensorDataProducer@sensors@libeYs3D@@AEBU?$_Ph@$00@1@@Z
	??$?0U_Exact_args_t@std@@PEBUSensorData@sensors@libeYs3D@@$$V$0A@@?$tuple@$$QEAPEBUSensorData@sensors@libeYs3D@@@std@@QEAA@U_Exact_args_t@1@$$QEAPEBUSensorData@sensors@libeYs3D@@@Z
	??$?0U_Exact_args_t@std@@PEBUSensorDataSet@sensors@libeYs3D@@$$V$0A@@?$tuple@$$QEAPEBUSensorDataSet@sensors@libeYs3D@@@std@@QEAA@U_Exact_args_t@1@$$QEAPEBUSensorDataSet@sensors@libeYs3D@@@Z
	??$?0U_Exact_args_t@std@@PEBVFrame@video@libeYs3D@@$$V$0A@@?$tuple@$$QEAPEBVFrame@video@libeYs3D@@@std@@QEAA@U_Exact_args_t@1@$$QEAPEBVFrame@video@libeYs3D@@@Z
	??$?0U_Exact_args_t@std@@PEBVPCFrame@video@libeYs3D@@$$V$0A@@?$tuple@$$QEAPEBVPCFrame@video@libeYs3D@@@std@@QEAA@U_Exact_args_t@1@$$QEAPEBVPCFrame@video@libeYs3D@@@Z
	??$?0U_Exact_args_t@std@@W4IMUPacketSymbol@IMUData@@$$V$0A@@?$tuple@$$QEAW4IMUPacketSymbol@IMUData@@@std@@QEAA@U_Exact_args_t@1@$$QEAW4IMUPacketSymbol@IMUData@@@Z
	??$?0UtagAPC_STREAM_INFO@@@?$allocator@U_Container_proxy@std@@@std@@QEAA@AEBV?$allocator@UtagAPC_STREAM_INFO@@@1@@Z
	??$?0V<lambda_488c629a0a7c1ecc954ac8047e960599>@@X@?$_Func_impl_no_alloc@V<lambda_488c629a0a7c1ecc954ac8047e960599>@@_J$$V@std@@QEAA@$$QEAV<lambda_488c629a0a7c1ecc954ac8047e960599>@@@Z
	??$?0V<lambda_488c629a0a7c1ecc954ac8047e960599>@@X@?$function@$$A6A_JXZ@std@@QEAA@V<lambda_488c629a0a7c1ecc954ac8047e960599>@@@Z
	??$?0V<lambda_4cde73e63763cb313bd212247f8ddbb0>@@X@?$_Func_impl_no_alloc@V<lambda_4cde73e63763cb313bd212247f8ddbb0>@@W4WorkerProcessingResult@base@libeYs3D@@$$QEAV?$Optional@VDACalculateWorkItem@video@libeYs3D@@@34@@std@@QEAA@$$QEAV<lambda_4cde73e63763cb313bd212247f8ddbb0>@@@Z
	??$?0V<lambda_4cde73e63763cb313bd212247f8ddbb0>@@X@?$function@$$A6A?AW4WorkerProcessingResult@base@libeYs3D@@$$QEAV?$Optional@VDACalculateWorkItem@video@libeYs3D@@@23@@Z@std@@QEAA@V<lambda_4cde73e63763cb313bd212247f8ddbb0>@@@Z
	??$?0V<lambda_530843cc44829e3530ea01af34e42038>@@X@?$_Func_impl_no_alloc@V<lambda_530843cc44829e3530ea01af34e42038>@@W4WorkerProcessingResult@base@libeYs3D@@$$QEAV?$Optional@VCallbackWorkItem@sensors@libeYs3D@@@34@@std@@QEAA@$$QEAV<lambda_530843cc44829e3530ea01af34e42038>@@@Z
	??$?0V<lambda_530843cc44829e3530ea01af34e42038>@@X@?$function@$$A6A?AW4WorkerProcessingResult@base@libeYs3D@@$$QEAV?$Optional@VCallbackWorkItem@sensors@libeYs3D@@@23@@Z@std@@QEAA@V<lambda_530843cc44829e3530ea01af34e42038>@@@Z
	??$?0V<lambda_644b0c6f6f426dfd6f91480300661176>@@PEAX@FunctorThread@base@libeYs3D@@QEAA@$$QEAV<lambda_644b0c6f6f426dfd6f91480300661176>@@W4ThreadFlags@12@@Z
	??$?0V<lambda_69d578ede27bd906c7e1bc689c004001>@@X@?$_Func_impl_no_alloc@V<lambda_69d578ede27bd906c7e1bc689c004001>@@_J$$V@std@@QEAA@$$QEAV<lambda_69d578ede27bd906c7e1bc689c004001>@@@Z
	??$?0V<lambda_69d578ede27bd906c7e1bc689c004001>@@X@?$function@$$A6A_JXZ@std@@QEAA@V<lambda_69d578ede27bd906c7e1bc689c004001>@@@Z
	??$?0V<lambda_9f92d7825455e143dbf3293131d714f3>@@X@?$_Func_impl_no_alloc@V<lambda_9f92d7825455e143dbf3293131d714f3>@@W4WorkerProcessingResult@base@libeYs3D@@$$QEAV?$Optional@VCallbackWorkItem@video@libeYs3D@@@34@@std@@QEAA@$$QEAV<lambda_9f92d7825455e143dbf3293131d714f3>@@@Z
	??$?0V<lambda_9f92d7825455e143dbf3293131d714f3>@@X@?$function@$$A6A?AW4WorkerProcessingResult@base@libeYs3D@@$$QEAV?$Optional@VCallbackWorkItem@video@libeYs3D@@@23@@Z@std@@QEAA@V<lambda_9f92d7825455e143dbf3293131d714f3>@@@Z
	??$?0V<lambda_c26ef134520f1d4904a3b959b66e0c10>@@PEAX@FunctorThread@base@libeYs3D@@QEAA@$$QEAV<lambda_c26ef134520f1d4904a3b959b66e0c10>@@W4ThreadFlags@12@@Z
	??$?0V<lambda_dbbb479bfc9ffc0a9f130fbf77aabe71>@@PEAX@FunctorThread@base@libeYs3D@@QEAA@$$QEAV<lambda_dbbb479bfc9ffc0a9f130fbf77aabe71>@@W4ThreadFlags@12@@Z
	??$?0V<lambda_fd68a9891d2d9d887c20652be0ece82a>@@X@?$_Func_impl_no_alloc@V<lambda_fd68a9891d2d9d887c20652be0ece82a>@@_J$$V@std@@QEAA@$$QEAV<lambda_fd68a9891d2d9d887c20652be0ece82a>@@@Z
	??$?0V<lambda_fd68a9891d2d9d887c20652be0ece82a>@@X@?$function@$$A6A_JXZ@std@@QEAA@V<lambda_fd68a9891d2d9d887c20652be0ece82a>@@@Z
	??$?0V?$Optional@V?$WorkerThread@V?$Optional@VCallbackWorkItem@sensors@libeYs3D@@@base@libeYs3D@@@base@libeYs3D@@@base@libeYs3D@@@?$allocator@U_Container_proxy@std@@@std@@QEAA@AEBV?$allocator@V?$Optional@V?$WorkerThread@V?$Optional@VCallbackWorkItem@sensors@libeYs3D@@@base@libeYs3D@@@base@libeYs3D@@@base@libeYs3D@@@1@@Z
	??$?0V?$Optional@V?$WorkerThread@V?$Optional@VCallbackWorkItem@video@libeYs3D@@@base@libeYs3D@@@base@libeYs3D@@@base@libeYs3D@@@?$allocator@U_Container_proxy@std@@@std@@QEAA@AEBV?$allocator@V?$Optional@V?$WorkerThread@V?$Optional@VCallbackWorkItem@video@libeYs3D@@@base@libeYs3D@@@base@libeYs3D@@@base@libeYs3D@@@1@@Z
	??$?0V?$Optional@V?$WorkerThread@V?$Optional@VDACalculateWorkItem@video@libeYs3D@@@base@libeYs3D@@@base@libeYs3D@@@base@libeYs3D@@@?$allocator@U_Container_proxy@std@@@std@@QEAA@AEBV?$allocator@V?$Optional@V?$WorkerThread@V?$Optional@VDACalculateWorkItem@video@libeYs3D@@@base@libeYs3D@@@base@libeYs3D@@@base@libeYs3D@@@1@@Z
	??$?0V?$_Binder@U_Unforced@std@@P8DepthFrameProducer@video@libeYs3D@@EAAXPEAVFrame@45@@ZPEAV345@AEBU?$_Ph@$00@2@@std@@X@?$_Func_impl_no_alloc@V?$_Binder@U_Unforced@std@@P8DepthFrameProducer@video@libeYs3D@@EAAXPEAVFrame@45@@ZPEAV345@AEBU?$_Ph@$00@2@@std@@XPEAVFrame@video@libeYs3D@@@std@@QEAA@$$QEAV?$_Binder@U_Unforced@std@@P8DepthFrameProducer@video@libeYs3D@@EAAXPEAVFrame@45@@ZPEAV345@AEBU?$_Ph@$00@2@@1@@Z
	??$?0V?$_Binder@U_Unforced@std@@P8DepthFrameProducer@video@libeYs3D@@EAAXPEAVFrame@45@@ZPEAV345@AEBU?$_Ph@$00@2@@std@@X@?$function@$$A6AXPEAVFrame@video@libeYs3D@@@Z@std@@QEAA@V?$_Binder@U_Unforced@std@@P8DepthFrameProducer@video@libeYs3D@@EAAXPEAVFrame@45@@ZPEAV345@AEBU?$_Ph@$00@2@@1@@Z
	??$?0V?$_Binder@U_Unforced@std@@P8FrameProducer@video@libeYs3D@@EAA_NPEBUSensorDataSet@sensors@5@@ZPEAV345@AEBU?$_Ph@$00@2@@std@@X@?$_Func_impl_no_alloc@V?$_Binder@U_Unforced@std@@P8FrameProducer@video@libeYs3D@@EAA_NPEBUSensorDataSet@sensors@5@@ZPEAV345@AEBU?$_Ph@$00@2@@std@@_NPEBUSensorDataSet@sensors@libeYs3D@@@std@@QEAA@$$QEAV?$_Binder@U_Unforced@std@@P8FrameProducer@video@libeYs3D@@EAA_NPEBUSensorDataSet@sensors@5@@ZPEAV345@AEBU?$_Ph@$00@2@@1@@Z
	??$?0V?$_Binder@U_Unforced@std@@P8FrameProducer@video@libeYs3D@@EAA_NPEBUSensorDataSet@sensors@5@@ZPEAV345@AEBU?$_Ph@$00@2@@std@@X@?$function@$$A6A_NPEBUSensorDataSet@sensors@libeYs3D@@@Z@std@@QEAA@V?$_Binder@U_Unforced@std@@P8FrameProducer@video@libeYs3D@@EAA_NPEBUSensorDataSet@sensors@5@@ZPEAV345@AEBU?$_Ph@$00@2@@1@@Z
	??$?0V?$_Binder@U_Unforced@std@@P8FrameProducer@video@libeYs3D@@EAA_NPEBVFrame@45@@ZPEAV345@AEBU?$_Ph@$00@2@@std@@X@?$_Func_impl_no_alloc@V?$_Binder@U_Unforced@std@@P8FrameProducer@video@libeYs3D@@EAA_NPEBVFrame@45@@ZPEAV345@AEBU?$_Ph@$00@2@@std@@_NPEBVFrame@video@libeYs3D@@@std@@QEAA@$$QEAV?$_Binder@U_Unforced@std@@P8FrameProducer@video@libeYs3D@@EAA_NPEBVFrame@45@@ZPEAV345@AEBU?$_Ph@$00@2@@1@@Z
	??$?0V?$_Binder@U_Unforced@std@@P8FrameProducer@video@libeYs3D@@EAA_NPEBVFrame@45@@ZPEAV345@AEBU?$_Ph@$00@2@@std@@X@?$function@$$A6A_NPEBVFrame@video@libeYs3D@@@Z@std@@QEAA@V?$_Binder@U_Unforced@std@@P8FrameProducer@video@libeYs3D@@EAA_NPEBVFrame@45@@ZPEAV345@AEBU?$_Ph@$00@2@@1@@Z
	??$?0V?$_Binder@U_Unforced@std@@P8FrameSetPipeline@devices@libeYs3D@@EAA_NPEBVFrame@video@5@@ZPEAV345@AEBU?$_Ph@$00@2@@std@@X@?$_Func_impl_no_alloc@V?$_Binder@U_Unforced@std@@P8FrameSetPipeline@devices@libeYs3D@@EAA_NPEBVFrame@video@5@@ZPEAV345@AEBU?$_Ph@$00@2@@std@@_NPEBVFrame@video@libeYs3D@@@std@@QEAA@$$QEAV?$_Binder@U_Unforced@std@@P8FrameSetPipeline@devices@libeYs3D@@EAA_NPEBVFrame@video@5@@ZPEAV345@AEBU?$_Ph@$00@2@@1@@Z
	??$?0V?$_Binder@U_Unforced@std@@P8FrameSetPipeline@devices@libeYs3D@@EAA_NPEBVFrame@video@5@@ZPEAV345@AEBU?$_Ph@$00@2@@std@@X@?$function@$$A6A_NPEBVFrame@video@libeYs3D@@@Z@std@@QEAA@V?$_Binder@U_Unforced@std@@P8FrameSetPipeline@devices@libeYs3D@@EAA_NPEBVFrame@video@5@@ZPEAV345@AEBU?$_Ph@$00@2@@1@@Z
	??$?0V?$_Binder@U_Unforced@std@@P8FrameSetPipeline@devices@libeYs3D@@EAA_NPEBVPCFrame@video@5@@ZPEAV345@AEBU?$_Ph@$00@2@@std@@X@?$_Func_impl_no_alloc@V?$_Binder@U_Unforced@std@@P8FrameSetPipeline@devices@libeYs3D@@EAA_NPEBVPCFrame@video@5@@ZPEAV345@AEBU?$_Ph@$00@2@@std@@_NPEBVPCFrame@video@libeYs3D@@@std@@QEAA@$$QEAV?$_Binder@U_Unforced@std@@P8FrameSetPipeline@devices@libeYs3D@@EAA_NPEBVPCFrame@video@5@@ZPEAV345@AEBU?$_Ph@$00@2@@1@@Z
	??$?0V?$_Binder@U_Unforced@std@@P8FrameSetPipeline@devices@libeYs3D@@EAA_NPEBVPCFrame@video@5@@ZPEAV345@AEBU?$_Ph@$00@2@@std@@X@?$function@$$A6A_NPEBVPCFrame@video@libeYs3D@@@Z@std@@QEAA@V?$_Binder@U_Unforced@std@@P8FrameSetPipeline@devices@libeYs3D@@EAA_NPEBVPCFrame@video@5@@ZPEAV345@AEBU?$_Ph@$00@2@@1@@Z
	??$?0V?$_Binder@U_Unforced@std@@P8PCFrameProducer@video@libeYs3D@@EAA_NPEBVFrame@45@@ZPEAV345@AEBU?$_Ph@$00@2@@std@@X@?$_Func_impl_no_alloc@V?$_Binder@U_Unforced@std@@P8PCFrameProducer@video@libeYs3D@@EAA_NPEBVFrame@45@@ZPEAV345@AEBU?$_Ph@$00@2@@std@@_NPEBVFrame@video@libeYs3D@@@std@@QEAA@$$QEAV?$_Binder@U_Unforced@std@@P8PCFrameProducer@video@libeYs3D@@EAA_NPEBVFrame@45@@ZPEAV345@AEBU?$_Ph@$00@2@@1@@Z
	??$?0V?$_Binder@U_Unforced@std@@P8PCFrameProducer@video@libeYs3D@@EAA_NPEBVFrame@45@@ZPEAV345@AEBU?$_Ph@$00@2@@std@@X@?$function@$$A6A_NPEBVFrame@video@libeYs3D@@@Z@std@@QEAA@V?$_Binder@U_Unforced@std@@P8PCFrameProducer@video@libeYs3D@@EAA_NPEBVFrame@45@@ZPEAV345@AEBU?$_Ph@$00@2@@1@@Z
	??$?0V?$_Binder@U_Unforced@std@@P8Pipeline@devices@libeYs3D@@EAA_NPEBUSensorData@sensors@5@@ZPEAV345@AEBU?$_Ph@$00@2@@std@@X@?$_Func_impl_no_alloc@V?$_Binder@U_Unforced@std@@P8Pipeline@devices@libeYs3D@@EAA_NPEBUSensorData@sensors@5@@ZPEAV345@AEBU?$_Ph@$00@2@@std@@_NPEBUSensorData@sensors@libeYs3D@@@std@@QEAA@$$QEAV?$_Binder@U_Unforced@std@@P8Pipeline@devices@libeYs3D@@EAA_NPEBUSensorData@sensors@5@@ZPEAV345@AEBU?$_Ph@$00@2@@1@@Z
	??$?0V?$_Binder@U_Unforced@std@@P8Pipeline@devices@libeYs3D@@EAA_NPEBUSensorData@sensors@5@@ZPEAV345@AEBU?$_Ph@$00@2@@std@@X@?$function@$$A6A_NPEBUSensorData@sensors@libeYs3D@@@Z@std@@QEAA@V?$_Binder@U_Unforced@std@@P8Pipeline@devices@libeYs3D@@EAA_NPEBUSensorData@sensors@5@@ZPEAV345@AEBU?$_Ph@$00@2@@1@@Z
	??$?0V?$_Binder@U_Unforced@std@@P8Pipeline@devices@libeYs3D@@EAA_NPEBVFrame@video@5@@ZPEAV345@AEBU?$_Ph@$00@2@@std@@X@?$_Func_impl_no_alloc@V?$_Binder@U_Unforced@std@@P8Pipeline@devices@libeYs3D@@EAA_NPEBVFrame@video@5@@ZPEAV345@AEBU?$_Ph@$00@2@@std@@_NPEBVFrame@video@libeYs3D@@@std@@QEAA@$$QEAV?$_Binder@U_Unforced@std@@P8Pipeline@devices@libeYs3D@@EAA_NPEBVFrame@video@5@@ZPEAV345@AEBU?$_Ph@$00@2@@1@@Z
	??$?0V?$_Binder@U_Unforced@std@@P8Pipeline@devices@libeYs3D@@EAA_NPEBVFrame@video@5@@ZPEAV345@AEBU?$_Ph@$00@2@@std@@X@?$function@$$A6A_NPEBVFrame@video@libeYs3D@@@Z@std@@QEAA@V?$_Binder@U_Unforced@std@@P8Pipeline@devices@libeYs3D@@EAA_NPEBVFrame@video@5@@ZPEAV345@AEBU?$_Ph@$00@2@@1@@Z
	??$?0V?$_Binder@U_Unforced@std@@P8Pipeline@devices@libeYs3D@@EAA_NPEBVPCFrame@video@5@@ZPEAV345@AEBU?$_Ph@$00@2@@std@@X@?$_Func_impl_no_alloc@V?$_Binder@U_Unforced@std@@P8Pipeline@devices@libeYs3D@@EAA_NPEBVPCFrame@video@5@@ZPEAV345@AEBU?$_Ph@$00@2@@std@@_NPEBVPCFrame@video@libeYs3D@@@std@@QEAA@$$QEAV?$_Binder@U_Unforced@std@@P8Pipeline@devices@libeYs3D@@EAA_NPEBVPCFrame@video@5@@ZPEAV345@AEBU?$_Ph@$00@2@@1@@Z
	??$?0V?$_Binder@U_Unforced@std@@P8Pipeline@devices@libeYs3D@@EAA_NPEBVPCFrame@video@5@@ZPEAV345@AEBU?$_Ph@$00@2@@std@@X@?$function@$$A6A_NPEBVPCFrame@video@libeYs3D@@@Z@std@@QEAA@V?$_Binder@U_Unforced@std@@P8Pipeline@devices@libeYs3D@@EAA_NPEBVPCFrame@video@5@@ZPEAV345@AEBU?$_Ph@$00@2@@1@@Z
	??$?0V?$_Binder@U_Unforced@std@@P8SensorDataProducer@sensors@libeYs3D@@EAA_NPEBUSensorDataSet@45@@ZPEAV345@AEBU?$_Ph@$00@2@@std@@X@?$_Func_impl_no_alloc@V?$_Binder@U_Unforced@std@@P8SensorDataProducer@sensors@libeYs3D@@EAA_NPEBUSensorDataSet@45@@ZPEAV345@AEBU?$_Ph@$00@2@@std@@_NPEBUSensorDataSet@sensors@libeYs3D@@@std@@QEAA@$$QEAV?$_Binder@U_Unforced@std@@P8SensorDataProducer@sensors@libeYs3D@@EAA_NPEBUSensorDataSet@45@@ZPEAV345@AEBU?$_Ph@$00@2@@1@@Z
	??$?0V?$_Binder@U_Unforced@std@@P8SensorDataProducer@sensors@libeYs3D@@EAA_NPEBUSensorDataSet@45@@ZPEAV345@AEBU?$_Ph@$00@2@@std@@X@?$function@$$A6A_NPEBUSensorDataSet@sensors@libeYs3D@@@Z@std@@QEAA@V?$_Binder@U_Unforced@std@@P8SensorDataProducer@sensors@libeYs3D@@EAA_NPEBUSensorDataSet@45@@ZPEAV345@AEBU?$_Ph@$00@2@@1@@Z
	??$?0V?$_Tree_iterator@V?$_Tree_val@U?$_Tree_simple_types@U?$pair@$$CBHH@std@@@std@@@std@@@std@@_N$0A@@?$pair@V?$_Tree_iterator@V?$_Tree_val@U?$_Tree_simple_types@U?$pair@$$CBHH@std@@@std@@@std@@@std@@_N@std@@QEAA@$$QEAV?$_Tree_iterator@V?$_Tree_val@U?$_Tree_simple_types@U?$pair@$$CBHH@std@@@std@@@std@@@1@$$QEA_N@Z
	??$?0V?$_Tree_iterator@V?$_Tree_val@U?$_Tree_simple_types@U?$pair@$$CBHUPID_TABLE@ModeConfig@@@std@@@std@@@std@@@std@@_N$0A@@?$pair@V?$_Tree_iterator@V?$_Tree_val@U?$_Tree_simple_types@U?$pair@$$CBHUPID_TABLE@ModeConfig@@@std@@@std@@@std@@@std@@_N@std@@QEAA@$$QEAV?$_Tree_iterator@V?$_Tree_val@U?$_Tree_simple_types@U?$pair@$$CBHUPID_TABLE@ModeConfig@@@std@@@std@@@std@@@1@$$QEA_N@Z
	??$?0V?$_Tree_iterator@V?$_Tree_val@U?$_Tree_simple_types@U?$pair@$$CBU?$pair@GG@std@@V?$vector@V?$basic_string@DU?$char_traits@D@std@@V?$allocator@D@2@@std@@V?$allocator@V?$basic_string@DU?$char_traits@D@std@@V?$allocator@D@2@@std@@@2@@2@@std@@@std@@@std@@@std@@_N$0A@@?$pair@V?$_Tree_iterator@V?$_Tree_val@U?$_Tree_simple_types@U?$pair@$$CBU?$pair@GG@std@@V?$vector@V?$basic_string@DU?$char_traits@D@std@@V?$allocator@D@2@@std@@V?$allocator@V?$basic_string@DU?$char_traits@D@std@@V?$allocator@D@2@@std@@@2@@2@@std@@@std@@@std@@@std@@_N@std@@QEAA@$$QEAV?$_Tree_iterator@V?$_Tree_val@U?$_Tree_simple_types@U?$pair@$$CBU?$pair@GG@std@@V?$vector@V?$basic_string@DU?$char_traits@D@std@@V?$allocator@D@2@@std@@V?$allocator@V?$basic_string@DU?$char_traits@D@std@@V?$allocator@D@2@@std@@@2@@2@@std@@@std@@@std@@@1@$$QEA_N@Z
	??$?0V?$_Tree_iterator@V?$_Tree_val@U?$_Tree_simple_types@U?$pair@$$CBUDeviceSellectInfo@libeYs3D@@V?$shared_ptr@VCameraDevice@devices@libeYs3D@@@std@@@std@@@std@@@std@@@std@@_N$0A@@?$pair@V?$_Tree_iterator@V?$_Tree_val@U?$_Tree_simple_types@U?$pair@$$CBUDeviceSellectInfo@libeYs3D@@V?$shared_ptr@VCameraDevice@devices@libeYs3D@@@std@@@std@@@std@@@std@@@std@@_N@std@@QEAA@$$QEAV?$_Tree_iterator@V?$_Tree_val@U?$_Tree_simple_types@U?$pair@$$CBUDeviceSellectInfo@libeYs3D@@V?$shared_ptr@VCameraDevice@devices@libeYs3D@@@std@@@std@@@std@@@std@@@1@$$QEA_N@Z
	??$?0V?$_Tree_iterator@V?$_Tree_val@U?$_Tree_simple_types@U?$pair@$$CBW4IMUPacketSymbol@IMUData@@_K@std@@@std@@@std@@@std@@_N$0A@@?$pair@V?$_Tree_iterator@V?$_Tree_val@U?$_Tree_simple_types@U?$pair@$$CBW4IMUPacketSymbol@IMUData@@_K@std@@@std@@@std@@@std@@_N@std@@QEAA@$$QEAV?$_Tree_iterator@V?$_Tree_val@U?$_Tree_simple_types@U?$pair@$$CBW4IMUPacketSymbol@IMUData@@_K@std@@@std@@@std@@@1@$$QEA_N@Z
	??$?0V?$allocator@D@std@@$$V@?$_Compressed_pair@V?$allocator@D@std@@V?$_String_val@U?$_Simple_types@D@std@@@2@$00@std@@QEAA@U_One_then_variadic_args_t@1@$$QEAV?$allocator@D@1@@Z
	??$?0V?$allocator@D@std@@X@?$_String_alloc@U?$_String_base_types@DV?$allocator@D@std@@@std@@@std@@QEAA@$$QEAV?$allocator@D@1@@Z
	??$?0V?$allocator@E@std@@$$V@?$_Compressed_pair@V?$allocator@E@std@@V?$_Vector_val@U?$_Simple_types@E@std@@@2@$00@std@@QEAA@U_One_then_variadic_args_t@1@$$QEAV?$allocator@E@1@@Z
	??$?0V?$allocator@E@std@@X@?$_Vector_alloc@U?$_Vec_base_types@EV?$allocator@E@std@@@std@@@std@@QEAA@$$QEAV?$allocator@E@1@@Z
	??$?0V?$allocator@G@std@@$$V@?$_Compressed_pair@V?$allocator@G@std@@V?$_Vector_val@U?$_Simple_types@G@std@@@2@$00@std@@QEAA@U_One_then_variadic_args_t@1@$$QEAV?$allocator@G@1@@Z
	??$?0V?$allocator@G@std@@X@?$_Vector_alloc@U?$_Vec_base_types@GV?$allocator@G@std@@@std@@@std@@QEAA@$$QEAV?$allocator@G@1@@Z
	??$?0V?$allocator@H@std@@$$V@?$_Compressed_pair@V?$allocator@H@std@@V?$_Vector_val@U?$_Simple_types@H@std@@@2@$00@std@@QEAA@U_One_then_variadic_args_t@1@$$QEAV?$allocator@H@1@@Z
	??$?0V?$allocator@H@std@@X@?$_Vector_alloc@U?$_Vec_base_types@HV?$allocator@H@std@@@std@@@std@@QEAA@$$QEAV?$allocator@H@1@@Z
	??$?0V?$allocator@M@std@@$$V@?$_Compressed_pair@V?$allocator@M@std@@V?$_Vector_val@U?$_Simple_types@M@std@@@2@$00@std@@QEAA@U_One_then_variadic_args_t@1@$$QEAV?$allocator@M@1@@Z
	??$?0V?$allocator@M@std@@X@?$_Vector_alloc@U?$_Vec_base_types@MV?$allocator@M@std@@@std@@@std@@QEAA@$$QEAV?$allocator@M@1@@Z
	??$?0V?$allocator@UMODE_CONFIG@ModeConfig@@@std@@$$V@?$_Compressed_pair@V?$allocator@UMODE_CONFIG@ModeConfig@@@std@@V?$_Vector_val@U?$_Simple_types@UMODE_CONFIG@ModeConfig@@@std@@@2@$00@std@@QEAA@U_One_then_variadic_args_t@1@$$QEAV?$allocator@UMODE_CONFIG@ModeConfig@@@1@@Z
	??$?0V?$allocator@UMODE_CONFIG@ModeConfig@@@std@@X@?$_Vector_alloc@U?$_Vec_base_types@UMODE_CONFIG@ModeConfig@@V?$allocator@UMODE_CONFIG@ModeConfig@@@std@@@std@@@std@@QEAA@$$QEAV?$allocator@UMODE_CONFIG@ModeConfig@@@1@@Z
	??$?0V?$allocator@USensorData@sensors@libeYs3D@@@std@@$$V@?$_Compressed_pair@V?$allocator@USensorData@sensors@libeYs3D@@@std@@V?$_Vector_val@U?$_Simple_types@USensorData@sensors@libeYs3D@@@std@@@2@$00@std@@QEAA@U_One_then_variadic_args_t@1@$$QEAV?$allocator@USensorData@sensors@libeYs3D@@@1@@Z
	??$?0V?$allocator@USensorData@sensors@libeYs3D@@@std@@X@?$_Vector_alloc@U?$_Vec_base_types@USensorData@sensors@libeYs3D@@V?$allocator@USensorData@sensors@libeYs3D@@@std@@@std@@@std@@QEAA@$$QEAV?$allocator@USensorData@sensors@libeYs3D@@@1@@Z
	??$?0V?$allocator@V?$basic_string@DU?$char_traits@D@std@@V?$allocator@D@2@@std@@@std@@$$V@?$_Compressed_pair@V?$allocator@V?$basic_string@DU?$char_traits@D@std@@V?$allocator@D@2@@std@@@std@@V?$_Vector_val@U?$_Simple_types@V?$basic_string@DU?$char_traits@D@std@@V?$allocator@D@2@@std@@@std@@@2@$00@std@@QEAA@U_One_then_variadic_args_t@1@$$QEAV?$allocator@V?$basic_string@DU?$char_traits@D@std@@V?$allocator@D@2@@std@@@1@@Z
	??$?0V?$allocator@V?$basic_string@DU?$char_traits@D@std@@V?$allocator@D@2@@std@@@std@@X@?$_Vector_alloc@U?$_Vec_base_types@V?$basic_string@DU?$char_traits@D@std@@V?$allocator@D@2@@std@@V?$allocator@V?$basic_string@DU?$char_traits@D@std@@V?$allocator@D@2@@std@@@2@@std@@@std@@QEAA@$$QEAV?$allocator@V?$basic_string@DU?$char_traits@D@std@@V?$allocator@D@2@@std@@@1@@Z
	??$?0V?$basic_string@DU?$char_traits@D@std@@V?$allocator@D@2@@std@@@?$allocator@U_Container_proxy@std@@@std@@QEAA@AEBV?$allocator@V?$basic_string@DU?$char_traits@D@std@@V?$allocator@D@2@@std@@@1@@Z
	??$?0V?$tuple@$$QEAW4IMUPacketSymbol@IMUData@@@std@@V?$tuple@$$V@1@$0A@$$Z$S@?$pair@$$CBW4IMUPacketSymbol@IMUData@@_K@std@@QEAA@AEAV?$tuple@$$QEAW4IMUPacketSymbol@IMUData@@@1@AEAV?$tuple@$$V@1@U?$integer_sequence@_K$0A@@1@U?$integer_sequence@_K$S@1@@Z
	??$?0V?$tuple@AEBH@std@@V?$tuple@$$V@1@$0A@$$Z$S@?$pair@$$CBHUPID_TABLE@ModeConfig@@@std@@QEAA@AEAV?$tuple@AEBH@1@AEAV?$tuple@$$V@1@U?$integer_sequence@_K$0A@@1@U?$integer_sequence@_K$S@1@@Z
	??$?0V?$tuple@AEBU?$pair@GG@std@@@std@@V?$tuple@$$V@1@$0A@$$Z$S@?$pair@$$CBU?$pair@GG@std@@V?$vector@V?$basic_string@DU?$char_traits@D@std@@V?$allocator@D@2@@std@@V?$allocator@V?$basic_string@DU?$char_traits@D@std@@V?$allocator@D@2@@std@@@2@@2@@std@@QEAA@AEAV?$tuple@AEBU?$pair@GG@std@@@1@AEAV?$tuple@$$V@1@U?$integer_sequence@_K$0A@@1@U?$integer_sequence@_K$S@1@@Z
	??$?0V?$tuple@AEBUDeviceSellectInfo@libeYs3D@@@std@@V?$tuple@$$V@1@$0A@$$Z$S@?$pair@$$CBUDeviceSellectInfo@libeYs3D@@V?$shared_ptr@VCameraDevice@devices@libeYs3D@@@std@@@std@@QEAA@AEAV?$tuple@AEBUDeviceSellectInfo@libeYs3D@@@1@AEAV?$tuple@$$V@1@U?$integer_sequence@_K$0A@@1@U?$integer_sequence@_K$S@1@@Z
	??$?0V?$vector@FV?$allocator@F@std@@@std@@@?$allocator@U?$_List_node@V?$vector@FV?$allocator@F@std@@@std@@PEAX@std@@@std@@QEAA@AEBV?$allocator@V?$vector@FV?$allocator@F@std@@@std@@@1@@Z
	??$?0VCameraDevice@devices@libeYs3D@@$0A@@?$shared_ptr@VCameraDevice@devices@libeYs3D@@@std@@QEAA@PEAVCameraDevice@devices@libeYs3D@@@Z
	??$?0VEYS3DSystem@libeYs3D@@$0A@@?$shared_ptr@VEYS3DSystem@libeYs3D@@@std@@QEAA@PEAVEYS3DSystem@libeYs3D@@@Z
	??$?0VFrameSetPipeline@devices@libeYs3D@@$0A@@?$shared_ptr@VFrameSetPipeline@devices@libeYs3D@@@std@@QEAA@PEAVFrameSetPipeline@devices@libeYs3D@@@Z
	??$?0VPipeline@devices@libeYs3D@@$0A@@?$shared_ptr@VPipeline@devices@libeYs3D@@@std@@QEAA@PEAVPipeline@devices@libeYs3D@@@Z
	??$?0W4IMUPacketSymbol@IMUData@@$$V$0A@@?$tuple@$$QEAW4IMUPacketSymbol@IMUData@@@std@@QEAA@$$QEAW4IMUPacketSymbol@IMUData@@@Z
	??$?0W4IMUPacketSymbol@IMUData@@@?$_Tuple_val@$$QEAW4IMUPacketSymbol@IMUData@@@std@@QEAA@$$QEAW4IMUPacketSymbol@IMUData@@@Z
	??$?0W4IMUPacketSymbol@IMUData@@H$0A@@?$pair@$$CBW4IMUPacketSymbol@IMUData@@_K@std@@QEAA@$$QEAW4IMUPacketSymbol@IMUData@@$$QEAH@Z
	??$?0W4IMU_DATA_FORMAT@IMUDevice@devices@libeYs3D@@@?$allocator@U_Container_proxy@std@@@std@@QEAA@AEBV?$allocator@W4IMU_DATA_FORMAT@IMUDevice@devices@libeYs3D@@@1@@Z
	??$?4V?$_Binder@U_Unforced@std@@P8DepthFrameProducer@video@libeYs3D@@EAAXPEAVFrame@45@@ZPEAV345@AEBU?$_Ph@$00@2@@std@@X@?$function@$$A6AXPEAVFrame@video@libeYs3D@@@Z@std@@QEAAAEAV01@$$QEAV?$_Binder@U_Unforced@std@@P8DepthFrameProducer@video@libeYs3D@@EAAXPEAVFrame@45@@ZPEAV345@AEBU?$_Ph@$00@2@@1@@Z
	??$?4V?$_Binder@U_Unforced@std@@P8FrameProducer@video@libeYs3D@@EAA_NPEBUSensorDataSet@sensors@5@@ZPEAV345@AEBU?$_Ph@$00@2@@std@@X@?$function@$$A6A_NPEBUSensorDataSet@sensors@libeYs3D@@@Z@std@@QEAAAEAV01@$$QEAV?$_Binder@U_Unforced@std@@P8FrameProducer@video@libeYs3D@@EAA_NPEBUSensorDataSet@sensors@5@@ZPEAV345@AEBU?$_Ph@$00@2@@1@@Z
	??$?4V?$_Binder@U_Unforced@std@@P8FrameProducer@video@libeYs3D@@EAA_NPEBVFrame@45@@ZPEAV345@AEBU?$_Ph@$00@2@@std@@X@?$function@$$A6A_NPEBVFrame@video@libeYs3D@@@Z@std@@QEAAAEAV01@$$QEAV?$_Binder@U_Unforced@std@@P8FrameProducer@video@libeYs3D@@EAA_NPEBVFrame@45@@ZPEAV345@AEBU?$_Ph@$00@2@@1@@Z
	??$?4V?$_Binder@U_Unforced@std@@P8FrameSetPipeline@devices@libeYs3D@@EAA_NPEBVFrame@video@5@@ZPEAV345@AEBU?$_Ph@$00@2@@std@@X@?$function@$$A6A_NPEBVFrame@video@libeYs3D@@@Z@std@@QEAAAEAV01@$$QEAV?$_Binder@U_Unforced@std@@P8FrameSetPipeline@devices@libeYs3D@@EAA_NPEBVFrame@video@5@@ZPEAV345@AEBU?$_Ph@$00@2@@1@@Z
	??$?4V?$_Binder@U_Unforced@std@@P8FrameSetPipeline@devices@libeYs3D@@EAA_NPEBVPCFrame@video@5@@ZPEAV345@AEBU?$_Ph@$00@2@@std@@X@?$function@$$A6A_NPEBVPCFrame@video@libeYs3D@@@Z@std@@QEAAAEAV01@$$QEAV?$_Binder@U_Unforced@std@@P8FrameSetPipeline@devices@libeYs3D@@EAA_NPEBVPCFrame@video@5@@ZPEAV345@AEBU?$_Ph@$00@2@@1@@Z
	??$?4V?$_Binder@U_Unforced@std@@P8PCFrameProducer@video@libeYs3D@@EAA_NPEBVFrame@45@@ZPEAV345@AEBU?$_Ph@$00@2@@std@@X@?$function@$$A6A_NPEBVFrame@video@libeYs3D@@@Z@std@@QEAAAEAV01@$$QEAV?$_Binder@U_Unforced@std@@P8PCFrameProducer@video@libeYs3D@@EAA_NPEBVFrame@45@@ZPEAV345@AEBU?$_Ph@$00@2@@1@@Z
	??$?4V?$_Binder@U_Unforced@std@@P8Pipeline@devices@libeYs3D@@EAA_NPEBUSensorData@sensors@5@@ZPEAV345@AEBU?$_Ph@$00@2@@std@@X@?$function@$$A6A_NPEBUSensorData@sensors@libeYs3D@@@Z@std@@QEAAAEAV01@$$QEAV?$_Binder@U_Unforced@std@@P8Pipeline@devices@libeYs3D@@EAA_NPEBUSensorData@sensors@5@@ZPEAV345@AEBU?$_Ph@$00@2@@1@@Z
	??$?4V?$_Binder@U_Unforced@std@@P8Pipeline@devices@libeYs3D@@EAA_NPEBVFrame@video@5@@ZPEAV345@AEBU?$_Ph@$00@2@@std@@X@?$function@$$A6A_NPEBVFrame@video@libeYs3D@@@Z@std@@QEAAAEAV01@$$QEAV?$_Binder@U_Unforced@std@@P8Pipeline@devices@libeYs3D@@EAA_NPEBVFrame@video@5@@ZPEAV345@AEBU?$_Ph@$00@2@@1@@Z
	??$?4V?$_Binder@U_Unforced@std@@P8Pipeline@devices@libeYs3D@@EAA_NPEBVPCFrame@video@5@@ZPEAV345@AEBU?$_Ph@$00@2@@std@@X@?$function@$$A6A_NPEBVPCFrame@video@libeYs3D@@@Z@std@@QEAAAEAV01@$$QEAV?$_Binder@U_Unforced@std@@P8Pipeline@devices@libeYs3D@@EAA_NPEBVPCFrame@video@5@@ZPEAV345@AEBU?$_Ph@$00@2@@1@@Z
	??$?4V?$_Binder@U_Unforced@std@@P8SensorDataProducer@sensors@libeYs3D@@EAA_NPEBUSensorDataSet@45@@ZPEAV345@AEBU?$_Ph@$00@2@@std@@X@?$function@$$A6A_NPEBUSensorDataSet@sensors@libeYs3D@@@Z@std@@QEAAAEAV01@$$QEAV?$_Binder@U_Unforced@std@@P8SensorDataProducer@sensors@libeYs3D@@EAA_NPEBUSensorDataSet@45@@ZPEAV345@AEBU?$_Ph@$00@2@@1@@Z
	??$?6DU?$char_traits@D@std@@V?$allocator@D@1@@std@@YAAEAV?$basic_ostream@DU?$char_traits@D@std@@@0@AEAV10@AEBV?$basic_string@DU?$char_traits@D@std@@V?$allocator@D@2@@0@@Z
	??$?6U?$char_traits@D@std@@@std@@YAAEAV?$basic_ostream@DU?$char_traits@D@std@@@0@AEAV10@PEBD@Z
	??$?8U?$_List_node@V?$vector@FV?$allocator@F@std@@@std@@PEAX@std@@U01@@std@@YA_NAEBV?$allocator@U?$_List_node@V?$vector@FV?$allocator@F@std@@@std@@PEAX@std@@@0@0@Z
	??$?8UCommand@?$WorkerThread@V?$Optional@VCallbackWorkItem@sensors@libeYs3D@@@base@libeYs3D@@@base@libeYs3D@@U0123@@std@@YA_NAEBV?$allocator@UCommand@?$WorkerThread@V?$Optional@VCallbackWorkItem@sensors@libeYs3D@@@base@libeYs3D@@@base@libeYs3D@@@0@0@Z
	??$?8UCommand@?$WorkerThread@V?$Optional@VCallbackWorkItem@video@libeYs3D@@@base@libeYs3D@@@base@libeYs3D@@U0123@@std@@YA_NAEBV?$allocator@UCommand@?$WorkerThread@V?$Optional@VCallbackWorkItem@video@libeYs3D@@@base@libeYs3D@@@base@libeYs3D@@@0@0@Z
	??$?8UCommand@?$WorkerThread@V?$Optional@VDACalculateWorkItem@video@libeYs3D@@@base@libeYs3D@@@base@libeYs3D@@U0123@@std@@YA_NAEBV?$allocator@UCommand@?$WorkerThread@V?$Optional@VDACalculateWorkItem@video@libeYs3D@@@base@libeYs3D@@@base@libeYs3D@@@0@0@Z
	??$?9EE@std@@YA_NAEBV?$allocator@E@0@0@Z
	??$?9GG@std@@YA_NAEBV?$allocator@G@0@0@Z
	??$?9MM@std@@YA_NAEBV?$allocator@M@0@0@Z
	??$?9USensorData@sensors@libeYs3D@@U012@@std@@YA_NAEBV?$allocator@USensorData@sensors@libeYs3D@@@0@0@Z
	??$?9V?$Optional@V?$WorkerThread@V?$Optional@VCallbackWorkItem@sensors@libeYs3D@@@base@libeYs3D@@@base@libeYs3D@@@base@libeYs3D@@V012@@std@@YA_NAEBV?$allocator@V?$Optional@V?$WorkerThread@V?$Optional@VCallbackWorkItem@sensors@libeYs3D@@@base@libeYs3D@@@base@libeYs3D@@@base@libeYs3D@@@0@0@Z
	??$?9V?$Optional@V?$WorkerThread@V?$Optional@VCallbackWorkItem@video@libeYs3D@@@base@libeYs3D@@@base@libeYs3D@@@base@libeYs3D@@V012@@std@@YA_NAEBV?$allocator@V?$Optional@V?$WorkerThread@V?$Optional@VCallbackWorkItem@video@libeYs3D@@@base@libeYs3D@@@base@libeYs3D@@@base@libeYs3D@@@0@0@Z
	??$?9V?$Optional@V?$WorkerThread@V?$Optional@VDACalculateWorkItem@video@libeYs3D@@@base@libeYs3D@@@base@libeYs3D@@@base@libeYs3D@@V012@@std@@YA_NAEBV?$allocator@V?$Optional@V?$WorkerThread@V?$Optional@VDACalculateWorkItem@video@libeYs3D@@@base@libeYs3D@@@base@libeYs3D@@@base@libeYs3D@@@0@0@Z
	??$?9V?$basic_string@DU?$char_traits@D@std@@V?$allocator@D@2@@std@@V01@@std@@YA_NAEBV?$allocator@V?$basic_string@DU?$char_traits@D@std@@V?$allocator@D@2@@std@@@0@0@Z
	??$?9_K@base@libeYs3D@@YA_NAEB_KAEBV?$Optional@_K@01@@Z
	??$?CVCameraDevice@devices@libeYs3D@@$0A@@?$shared_ptr@VCameraDevice@devices@libeYs3D@@@std@@QEBAPEAVCameraDevice@devices@libeYs3D@@XZ
	??$?CVEYS3DSystem@libeYs3D@@$0A@@?$shared_ptr@VEYS3DSystem@libeYs3D@@@std@@QEBAPEAVEYS3DSystem@libeYs3D@@XZ
	??$?CVFrameSetPipeline@devices@libeYs3D@@$0A@@?$shared_ptr@VFrameSetPipeline@devices@libeYs3D@@@std@@QEBAPEAVFrameSetPipeline@devices@libeYs3D@@XZ
	??$?CVPipeline@devices@libeYs3D@@$0A@@?$shared_ptr@VPipeline@devices@libeYs3D@@@std@@QEBAPEAVPipeline@devices@libeYs3D@@XZ
	??$?IW4ThreadFlags@base@libeYs3D@@@EnumFlags@base@libeYs3D@@YA?AW4ThreadFlags@12@W4312@0@Z
	??$?MGG@std@@YA_NAEBU?$pair@GG@0@0@Z
	??$?RAEAMAEAM@?$less@X@std@@QEBA_NAEAM0@Z
	??$?RPEAVFrame@video@libeYs3D@@@?$_Binder@U_Unforced@std@@P8DepthFrameProducer@video@libeYs3D@@EAAXPEAVFrame@45@@ZPEAV345@AEBU?$_Ph@$00@2@@std@@QEAAX$$QEAPEAVFrame@video@libeYs3D@@@Z
	??$?RPEBUSensorData@sensors@libeYs3D@@@?$_Binder@U_Unforced@std@@P8Pipeline@devices@libeYs3D@@EAA_NPEBUSensorData@sensors@5@@ZPEAV345@AEBU?$_Ph@$00@2@@std@@QEAA_N$$QEAPEBUSensorData@sensors@libeYs3D@@@Z
	??$?RPEBUSensorDataSet@sensors@libeYs3D@@@?$_Binder@U_Unforced@std@@P8FrameProducer@video@libeYs3D@@EAA_NPEBUSensorDataSet@sensors@5@@ZPEAV345@AEBU?$_Ph@$00@2@@std@@QEAA_N$$QEAPEBUSensorDataSet@sensors@libeYs3D@@@Z
	??$?RPEBUSensorDataSet@sensors@libeYs3D@@@?$_Binder@U_Unforced@std@@P8SensorDataProducer@sensors@libeYs3D@@EAA_NPEBUSensorDataSet@45@@ZPEAV345@AEBU?$_Ph@$00@2@@std@@QEAA_N$$QEAPEBUSensorDataSet@sensors@libeYs3D@@@Z
	??$?RPEBVFrame@video@libeYs3D@@@?$_Binder@U_Unforced@std@@P8FrameProducer@video@libeYs3D@@EAA_NPEBVFrame@45@@ZPEAV345@AEBU?$_Ph@$00@2@@std@@QEAA_N$$QEAPEBVFrame@video@libeYs3D@@@Z
	??$?RPEBVFrame@video@libeYs3D@@@?$_Binder@U_Unforced@std@@P8FrameSetPipeline@devices@libeYs3D@@EAA_NPEBVFrame@video@5@@ZPEAV345@AEBU?$_Ph@$00@2@@std@@QEAA_N$$QEAPEBVFrame@video@libeYs3D@@@Z
	??$?RPEBVFrame@video@libeYs3D@@@?$_Binder@U_Unforced@std@@P8PCFrameProducer@video@libeYs3D@@EAA_NPEBVFrame@45@@ZPEAV345@AEBU?$_Ph@$00@2@@std@@QEAA_N$$QEAPEBVFrame@video@libeYs3D@@@Z
	??$?RPEBVFrame@video@libeYs3D@@@?$_Binder@U_Unforced@std@@P8Pipeline@devices@libeYs3D@@EAA_NPEBVFrame@video@5@@ZPEAV345@AEBU?$_Ph@$00@2@@std@@QEAA_N$$QEAPEBVFrame@video@libeYs3D@@@Z
	??$?RPEBVPCFrame@video@libeYs3D@@@?$_Binder@U_Unforced@std@@P8FrameSetPipeline@devices@libeYs3D@@EAA_NPEBVPCFrame@video@5@@ZPEAV345@AEBU?$_Ph@$00@2@@std@@QEAA_N$$QEAPEBVPCFrame@video@libeYs3D@@@Z
	??$?RPEBVPCFrame@video@libeYs3D@@@?$_Binder@U_Unforced@std@@P8Pipeline@devices@libeYs3D@@EAA_NPEBVPCFrame@video@5@@ZPEAV345@AEBU?$_Ph@$00@2@@std@@QEAA_N$$QEAPEBVPCFrame@video@libeYs3D@@@Z
	??$?UW4ThreadFlags@base@libeYs3D@@@EnumFlags@base@libeYs3D@@YA?AW4ThreadFlags@12@W4312@0@Z
	??$_Adl_verify_range1@PEAEPEAE@std@@YAXAEBQEAE0U?$integral_constant@_N$00@0@@Z
	??$_Adl_verify_range1@PEBU?$pair@$$CBW4IMUPacketSymbol@IMUData@@_K@std@@PEBU12@@std@@YAXAEBQEBU?$pair@$$CBW4IMUPacketSymbol@IMUData@@_K@0@0U?$integral_constant@_N$00@0@@Z
	??$_Adl_verify_range1@V?$_Vector_iterator@V?$_Vector_val@U?$_Simple_types@E@std@@@std@@@std@@V12@@std@@YAXAEBV?$_Vector_iterator@V?$_Vector_val@U?$_Simple_types@E@std@@@std@@@0@0U?$integral_constant@_N$00@0@@Z
	??$_Adl_verify_range1@V?$_Vector_iterator@V?$_Vector_val@U?$_Simple_types@M@std@@@std@@@std@@V12@@std@@YAXAEBV?$_Vector_iterator@V?$_Vector_val@U?$_Simple_types@M@std@@@std@@@0@0U?$integral_constant@_N$00@0@@Z
	??$_Adl_verify_range1@V?$_Vector_iterator@V?$_Vector_val@U?$_Simple_types@UCloudPoint@@@std@@@std@@@std@@V12@@std@@YAXAEBV?$_Vector_iterator@V?$_Vector_val@U?$_Simple_types@UCloudPoint@@@std@@@std@@@0@0U?$integral_constant@_N$00@0@@Z
	??$_Adl_verify_range@PEAEPEAE@std@@YAXAEBQEAE0@Z
	??$_Adl_verify_range@PEBU?$pair@$$CBW4IMUPacketSymbol@IMUData@@_K@std@@PEBU12@@std@@YAXAEBQEBU?$pair@$$CBW4IMUPacketSymbol@IMUData@@_K@0@0@Z
	??$_Adl_verify_range@V?$_Vector_iterator@V?$_Vector_val@U?$_Simple_types@E@std@@@std@@@std@@V12@@std@@YAXAEBV?$_Vector_iterator@V?$_Vector_val@U?$_Simple_types@E@std@@@std@@@0@0@Z
	??$_Adl_verify_range@V?$_Vector_iterator@V?$_Vector_val@U?$_Simple_types@M@std@@@std@@@std@@V12@@std@@YAXAEBV?$_Vector_iterator@V?$_Vector_val@U?$_Simple_types@M@std@@@std@@@0@0@Z
	??$_Adl_verify_range@V?$_Vector_iterator@V?$_Vector_val@U?$_Simple_types@UCloudPoint@@@std@@@std@@@std@@V12@@std@@YAXAEBV?$_Vector_iterator@V?$_Vector_val@U?$_Simple_types@UCloudPoint@@@std@@@std@@@0@0@Z
	??$_Advance1@PEAE_J@std@@YAXAEAPEAE_JUrandom_access_iterator_tag@0@@Z
	??$_Advance1@PEAM_J@std@@YAXAEAPEAM_JUrandom_access_iterator_tag@0@@Z
	??$_Advance1@PEAUCloudPoint@@_J@std@@YAXAEAPEAUCloudPoint@@_JUrandom_access_iterator_tag@0@@Z
	??$_Allocate@$0BA@U_Default_allocate_traits@std@@$0A@@std@@YAPEAX_K@Z
	??$_Allocate_manually_vector_aligned@U_Default_allocate_traits@std@@@std@@YAPEAX_K@Z
	??$_Assign_range@PEAE@?$vector@EV?$allocator@E@std@@@std@@AEAAXPEAE0Uforward_iterator_tag@1@@Z
	??$_Assign_range@PEAM@?$vector@MV?$allocator@M@std@@@std@@AEAAXPEAM0Uforward_iterator_tag@1@@Z
	??$_Assign_range@PEAUCloudPoint@@@?$vector@UCloudPoint@@V?$allocator@UCloudPoint@@@std@@@std@@AEAAXPEAUCloudPoint@@0Uforward_iterator_tag@1@@Z
	??$_Buy_if_not_node@AEAU?$pair@$$CBHH@std@@@?$_Tree@V?$_Tmap_traits@HHU?$less@H@std@@V?$allocator@U?$pair@$$CBHH@std@@@2@$0A@@std@@@std@@IEAAPEAU?$_Tree_node@U?$pair@$$CBHH@std@@PEAX@1@PEAU21@AEAU?$pair@$$CBHH@1@@Z
	??$_Buy_if_not_node@AEAU?$pair@$$CBHUPID_TABLE@ModeConfig@@@std@@@?$_Tree@V?$_Tmap_traits@HUPID_TABLE@ModeConfig@@U?$less@H@std@@V?$allocator@U?$pair@$$CBHUPID_TABLE@ModeConfig@@@std@@@4@$0A@@std@@@std@@IEAAPEAU?$_Tree_node@U?$pair@$$CBHUPID_TABLE@ModeConfig@@@std@@PEAX@1@PEAU21@AEAU?$pair@$$CBHUPID_TABLE@ModeConfig@@@1@@Z
	??$_Buy_if_not_node@AEAU?$pair@$$CBU?$pair@GG@std@@V?$vector@V?$basic_string@DU?$char_traits@D@std@@V?$allocator@D@2@@std@@V?$allocator@V?$basic_string@DU?$char_traits@D@std@@V?$allocator@D@2@@std@@@2@@2@@std@@@?$_Tree@V?$_Tmap_traits@U?$pair@GG@std@@V?$vector@V?$basic_string@DU?$char_traits@D@std@@V?$allocator@D@2@@std@@V?$allocator@V?$basic_string@DU?$char_traits@D@std@@V?$allocator@D@2@@std@@@2@@2@U?$less@U?$pair@GG@std@@@2@V?$allocator@U?$pair@$$CBU?$pair@GG@std@@V?$vector@V?$basic_string@DU?$char_traits@D@std@@V?$allocator@D@2@@std@@V?$allocator@V?$basic_string@DU?$char_traits@D@std@@V?$allocator@D@2@@std@@@2@@2@@std@@@2@$0A@@std@@@std@@IEAAPEAU?$_Tree_node@U?$pair@$$CBU?$pair@GG@std@@V?$vector@V?$basic_string@DU?$char_traits@D@std@@V?$allocator@D@2@@std@@V?$allocator@V?$basic_string@DU?$char_traits@D@std@@V?$allocator@D@2@@std@@@2@@2@@std@@PEAX@1@PEAU21@AEAU?$pair@$$CBU?$pair@GG@std@@V?$vector@V?$basic_string@DU?$char_traits@D@std@@V?$allocator@D@2@@std@@V?$allocator@V?$basic_string@DU?$char_traits@D@std@@V?$allocator@D@2@@std@@@2@@2@@1@@Z
	??$_Buy_if_not_node@AEAU?$pair@$$CBUDeviceSellectInfo@libeYs3D@@V?$shared_ptr@VCameraDevice@devices@libeYs3D@@@std@@@std@@@?$_Tree@V?$_Tmap_traits@UDeviceSellectInfo@libeYs3D@@V?$shared_ptr@VCameraDevice@devices@libeYs3D@@@std@@U?$less@UDeviceSellectInfo@libeYs3D@@@4@V?$allocator@U?$pair@$$CBUDeviceSellectInfo@libeYs3D@@V?$shared_ptr@VCameraDevice@devices@libeYs3D@@@std@@@std@@@4@$0A@@std@@@std@@IEAAPEAU?$_Tree_node@U?$pair@$$CBUDeviceSellectInfo@libeYs3D@@V?$shared_ptr@VCameraDevice@devices@libeYs3D@@@std@@@std@@PEAX@1@PEAU21@AEAU?$pair@$$CBUDeviceSellectInfo@libeYs3D@@V?$shared_ptr@VCameraDevice@devices@libeYs3D@@@std@@@1@@Z
	??$_Buy_if_not_node@AEAU?$pair@$$CBW4IMUPacketSymbol@IMUData@@_K@std@@@?$_Tree@V?$_Tmap_traits@W4IMUPacketSymbol@IMUData@@_KU?$less@W4IMUPacketSymbol@IMUData@@@std@@V?$allocator@U?$pair@$$CBW4IMUPacketSymbol@IMUData@@_K@std@@@4@$0A@@std@@@std@@IEAAPEAU?$_Tree_node@U?$pair@$$CBW4IMUPacketSymbol@IMUData@@_K@std@@PEAX@1@PEAU21@AEAU?$pair@$$CBW4IMUPacketSymbol@IMUData@@_K@1@@Z
	??$_Buynode@$$V@?$_List_buy@V?$vector@FV?$allocator@F@std@@@std@@V?$allocator@V?$vector@FV?$allocator@F@std@@@std@@@2@@std@@QEAAPEAU?$_List_node@V?$vector@FV?$allocator@F@std@@@std@@PEAX@1@PEAU21@0@Z
	??$_Buynode@AEBU?$pair@$$CBW4IMUPacketSymbol@IMUData@@_K@std@@@?$_Tree_comp_alloc@V?$_Tmap_traits@W4IMUPacketSymbol@IMUData@@_KU?$less@W4IMUPacketSymbol@IMUData@@@std@@V?$allocator@U?$pair@$$CBW4IMUPacketSymbol@IMUData@@_K@std@@@4@$0A@@std@@@std@@QEAAPEAU?$_Tree_node@U?$pair@$$CBW4IMUPacketSymbol@IMUData@@_K@std@@PEAX@1@AEBU?$pair@$$CBW4IMUPacketSymbol@IMUData@@_K@1@@Z
	??$_Buynode@AEBUpiecewise_construct_t@std@@V?$tuple@$$QEAW4IMUPacketSymbol@IMUData@@@2@V?$tuple@$$V@2@@?$_Tree_comp_alloc@V?$_Tmap_traits@W4IMUPacketSymbol@IMUData@@_KU?$less@W4IMUPacketSymbol@IMUData@@@std@@V?$allocator@U?$pair@$$CBW4IMUPacketSymbol@IMUData@@_K@std@@@4@$0A@@std@@@std@@QEAAPEAU?$_Tree_node@U?$pair@$$CBW4IMUPacketSymbol@IMUData@@_K@std@@PEAX@1@AEBUpiecewise_construct_t@1@$$QEAV?$tuple@$$QEAW4IMUPacketSymbol@IMUData@@@1@$$QEAV?$tuple@$$V@1@@Z
	??$_Buynode@AEBUpiecewise_construct_t@std@@V?$tuple@AEBH@2@V?$tuple@$$V@2@@?$_Tree_comp_alloc@V?$_Tmap_traits@HUPID_TABLE@ModeConfig@@U?$less@H@std@@V?$allocator@U?$pair@$$CBHUPID_TABLE@ModeConfig@@@std@@@4@$0A@@std@@@std@@QEAAPEAU?$_Tree_node@U?$pair@$$CBHUPID_TABLE@ModeConfig@@@std@@PEAX@1@AEBUpiecewise_construct_t@1@$$QEAV?$tuple@AEBH@1@$$QEAV?$tuple@$$V@1@@Z
	??$_Buynode@AEBUpiecewise_construct_t@std@@V?$tuple@AEBU?$pair@GG@std@@@2@V?$tuple@$$V@2@@?$_Tree_comp_alloc@V?$_Tmap_traits@U?$pair@GG@std@@V?$vector@V?$basic_string@DU?$char_traits@D@std@@V?$allocator@D@2@@std@@V?$allocator@V?$basic_string@DU?$char_traits@D@std@@V?$allocator@D@2@@std@@@2@@2@U?$less@U?$pair@GG@std@@@2@V?$allocator@U?$pair@$$CBU?$pair@GG@std@@V?$vector@V?$basic_string@DU?$char_traits@D@std@@V?$allocator@D@2@@std@@V?$allocator@V?$basic_string@DU?$char_traits@D@std@@V?$allocator@D@2@@std@@@2@@2@@std@@@2@$0A@@std@@@std@@QEAAPEAU?$_Tree_node@U?$pair@$$CBU?$pair@GG@std@@V?$vector@V?$basic_string@DU?$char_traits@D@std@@V?$allocator@D@2@@std@@V?$allocator@V?$basic_string@DU?$char_traits@D@std@@V?$allocator@D@2@@std@@@2@@2@@std@@PEAX@1@AEBUpiecewise_construct_t@1@$$QEAV?$tuple@AEBU?$pair@GG@std@@@1@$$QEAV?$tuple@$$V@1@@Z
	??$_Buynode@AEBUpiecewise_construct_t@std@@V?$tuple@AEBUDeviceSellectInfo@libeYs3D@@@2@V?$tuple@$$V@2@@?$_Tree_comp_alloc@V?$_Tmap_traits@UDeviceSellectInfo@libeYs3D@@V?$shared_ptr@VCameraDevice@devices@libeYs3D@@@std@@U?$less@UDeviceSellectInfo@libeYs3D@@@4@V?$allocator@U?$pair@$$CBUDeviceSellectInfo@libeYs3D@@V?$shared_ptr@VCameraDevice@devices@libeYs3D@@@std@@@std@@@4@$0A@@std@@@std@@QEAAPEAU?$_Tree_node@U?$pair@$$CBUDeviceSellectInfo@libeYs3D@@V?$shared_ptr@VCameraDevice@devices@libeYs3D@@@std@@@std@@PEAX@1@AEBUpiecewise_construct_t@1@$$QEAV?$tuple@AEBUDeviceSellectInfo@libeYs3D@@@1@$$QEAV?$tuple@$$V@1@@Z
	??$_Buynode@U?$pair@HH@std@@@?$_Tree_comp_alloc@V?$_Tmap_traits@HHU?$less@H@std@@V?$allocator@U?$pair@$$CBHH@std@@@2@$0A@@std@@@std@@QEAAPEAU?$_Tree_node@U?$pair@$$CBHH@std@@PEAX@1@$$QEAU?$pair@HH@1@@Z
	??$_Call@AEAP8DepthFrameProducer@video@libeYs3D@@EAAXPEAVFrame@23@@ZAEAPEAV123@PEAV423@@?$_Invoker_ret@U_Unforced@std@@$0A@@std@@SAXAEAP8DepthFrameProducer@video@libeYs3D@@EAAXPEAVFrame@34@@ZAEAPEAV234@$$QEAPEAV534@@Z
	??$_Call@AEAP8FrameProducer@video@libeYs3D@@EAA_NPEBUSensorDataSet@sensors@3@@ZAEAPEAV123@PEBU453@@?$_Invoker_ret@U_Unforced@std@@$0A@@std@@SA_NAEAP8FrameProducer@video@libeYs3D@@EAA_NPEBUSensorDataSet@sensors@4@@ZAEAPEAV234@$$QEAPEBU564@@Z
	??$_Call@AEAP8FrameProducer@video@libeYs3D@@EAA_NPEBVFrame@23@@ZAEAPEAV123@PEBV423@@?$_Invoker_ret@U_Unforced@std@@$0A@@std@@SA_NAEAP8FrameProducer@video@libeYs3D@@EAA_NPEBVFrame@34@@ZAEAPEAV234@$$QEAPEBV534@@Z
	??$_Call@AEAP8FrameSetPipeline@devices@libeYs3D@@EAA_NPEBVFrame@video@3@@ZAEAPEAV123@PEBV453@@?$_Invoker_ret@U_Unforced@std@@$0A@@std@@SA_NAEAP8FrameSetPipeline@devices@libeYs3D@@EAA_NPEBVFrame@video@4@@ZAEAPEAV234@$$QEAPEBV564@@Z
	??$_Call@AEAP8FrameSetPipeline@devices@libeYs3D@@EAA_NPEBVPCFrame@video@3@@ZAEAPEAV123@PEBV453@@?$_Invoker_ret@U_Unforced@std@@$0A@@std@@SA_NAEAP8FrameSetPipeline@devices@libeYs3D@@EAA_NPEBVPCFrame@video@4@@ZAEAPEAV234@$$QEAPEBV564@@Z
	??$_Call@AEAP8PCFrameProducer@video@libeYs3D@@EAA_NPEBVFrame@23@@ZAEAPEAV123@PEBV423@@?$_Invoker_ret@U_Unforced@std@@$0A@@std@@SA_NAEAP8PCFrameProducer@video@libeYs3D@@EAA_NPEBVFrame@34@@ZAEAPEAV234@$$QEAPEBV534@@Z
	??$_Call@AEAP8Pipeline@devices@libeYs3D@@EAA_NPEBUSensorData@sensors@3@@ZAEAPEAV123@PEBU453@@?$_Invoker_ret@U_Unforced@std@@$0A@@std@@SA_NAEAP8Pipeline@devices@libeYs3D@@EAA_NPEBUSensorData@sensors@4@@ZAEAPEAV234@$$QEAPEBU564@@Z
	??$_Call@AEAP8Pipeline@devices@libeYs3D@@EAA_NPEBVFrame@video@3@@ZAEAPEAV123@PEBV453@@?$_Invoker_ret@U_Unforced@std@@$0A@@std@@SA_NAEAP8Pipeline@devices@libeYs3D@@EAA_NPEBVFrame@video@4@@ZAEAPEAV234@$$QEAPEBV564@@Z
	??$_Call@AEAP8Pipeline@devices@libeYs3D@@EAA_NPEBVPCFrame@video@3@@ZAEAPEAV123@PEBV453@@?$_Invoker_ret@U_Unforced@std@@$0A@@std@@SA_NAEAP8Pipeline@devices@libeYs3D@@EAA_NPEBVPCFrame@video@4@@ZAEAPEAV234@$$QEAPEBV564@@Z
	??$_Call@AEAP8SensorDataProducer@sensors@libeYs3D@@EAA_NPEBUSensorDataSet@23@@ZAEAPEAV123@PEBU423@@?$_Invoker_ret@U_Unforced@std@@$0A@@std@@SA_NAEAP8SensorDataProducer@sensors@libeYs3D@@EAA_NPEBUSensorDataSet@34@@ZAEAPEAV234@$$QEAPEBU534@@Z
	??$_Call@AEAV<lambda_488c629a0a7c1ecc954ac8047e960599>@@$$V@_Invoker_functor@std@@SA_JAEAV<lambda_488c629a0a7c1ecc954ac8047e960599>@@@Z
	??$_Call@AEAV<lambda_488c629a0a7c1ecc954ac8047e960599>@@@?$_Invoker_ret@_J$0A@@std@@SA_JAEAV<lambda_488c629a0a7c1ecc954ac8047e960599>@@@Z
	??$_Call@AEAV<lambda_4cde73e63763cb313bd212247f8ddbb0>@@V?$Optional@VDACalculateWorkItem@video@libeYs3D@@@base@libeYs3D@@@?$_Invoker_ret@W4WorkerProcessingResult@base@libeYs3D@@$0A@@std@@SA?AW4WorkerProcessingResult@base@libeYs3D@@AEAV<lambda_4cde73e63763cb313bd212247f8ddbb0>@@$$QEAV?$Optional@VDACalculateWorkItem@video@libeYs3D@@@34@@Z
	??$_Call@AEAV<lambda_4cde73e63763cb313bd212247f8ddbb0>@@V?$Optional@VDACalculateWorkItem@video@libeYs3D@@@base@libeYs3D@@@_Invoker_functor@std@@SA?AW4WorkerProcessingResult@base@libeYs3D@@AEAV<lambda_4cde73e63763cb313bd212247f8ddbb0>@@$$QEAV?$Optional@VDACalculateWorkItem@video@libeYs3D@@@34@@Z
	??$_Call@AEAV<lambda_530843cc44829e3530ea01af34e42038>@@V?$Optional@VCallbackWorkItem@sensors@libeYs3D@@@base@libeYs3D@@@?$_Invoker_ret@W4WorkerProcessingResult@base@libeYs3D@@$0A@@std@@SA?AW4WorkerProcessingResult@base@libeYs3D@@AEAV<lambda_530843cc44829e3530ea01af34e42038>@@$$QEAV?$Optional@VCallbackWorkItem@sensors@libeYs3D@@@34@@Z
	??$_Call@AEAV<lambda_530843cc44829e3530ea01af34e42038>@@V?$Optional@VCallbackWorkItem@sensors@libeYs3D@@@base@libeYs3D@@@_Invoker_functor@std@@SA?AW4WorkerProcessingResult@base@libeYs3D@@AEAV<lambda_530843cc44829e3530ea01af34e42038>@@$$QEAV?$Optional@VCallbackWorkItem@sensors@libeYs3D@@@34@@Z
	??$_Call@AEAV<lambda_69d578ede27bd906c7e1bc689c004001>@@$$V@_Invoker_functor@std@@SA_JAEAV<lambda_69d578ede27bd906c7e1bc689c004001>@@@Z
	??$_Call@AEAV<lambda_69d578ede27bd906c7e1bc689c004001>@@@?$_Invoker_ret@_J$0A@@std@@SA_JAEAV<lambda_69d578ede27bd906c7e1bc689c004001>@@@Z
	??$_Call@AEAV<lambda_9f92d7825455e143dbf3293131d714f3>@@V?$Optional@VCallbackWorkItem@video@libeYs3D@@@base@libeYs3D@@@?$_Invoker_ret@W4WorkerProcessingResult@base@libeYs3D@@$0A@@std@@SA?AW4WorkerProcessingResult@base@libeYs3D@@AEAV<lambda_9f92d7825455e143dbf3293131d714f3>@@$$QEAV?$Optional@VCallbackWorkItem@video@libeYs3D@@@34@@Z
	??$_Call@AEAV<lambda_9f92d7825455e143dbf3293131d714f3>@@V?$Optional@VCallbackWorkItem@video@libeYs3D@@@base@libeYs3D@@@_Invoker_functor@std@@SA?AW4WorkerProcessingResult@base@libeYs3D@@AEAV<lambda_9f92d7825455e143dbf3293131d714f3>@@$$QEAV?$Optional@VCallbackWorkItem@video@libeYs3D@@@34@@Z
	??$_Call@AEAV<lambda_fd68a9891d2d9d887c20652be0ece82a>@@$$V@_Invoker_functor@std@@SA_JAEAV<lambda_fd68a9891d2d9d887c20652be0ece82a>@@@Z
	??$_Call@AEAV<lambda_fd68a9891d2d9d887c20652be0ece82a>@@@?$_Invoker_ret@_J$0A@@std@@SA_JAEAV<lambda_fd68a9891d2d9d887c20652be0ece82a>@@@Z
	??$_Call@AEAV?$_Binder@U_Unforced@std@@P8DepthFrameProducer@video@libeYs3D@@EAAXPEAVFrame@45@@ZPEAV345@AEBU?$_Ph@$00@2@@std@@PEAVFrame@video@libeYs3D@@@?$_Invoker_ret@X$00@std@@SAXAEAV?$_Binder@U_Unforced@std@@P8DepthFrameProducer@video@libeYs3D@@EAAXPEAVFrame@45@@ZPEAV345@AEBU?$_Ph@$00@2@@1@$$QEAPEAVFrame@video@libeYs3D@@@Z
	??$_Call@AEAV?$_Binder@U_Unforced@std@@P8DepthFrameProducer@video@libeYs3D@@EAAXPEAVFrame@45@@ZPEAV345@AEBU?$_Ph@$00@2@@std@@PEAVFrame@video@libeYs3D@@@_Invoker_functor@std@@SAXAEAV?$_Binder@U_Unforced@std@@P8DepthFrameProducer@video@libeYs3D@@EAAXPEAVFrame@45@@ZPEAV345@AEBU?$_Ph@$00@2@@1@$$QEAPEAVFrame@video@libeYs3D@@@Z
	??$_Call@AEAV?$_Binder@U_Unforced@std@@P8FrameProducer@video@libeYs3D@@EAA_NPEBUSensorDataSet@sensors@5@@ZPEAV345@AEBU?$_Ph@$00@2@@std@@PEBUSensorDataSet@sensors@libeYs3D@@@?$_Invoker_ret@_N$0A@@std@@SA_NAEAV?$_Binder@U_Unforced@std@@P8FrameProducer@video@libeYs3D@@EAA_NPEBUSensorDataSet@sensors@5@@ZPEAV345@AEBU?$_Ph@$00@2@@1@$$QEAPEBUSensorDataSet@sensors@libeYs3D@@@Z
	??$_Call@AEAV?$_Binder@U_Unforced@std@@P8FrameProducer@video@libeYs3D@@EAA_NPEBUSensorDataSet@sensors@5@@ZPEAV345@AEBU?$_Ph@$00@2@@std@@PEBUSensorDataSet@sensors@libeYs3D@@@_Invoker_functor@std@@SA_NAEAV?$_Binder@U_Unforced@std@@P8FrameProducer@video@libeYs3D@@EAA_NPEBUSensorDataSet@sensors@5@@ZPEAV345@AEBU?$_Ph@$00@2@@1@$$QEAPEBUSensorDataSet@sensors@libeYs3D@@@Z
	??$_Call@AEAV?$_Binder@U_Unforced@std@@P8FrameProducer@video@libeYs3D@@EAA_NPEBVFrame@45@@ZPEAV345@AEBU?$_Ph@$00@2@@std@@PEBVFrame@video@libeYs3D@@@?$_Invoker_ret@_N$0A@@std@@SA_NAEAV?$_Binder@U_Unforced@std@@P8FrameProducer@video@libeYs3D@@EAA_NPEBVFrame@45@@ZPEAV345@AEBU?$_Ph@$00@2@@1@$$QEAPEBVFrame@video@libeYs3D@@@Z
	??$_Call@AEAV?$_Binder@U_Unforced@std@@P8FrameProducer@video@libeYs3D@@EAA_NPEBVFrame@45@@ZPEAV345@AEBU?$_Ph@$00@2@@std@@PEBVFrame@video@libeYs3D@@@_Invoker_functor@std@@SA_NAEAV?$_Binder@U_Unforced@std@@P8FrameProducer@video@libeYs3D@@EAA_NPEBVFrame@45@@ZPEAV345@AEBU?$_Ph@$00@2@@1@$$QEAPEBVFrame@video@libeYs3D@@@Z
	??$_Call@AEAV?$_Binder@U_Unforced@std@@P8FrameSetPipeline@devices@libeYs3D@@EAA_NPEBVFrame@video@5@@ZPEAV345@AEBU?$_Ph@$00@2@@std@@PEBVFrame@video@libeYs3D@@@?$_Invoker_ret@_N$0A@@std@@SA_NAEAV?$_Binder@U_Unforced@std@@P8FrameSetPipeline@devices@libeYs3D@@EAA_NPEBVFrame@video@5@@ZPEAV345@AEBU?$_Ph@$00@2@@1@$$QEAPEBVFrame@video@libeYs3D@@@Z
	??$_Call@AEAV?$_Binder@U_Unforced@std@@P8FrameSetPipeline@devices@libeYs3D@@EAA_NPEBVFrame@video@5@@ZPEAV345@AEBU?$_Ph@$00@2@@std@@PEBVFrame@video@libeYs3D@@@_Invoker_functor@std@@SA_NAEAV?$_Binder@U_Unforced@std@@P8FrameSetPipeline@devices@libeYs3D@@EAA_NPEBVFrame@video@5@@ZPEAV345@AEBU?$_Ph@$00@2@@1@$$QEAPEBVFrame@video@libeYs3D@@@Z
	??$_Call@AEAV?$_Binder@U_Unforced@std@@P8FrameSetPipeline@devices@libeYs3D@@EAA_NPEBVPCFrame@video@5@@ZPEAV345@AEBU?$_Ph@$00@2@@std@@PEBVPCFrame@video@libeYs3D@@@?$_Invoker_ret@_N$0A@@std@@SA_NAEAV?$_Binder@U_Unforced@std@@P8FrameSetPipeline@devices@libeYs3D@@EAA_NPEBVPCFrame@video@5@@ZPEAV345@AEBU?$_Ph@$00@2@@1@$$QEAPEBVPCFrame@video@libeYs3D@@@Z
	??$_Call@AEAV?$_Binder@U_Unforced@std@@P8FrameSetPipeline@devices@libeYs3D@@EAA_NPEBVPCFrame@video@5@@ZPEAV345@AEBU?$_Ph@$00@2@@std@@PEBVPCFrame@video@libeYs3D@@@_Invoker_functor@std@@SA_NAEAV?$_Binder@U_Unforced@std@@P8FrameSetPipeline@devices@libeYs3D@@EAA_NPEBVPCFrame@video@5@@ZPEAV345@AEBU?$_Ph@$00@2@@1@$$QEAPEBVPCFrame@video@libeYs3D@@@Z
	??$_Call@AEAV?$_Binder@U_Unforced@std@@P8PCFrameProducer@video@libeYs3D@@EAA_NPEBVFrame@45@@ZPEAV345@AEBU?$_Ph@$00@2@@std@@PEBVFrame@video@libeYs3D@@@?$_Invoker_ret@_N$0A@@std@@SA_NAEAV?$_Binder@U_Unforced@std@@P8PCFrameProducer@video@libeYs3D@@EAA_NPEBVFrame@45@@ZPEAV345@AEBU?$_Ph@$00@2@@1@$$QEAPEBVFrame@video@libeYs3D@@@Z
	??$_Call@AEAV?$_Binder@U_Unforced@std@@P8PCFrameProducer@video@libeYs3D@@EAA_NPEBVFrame@45@@ZPEAV345@AEBU?$_Ph@$00@2@@std@@PEBVFrame@video@libeYs3D@@@_Invoker_functor@std@@SA_NAEAV?$_Binder@U_Unforced@std@@P8PCFrameProducer@video@libeYs3D@@EAA_NPEBVFrame@45@@ZPEAV345@AEBU?$_Ph@$00@2@@1@$$QEAPEBVFrame@video@libeYs3D@@@Z
	??$_Call@AEAV?$_Binder@U_Unforced@std@@P8Pipeline@devices@libeYs3D@@EAA_NPEBUSensorData@sensors@5@@ZPEAV345@AEBU?$_Ph@$00@2@@std@@PEBUSensorData@sensors@libeYs3D@@@?$_Invoker_ret@_N$0A@@std@@SA_NAEAV?$_Binder@U_Unforced@std@@P8Pipeline@devices@libeYs3D@@EAA_NPEBUSensorData@sensors@5@@ZPEAV345@AEBU?$_Ph@$00@2@@1@$$QEAPEBUSensorData@sensors@libeYs3D@@@Z
	??$_Call@AEAV?$_Binder@U_Unforced@std@@P8Pipeline@devices@libeYs3D@@EAA_NPEBUSensorData@sensors@5@@ZPEAV345@AEBU?$_Ph@$00@2@@std@@PEBUSensorData@sensors@libeYs3D@@@_Invoker_functor@std@@SA_NAEAV?$_Binder@U_Unforced@std@@P8Pipeline@devices@libeYs3D@@EAA_NPEBUSensorData@sensors@5@@ZPEAV345@AEBU?$_Ph@$00@2@@1@$$QEAPEBUSensorData@sensors@libeYs3D@@@Z
	??$_Call@AEAV?$_Binder@U_Unforced@std@@P8Pipeline@devices@libeYs3D@@EAA_NPEBVFrame@video@5@@ZPEAV345@AEBU?$_Ph@$00@2@@std@@PEBVFrame@video@libeYs3D@@@?$_Invoker_ret@_N$0A@@std@@SA_NAEAV?$_Binder@U_Unforced@std@@P8Pipeline@devices@libeYs3D@@EAA_NPEBVFrame@video@5@@ZPEAV345@AEBU?$_Ph@$00@2@@1@$$QEAPEBVFrame@video@libeYs3D@@@Z
	??$_Call@AEAV?$_Binder@U_Unforced@std@@P8Pipeline@devices@libeYs3D@@EAA_NPEBVFrame@video@5@@ZPEAV345@AEBU?$_Ph@$00@2@@std@@PEBVFrame@video@libeYs3D@@@_Invoker_functor@std@@SA_NAEAV?$_Binder@U_Unforced@std@@P8Pipeline@devices@libeYs3D@@EAA_NPEBVFrame@video@5@@ZPEAV345@AEBU?$_Ph@$00@2@@1@$$QEAPEBVFrame@video@libeYs3D@@@Z
	??$_Call@AEAV?$_Binder@U_Unforced@std@@P8Pipeline@devices@libeYs3D@@EAA_NPEBVPCFrame@video@5@@ZPEAV345@AEBU?$_Ph@$00@2@@std@@PEBVPCFrame@video@libeYs3D@@@?$_Invoker_ret@_N$0A@@std@@SA_NAEAV?$_Binder@U_Unforced@std@@P8Pipeline@devices@libeYs3D@@EAA_NPEBVPCFrame@video@5@@ZPEAV345@AEBU?$_Ph@$00@2@@1@$$QEAPEBVPCFrame@video@libeYs3D@@@Z
	??$_Call@AEAV?$_Binder@U_Unforced@std@@P8Pipeline@devices@libeYs3D@@EAA_NPEBVPCFrame@video@5@@ZPEAV345@AEBU?$_Ph@$00@2@@std@@PEBVPCFrame@video@libeYs3D@@@_Invoker_functor@std@@SA_NAEAV?$_Binder@U_Unforced@std@@P8Pipeline@devices@libeYs3D@@EAA_NPEBVPCFrame@video@5@@ZPEAV345@AEBU?$_Ph@$00@2@@1@$$QEAPEBVPCFrame@video@libeYs3D@@@Z
	??$_Call@AEAV?$_Binder@U_Unforced@std@@P8SensorDataProducer@sensors@libeYs3D@@EAA_NPEBUSensorDataSet@45@@ZPEAV345@AEBU?$_Ph@$00@2@@std@@PEBUSensorDataSet@sensors@libeYs3D@@@?$_Invoker_ret@_N$0A@@std@@SA_NAEAV?$_Binder@U_Unforced@std@@P8SensorDataProducer@sensors@libeYs3D@@EAA_NPEBUSensorDataSet@45@@ZPEAV345@AEBU?$_Ph@$00@2@@1@$$QEAPEBUSensorDataSet@sensors@libeYs3D@@@Z
	??$_Call@AEAV?$_Binder@U_Unforced@std@@P8SensorDataProducer@sensors@libeYs3D@@EAA_NPEBUSensorDataSet@45@@ZPEAV345@AEBU?$_Ph@$00@2@@std@@PEBUSensorDataSet@sensors@libeYs3D@@@_Invoker_functor@std@@SA_NAEAV?$_Binder@U_Unforced@std@@P8SensorDataProducer@sensors@libeYs3D@@EAA_NPEBUSensorDataSet@45@@ZPEAV345@AEBU?$_Ph@$00@2@@1@$$QEAPEBUSensorDataSet@sensors@libeYs3D@@@Z
	??$_Call@P8DepthFrameProducer@video@libeYs3D@@EAAXPEAVFrame@23@@ZAEAPEAV123@PEAV423@@_Invoker_pmf_pointer@std@@SAXP8DepthFrameProducer@video@libeYs3D@@EAAXPEAVFrame@34@@ZAEAPEAV234@$$QEAPEAV534@@Z
	??$_Call@P8FrameProducer@video@libeYs3D@@EAA_NPEBUSensorDataSet@sensors@3@@ZAEAPEAV123@PEBU453@@_Invoker_pmf_pointer@std@@SA_NP8FrameProducer@video@libeYs3D@@EAA_NPEBUSensorDataSet@sensors@4@@ZAEAPEAV234@$$QEAPEBU564@@Z
	??$_Call@P8FrameProducer@video@libeYs3D@@EAA_NPEBVFrame@23@@ZAEAPEAV123@PEBV423@@_Invoker_pmf_pointer@std@@SA_NP8FrameProducer@video@libeYs3D@@EAA_NPEBVFrame@34@@ZAEAPEAV234@$$QEAPEBV534@@Z
	??$_Call@P8FrameSetPipeline@devices@libeYs3D@@EAA_NPEBVFrame@video@3@@ZAEAPEAV123@PEBV453@@_Invoker_pmf_pointer@std@@SA_NP8FrameSetPipeline@devices@libeYs3D@@EAA_NPEBVFrame@video@4@@ZAEAPEAV234@$$QEAPEBV564@@Z
	??$_Call@P8FrameSetPipeline@devices@libeYs3D@@EAA_NPEBVPCFrame@video@3@@ZAEAPEAV123@PEBV453@@_Invoker_pmf_pointer@std@@SA_NP8FrameSetPipeline@devices@libeYs3D@@EAA_NPEBVPCFrame@video@4@@ZAEAPEAV234@$$QEAPEBV564@@Z
	??$_Call@P8PCFrameProducer@video@libeYs3D@@EAA_NPEBVFrame@23@@ZAEAPEAV123@PEBV423@@_Invoker_pmf_pointer@std@@SA_NP8PCFrameProducer@video@libeYs3D@@EAA_NPEBVFrame@34@@ZAEAPEAV234@$$QEAPEBV534@@Z
	??$_Call@P8Pipeline@devices@libeYs3D@@EAA_NPEBUSensorData@sensors@3@@ZAEAPEAV123@PEBU453@@_Invoker_pmf_pointer@std@@SA_NP8Pipeline@devices@libeYs3D@@EAA_NPEBUSensorData@sensors@4@@ZAEAPEAV234@$$QEAPEBU564@@Z
	??$_Call@P8Pipeline@devices@libeYs3D@@EAA_NPEBVFrame@video@3@@ZAEAPEAV123@PEBV453@@_Invoker_pmf_pointer@std@@SA_NP8Pipeline@devices@libeYs3D@@EAA_NPEBVFrame@video@4@@ZAEAPEAV234@$$QEAPEBV564@@Z
	??$_Call@P8Pipeline@devices@libeYs3D@@EAA_NPEBVPCFrame@video@3@@ZAEAPEAV123@PEBV453@@_Invoker_pmf_pointer@std@@SA_NP8Pipeline@devices@libeYs3D@@EAA_NPEBVPCFrame@video@4@@ZAEAPEAV234@$$QEAPEBV564@@Z
	??$_Call@P8SensorDataProducer@sensors@libeYs3D@@EAA_NPEBUSensorDataSet@23@@ZAEAPEAV123@PEBU423@@_Invoker_pmf_pointer@std@@SA_NP8SensorDataProducer@sensors@libeYs3D@@EAA_NPEBUSensorDataSet@34@@ZAEAPEAV234@$$QEAPEBU534@@Z
	??$_Call_binder@U_Unforced@std@@$0A@$00P8DepthFrameProducer@video@libeYs3D@@EAAXPEAVFrame@45@@ZV?$tuple@PEAVDepthFrameProducer@video@libeYs3D@@U?$_Ph@$00@std@@@2@V?$tuple@$$QEAPEAVFrame@video@libeYs3D@@@2@@std@@YAXU?$_Invoker_ret@U_Unforced@std@@$0A@@0@U?$integer_sequence@_K$0A@$00@0@AEAP8DepthFrameProducer@video@libeYs3D@@EAAXPEAVFrame@45@@ZAEAV?$tuple@PEAVDepthFrameProducer@video@libeYs3D@@U?$_Ph@$00@std@@@0@$$QEAV?$tuple@$$QEAPEAVFrame@video@libeYs3D@@@0@@Z
	??$_Call_binder@U_Unforced@std@@$0A@$00P8FrameProducer@video@libeYs3D@@EAA_NPEBUSensorDataSet@sensors@5@@ZV?$tuple@PEAVFrameProducer@video@libeYs3D@@U?$_Ph@$00@std@@@2@V?$tuple@$$QEAPEBUSensorDataSet@sensors@libeYs3D@@@2@@std@@YA_NU?$_Invoker_ret@U_Unforced@std@@$0A@@0@U?$integer_sequence@_K$0A@$00@0@AEAP8FrameProducer@video@libeYs3D@@EAA_NPEBUSensorDataSet@sensors@5@@ZAEAV?$tuple@PEAVFrameProducer@video@libeYs3D@@U?$_Ph@$00@std@@@0@$$QEAV?$tuple@$$QEAPEBUSensorDataSet@sensors@libeYs3D@@@0@@Z
	??$_Call_binder@U_Unforced@std@@$0A@$00P8FrameProducer@video@libeYs3D@@EAA_NPEBVFrame@45@@ZV?$tuple@PEAVFrameProducer@video@libeYs3D@@U?$_Ph@$00@std@@@2@V?$tuple@$$QEAPEBVFrame@video@libeYs3D@@@2@@std@@YA_NU?$_Invoker_ret@U_Unforced@std@@$0A@@0@U?$integer_sequence@_K$0A@$00@0@AEAP8FrameProducer@video@libeYs3D@@EAA_NPEBVFrame@45@@ZAEAV?$tuple@PEAVFrameProducer@video@libeYs3D@@U?$_Ph@$00@std@@@0@$$QEAV?$tuple@$$QEAPEBVFrame@video@libeYs3D@@@0@@Z
	??$_Call_binder@U_Unforced@std@@$0A@$00P8FrameSetPipeline@devices@libeYs3D@@EAA_NPEBVFrame@video@5@@ZV?$tuple@PEAVFrameSetPipeline@devices@libeYs3D@@U?$_Ph@$00@std@@@2@V?$tuple@$$QEAPEBVFrame@video@libeYs3D@@@2@@std@@YA_NU?$_Invoker_ret@U_Unforced@std@@$0A@@0@U?$integer_sequence@_K$0A@$00@0@AEAP8FrameSetPipeline@devices@libeYs3D@@EAA_NPEBVFrame@video@5@@ZAEAV?$tuple@PEAVFrameSetPipeline@devices@libeYs3D@@U?$_Ph@$00@std@@@0@$$QEAV?$tuple@$$QEAPEBVFrame@video@libeYs3D@@@0@@Z
	??$_Call_binder@U_Unforced@std@@$0A@$00P8FrameSetPipeline@devices@libeYs3D@@EAA_NPEBVPCFrame@video@5@@ZV?$tuple@PEAVFrameSetPipeline@devices@libeYs3D@@U?$_Ph@$00@std@@@2@V?$tuple@$$QEAPEBVPCFrame@video@libeYs3D@@@2@@std@@YA_NU?$_Invoker_ret@U_Unforced@std@@$0A@@0@U?$integer_sequence@_K$0A@$00@0@AEAP8FrameSetPipeline@devices@libeYs3D@@EAA_NPEBVPCFrame@video@5@@ZAEAV?$tuple@PEAVFrameSetPipeline@devices@libeYs3D@@U?$_Ph@$00@std@@@0@$$QEAV?$tuple@$$QEAPEBVPCFrame@video@libeYs3D@@@0@@Z
	??$_Call_binder@U_Unforced@std@@$0A@$00P8PCFrameProducer@video@libeYs3D@@EAA_NPEBVFrame@45@@ZV?$tuple@PEAVPCFrameProducer@video@libeYs3D@@U?$_Ph@$00@std@@@2@V?$tuple@$$QEAPEBVFrame@video@libeYs3D@@@2@@std@@YA_NU?$_Invoker_ret@U_Unforced@std@@$0A@@0@U?$integer_sequence@_K$0A@$00@0@AEAP8PCFrameProducer@video@libeYs3D@@EAA_NPEBVFrame@45@@ZAEAV?$tuple@PEAVPCFrameProducer@video@libeYs3D@@U?$_Ph@$00@std@@@0@$$QEAV?$tuple@$$QEAPEBVFrame@video@libeYs3D@@@0@@Z
	??$_Call_binder@U_Unforced@std@@$0A@$00P8Pipeline@devices@libeYs3D@@EAA_NPEBUSensorData@sensors@5@@ZV?$tuple@PEAVPipeline@devices@libeYs3D@@U?$_Ph@$00@std@@@2@V?$tuple@$$QEAPEBUSensorData@sensors@libeYs3D@@@2@@std@@YA_NU?$_Invoker_ret@U_Unforced@std@@$0A@@0@U?$integer_sequence@_K$0A@$00@0@AEAP8Pipeline@devices@libeYs3D@@EAA_NPEBUSensorData@sensors@5@@ZAEAV?$tuple@PEAVPipeline@devices@libeYs3D@@U?$_Ph@$00@std@@@0@$$QEAV?$tuple@$$QEAPEBUSensorData@sensors@libeYs3D@@@0@@Z
	??$_Call_binder@U_Unforced@std@@$0A@$00P8Pipeline@devices@libeYs3D@@EAA_NPEBVFrame@video@5@@ZV?$tuple@PEAVPipeline@devices@libeYs3D@@U?$_Ph@$00@std@@@2@V?$tuple@$$QEAPEBVFrame@video@libeYs3D@@@2@@std@@YA_NU?$_Invoker_ret@U_Unforced@std@@$0A@@0@U?$integer_sequence@_K$0A@$00@0@AEAP8Pipeline@devices@libeYs3D@@EAA_NPEBVFrame@video@5@@ZAEAV?$tuple@PEAVPipeline@devices@libeYs3D@@U?$_Ph@$00@std@@@0@$$QEAV?$tuple@$$QEAPEBVFrame@video@libeYs3D@@@0@@Z
	??$_Call_binder@U_Unforced@std@@$0A@$00P8Pipeline@devices@libeYs3D@@EAA_NPEBVPCFrame@video@5@@ZV?$tuple@PEAVPipeline@devices@libeYs3D@@U?$_Ph@$00@std@@@2@V?$tuple@$$QEAPEBVPCFrame@video@libeYs3D@@@2@@std@@YA_NU?$_Invoker_ret@U_Unforced@std@@$0A@@0@U?$integer_sequence@_K$0A@$00@0@AEAP8Pipeline@devices@libeYs3D@@EAA_NPEBVPCFrame@video@5@@ZAEAV?$tuple@PEAVPipeline@devices@libeYs3D@@U?$_Ph@$00@std@@@0@$$QEAV?$tuple@$$QEAPEBVPCFrame@video@libeYs3D@@@0@@Z
	??$_Call_binder@U_Unforced@std@@$0A@$00P8SensorDataProducer@sensors@libeYs3D@@EAA_NPEBUSensorDataSet@45@@ZV?$tuple@PEAVSensorDataProducer@sensors@libeYs3D@@U?$_Ph@$00@std@@@2@V?$tuple@$$QEAPEBUSensorDataSet@sensors@libeYs3D@@@2@@std@@YA_NU?$_Invoker_ret@U_Unforced@std@@$0A@@0@U?$integer_sequence@_K$0A@$00@0@AEAP8SensorDataProducer@sensors@libeYs3D@@EAA_NPEBUSensorDataSet@45@@ZAEAV?$tuple@PEAVSensorDataProducer@sensors@libeYs3D@@U?$_Ph@$00@std@@@0@$$QEAV?$tuple@$$QEAPEBUSensorDataSet@sensors@libeYs3D@@@0@@Z
	??$_Convert_size@_K@std@@YA_K_K@Z
	??$_Copy_backward_memmove@PEAEPEAE@std@@YAPEAEPEAE00@Z
	??$_Copy_backward_memmove@PEAMPEAM@std@@YAPEAMPEAM00@Z
	??$_Copy_construct_from@VCameraDevice@devices@libeYs3D@@@?$_Ptr_base@VCameraDevice@devices@libeYs3D@@@std@@IEAAXAEBV?$shared_ptr@VCameraDevice@devices@libeYs3D@@@1@@Z
	??$_Copy_construct_from@VEYS3DSystem@libeYs3D@@@?$_Ptr_base@VEYS3DSystem@libeYs3D@@@std@@IEAAXAEBV?$shared_ptr@VEYS3DSystem@libeYs3D@@@1@@Z
	??$_Copy_construct_from@VFrameSetPipeline@devices@libeYs3D@@@?$_Ptr_base@VFrameSetPipeline@devices@libeYs3D@@@std@@IEAAXAEBV?$shared_ptr@VFrameSetPipeline@devices@libeYs3D@@@1@@Z
	??$_Copy_construct_from@VPipeline@devices@libeYs3D@@@?$_Ptr_base@VPipeline@devices@libeYs3D@@@std@@IEAAXAEBV?$shared_ptr@VPipeline@devices@libeYs3D@@@1@@Z
	??$_Copy_memmove@PEAEPEAE@std@@YAPEAEPEAE00@Z
	??$_Copy_memmove@PEAFPEAF@std@@YAPEAFPEAF00@Z
	??$_Copy_memmove@PEAGPEAG@std@@YAPEAGPEAG00@Z
	??$_Copy_memmove@PEAHPEAH@std@@YAPEAHPEAH00@Z
	??$_Copy_memmove@PEAMPEAM@std@@YAPEAMPEAM00@Z
	??$_Copy_memmove@PEAUCloudPoint@@PEAU1@@std@@YAPEAUCloudPoint@@PEAU1@00@Z
	??$_Copy_memmove@PEAUtagAPC_STREAM_INFO@@PEAU1@@std@@YAPEAUtagAPC_STREAM_INFO@@PEAU1@00@Z
	??$_Copy_memmove@PEBW4IMU_DATA_FORMAT@IMUDevice@devices@libeYs3D@@PEAW41234@@std@@YAPEAW4IMU_DATA_FORMAT@IMUDevice@devices@libeYs3D@@PEBW41234@0PEAW41234@@Z
	??$_Copy_unchecked1@PEAEPEAE@std@@YAPEAEPEAE00U_Trivially_copyable_ptr_iterator_tag@0@@Z
	??$_Copy_unchecked1@PEAMPEAM@std@@YAPEAMPEAM00U_Trivially_copyable_ptr_iterator_tag@0@@Z
	??$_Copy_unchecked1@PEAUCloudPoint@@PEAU1@@std@@YAPEAUCloudPoint@@PEAU1@00U_Trivially_copyable_ptr_iterator_tag@0@@Z
	??$_Copy_unchecked@PEAEPEAE@std@@YAPEAEPEAE00@Z
	??$_Copy_unchecked@PEAMPEAM@std@@YAPEAMPEAM00@Z
	??$_Copy_unchecked@PEAUCloudPoint@@PEAU1@@std@@YAPEAUCloudPoint@@PEAU1@00@Z
	??$_Deallocate@$07$0A@@std@@YAXPEAX_K@Z
	??$_Deallocate@$0BA@$0A@@std@@YAXPEAX_K@Z
	??$_Deallocate_plain@V?$allocator@U_Container_proxy@std@@@std@@$0A@@std@@YAXAEAV?$allocator@U_Container_proxy@std@@@0@QEAU_Container_proxy@0@@Z
	??$_Debug_lt_pred@AEAU?$less@H@std@@AEBHAEBH@std@@YA_NAEAU?$less@H@0@AEBH1@Z
	??$_Debug_lt_pred@AEAU?$less@U?$pair@GG@std@@@std@@AEBU?$pair@GG@2@AEBU32@@std@@YA_NAEAU?$less@U?$pair@GG@std@@@0@AEBU?$pair@GG@0@1@Z
	??$_Debug_lt_pred@AEAU?$less@UDeviceSellectInfo@libeYs3D@@@std@@AEBUDeviceSellectInfo@libeYs3D@@AEBU34@@std@@YA_NAEAU?$less@UDeviceSellectInfo@libeYs3D@@@0@AEBUDeviceSellectInfo@libeYs3D@@1@Z
	??$_Debug_lt_pred@AEAU?$less@W4IMUPacketSymbol@IMUData@@@std@@AEAW4IMUPacketSymbol@IMUData@@AEBW434@@std@@YA_NAEAU?$less@W4IMUPacketSymbol@IMUData@@@0@AEAW4IMUPacketSymbol@IMUData@@AEBW423@@Z
	??$_Debug_lt_pred@AEAU?$less@W4IMUPacketSymbol@IMUData@@@std@@AEBW4IMUPacketSymbol@IMUData@@AEBW434@@std@@YA_NAEAU?$less@W4IMUPacketSymbol@IMUData@@@0@AEBW4IMUPacketSymbol@IMUData@@1@Z
	??$_Debug_lt_pred@AEAU?$less@X@std@@AEAMAEAM@std@@YA_NAEAU?$less@X@0@AEAM1@Z
	??$_Debug_lt_pred@AEBU?$less@H@std@@AEBHAEBH@std@@YA_NAEBU?$less@H@0@AEBH1@Z
	??$_Debug_lt_pred@AEBU?$less@U?$pair@GG@std@@@std@@AEBU?$pair@GG@2@AEBU32@@std@@YA_NAEBU?$less@U?$pair@GG@std@@@0@AEBU?$pair@GG@0@1@Z
	??$_Debug_lt_pred@AEBU?$less@UDeviceSellectInfo@libeYs3D@@@std@@AEBUDeviceSellectInfo@libeYs3D@@AEBU34@@std@@YA_NAEBU?$less@UDeviceSellectInfo@libeYs3D@@@0@AEBUDeviceSellectInfo@libeYs3D@@1@Z
	??$_Debug_lt_pred@AEBU?$less@W4IMUPacketSymbol@IMUData@@@std@@AEBW4IMUPacketSymbol@IMUData@@AEBW434@@std@@YA_NAEBU?$less@W4IMUPacketSymbol@IMUData@@@0@AEBW4IMUPacketSymbol@IMUData@@1@Z
	??$_Destroy_range1@V?$allocator@E@std@@@std@@YAXPEAE0AEAV?$allocator@E@0@U?$integral_constant@_N$00@0@@Z
	??$_Destroy_range1@V?$allocator@F@std@@@std@@YAXPEAF0AEAV?$allocator@F@0@U?$integral_constant@_N$00@0@@Z
	??$_Destroy_range1@V?$allocator@G@std@@@std@@YAXPEAG0AEAV?$allocator@G@0@U?$integral_constant@_N$00@0@@Z
	??$_Destroy_range1@V?$allocator@H@std@@@std@@YAXPEAH0AEAV?$allocator@H@0@U?$integral_constant@_N$00@0@@Z
	??$_Destroy_range1@V?$allocator@M@std@@@std@@YAXPEAM0AEAV?$allocator@M@0@U?$integral_constant@_N$00@0@@Z
	??$_Destroy_range1@V?$allocator@UCloudPoint@@@std@@@std@@YAXPEAUCloudPoint@@0AEAV?$allocator@UCloudPoint@@@0@U?$integral_constant@_N$00@0@@Z
	??$_Destroy_range1@V?$allocator@UCommand@?$WorkerThread@V?$Optional@VCallbackWorkItem@sensors@libeYs3D@@@base@libeYs3D@@@base@libeYs3D@@@std@@@std@@YAXPEAUCommand@?$WorkerThread@V?$Optional@VCallbackWorkItem@sensors@libeYs3D@@@base@libeYs3D@@@base@libeYs3D@@0AEAV?$allocator@UCommand@?$WorkerThread@V?$Optional@VCallbackWorkItem@sensors@libeYs3D@@@base@libeYs3D@@@base@libeYs3D@@@0@U?$integral_constant@_N$0A@@0@@Z
	??$_Destroy_range1@V?$allocator@UCommand@?$WorkerThread@V?$Optional@VCallbackWorkItem@video@libeYs3D@@@base@libeYs3D@@@base@libeYs3D@@@std@@@std@@YAXPEAUCommand@?$WorkerThread@V?$Optional@VCallbackWorkItem@video@libeYs3D@@@base@libeYs3D@@@base@libeYs3D@@0AEAV?$allocator@UCommand@?$WorkerThread@V?$Optional@VCallbackWorkItem@video@libeYs3D@@@base@libeYs3D@@@base@libeYs3D@@@0@U?$integral_constant@_N$0A@@0@@Z
	??$_Destroy_range1@V?$allocator@UCommand@?$WorkerThread@V?$Optional@VDACalculateWorkItem@video@libeYs3D@@@base@libeYs3D@@@base@libeYs3D@@@std@@@std@@YAXPEAUCommand@?$WorkerThread@V?$Optional@VDACalculateWorkItem@video@libeYs3D@@@base@libeYs3D@@@base@libeYs3D@@0AEAV?$allocator@UCommand@?$WorkerThread@V?$Optional@VDACalculateWorkItem@video@libeYs3D@@@base@libeYs3D@@@base@libeYs3D@@@0@U?$integral_constant@_N$0A@@0@@Z
	??$_Destroy_range1@V?$allocator@UMODE_CONFIG@ModeConfig@@@std@@@std@@YAXPEAUMODE_CONFIG@ModeConfig@@0AEAV?$allocator@UMODE_CONFIG@ModeConfig@@@0@U?$integral_constant@_N$0A@@0@@Z
	??$_Destroy_range1@V?$allocator@USensorData@sensors@libeYs3D@@@std@@@std@@YAXPEAUSensorData@sensors@libeYs3D@@0AEAV?$allocator@USensorData@sensors@libeYs3D@@@0@U?$integral_constant@_N$00@0@@Z
	??$_Destroy_range1@V?$allocator@UtagAPC_STREAM_INFO@@@std@@@std@@YAXPEAUtagAPC_STREAM_INFO@@0AEAV?$allocator@UtagAPC_STREAM_INFO@@@0@U?$integral_constant@_N$00@0@@Z
	??$_Destroy_range1@V?$allocator@V?$Optional@V?$WorkerThread@V?$Optional@VCallbackWorkItem@sensors@libeYs3D@@@base@libeYs3D@@@base@libeYs3D@@@base@libeYs3D@@@std@@@std@@YAXPEAV?$Optional@V?$WorkerThread@V?$Optional@VCallbackWorkItem@sensors@libeYs3D@@@base@libeYs3D@@@base@libeYs3D@@@base@libeYs3D@@0AEAV?$allocator@V?$Optional@V?$WorkerThread@V?$Optional@VCallbackWorkItem@sensors@libeYs3D@@@base@libeYs3D@@@base@libeYs3D@@@base@libeYs3D@@@0@U?$integral_constant@_N$0A@@0@@Z
	??$_Destroy_range1@V?$allocator@V?$Optional@V?$WorkerThread@V?$Optional@VCallbackWorkItem@video@libeYs3D@@@base@libeYs3D@@@base@libeYs3D@@@base@libeYs3D@@@std@@@std@@YAXPEAV?$Optional@V?$WorkerThread@V?$Optional@VCallbackWorkItem@video@libeYs3D@@@base@libeYs3D@@@base@libeYs3D@@@base@libeYs3D@@0AEAV?$allocator@V?$Optional@V?$WorkerThread@V?$Optional@VCallbackWorkItem@video@libeYs3D@@@base@libeYs3D@@@base@libeYs3D@@@base@libeYs3D@@@0@U?$integral_constant@_N$0A@@0@@Z
	??$_Destroy_range1@V?$allocator@V?$Optional@V?$WorkerThread@V?$Optional@VDACalculateWorkItem@video@libeYs3D@@@base@libeYs3D@@@base@libeYs3D@@@base@libeYs3D@@@std@@@std@@YAXPEAV?$Optional@V?$WorkerThread@V?$Optional@VDACalculateWorkItem@video@libeYs3D@@@base@libeYs3D@@@base@libeYs3D@@@base@libeYs3D@@0AEAV?$allocator@V?$Optional@V?$WorkerThread@V?$Optional@VDACalculateWorkItem@video@libeYs3D@@@base@libeYs3D@@@base@libeYs3D@@@base@libeYs3D@@@0@U?$integral_constant@_N$0A@@0@@Z
	??$_Destroy_range1@V?$allocator@V?$basic_string@DU?$char_traits@D@std@@V?$allocator@D@2@@std@@@std@@@std@@YAXPEAV?$basic_string@DU?$char_traits@D@std@@V?$allocator@D@2@@0@0AEAV?$allocator@V?$basic_string@DU?$char_traits@D@std@@V?$allocator@D@2@@std@@@0@U?$integral_constant@_N$0A@@0@@Z
	??$_Destroy_range1@V?$allocator@W4IMU_DATA_FORMAT@IMUDevice@devices@libeYs3D@@@std@@@std@@YAXPEAW4IMU_DATA_FORMAT@IMUDevice@devices@libeYs3D@@0AEAV?$allocator@W4IMU_DATA_FORMAT@IMUDevice@devices@libeYs3D@@@0@U?$integral_constant@_N$00@0@@Z
	??$_Destroy_range@V?$allocator@E@std@@@std@@YAXPEAE0AEAV?$allocator@E@0@@Z
	??$_Destroy_range@V?$allocator@F@std@@@std@@YAXPEAF0AEAV?$allocator@F@0@@Z
	??$_Destroy_range@V?$allocator@G@std@@@std@@YAXPEAG0AEAV?$allocator@G@0@@Z
	??$_Destroy_range@V?$allocator@H@std@@@std@@YAXPEAH0AEAV?$allocator@H@0@@Z
	??$_Destroy_range@V?$allocator@M@std@@@std@@YAXPEAM0AEAV?$allocator@M@0@@Z
	??$_Destroy_range@V?$allocator@UCloudPoint@@@std@@@std@@YAXPEAUCloudPoint@@0AEAV?$allocator@UCloudPoint@@@0@@Z
	??$_Destroy_range@V?$allocator@UCommand@?$WorkerThread@V?$Optional@VCallbackWorkItem@sensors@libeYs3D@@@base@libeYs3D@@@base@libeYs3D@@@std@@@std@@YAXPEAUCommand@?$WorkerThread@V?$Optional@VCallbackWorkItem@sensors@libeYs3D@@@base@libeYs3D@@@base@libeYs3D@@0AEAV?$allocator@UCommand@?$WorkerThread@V?$Optional@VCallbackWorkItem@sensors@libeYs3D@@@base@libeYs3D@@@base@libeYs3D@@@0@@Z
	??$_Destroy_range@V?$allocator@UCommand@?$WorkerThread@V?$Optional@VCallbackWorkItem@video@libeYs3D@@@base@libeYs3D@@@base@libeYs3D@@@std@@@std@@YAXPEAUCommand@?$WorkerThread@V?$Optional@VCallbackWorkItem@video@libeYs3D@@@base@libeYs3D@@@base@libeYs3D@@0AEAV?$allocator@UCommand@?$WorkerThread@V?$Optional@VCallbackWorkItem@video@libeYs3D@@@base@libeYs3D@@@base@libeYs3D@@@0@@Z
	??$_Destroy_range@V?$allocator@UCommand@?$WorkerThread@V?$Optional@VDACalculateWorkItem@video@libeYs3D@@@base@libeYs3D@@@base@libeYs3D@@@std@@@std@@YAXPEAUCommand@?$WorkerThread@V?$Optional@VDACalculateWorkItem@video@libeYs3D@@@base@libeYs3D@@@base@libeYs3D@@0AEAV?$allocator@UCommand@?$WorkerThread@V?$Optional@VDACalculateWorkItem@video@libeYs3D@@@base@libeYs3D@@@base@libeYs3D@@@0@@Z
	??$_Destroy_range@V?$allocator@UMODE_CONFIG@ModeConfig@@@std@@@std@@YAXPEAUMODE_CONFIG@ModeConfig@@0AEAV?$allocator@UMODE_CONFIG@ModeConfig@@@0@@Z
	??$_Destroy_range@V?$allocator@USensorData@sensors@libeYs3D@@@std@@@std@@YAXPEAUSensorData@sensors@libeYs3D@@0AEAV?$allocator@USensorData@sensors@libeYs3D@@@0@@Z
	??$_Destroy_range@V?$allocator@UtagAPC_STREAM_INFO@@@std@@@std@@YAXPEAUtagAPC_STREAM_INFO@@0AEAV?$allocator@UtagAPC_STREAM_INFO@@@0@@Z
	??$_Destroy_range@V?$allocator@V?$Optional@V?$WorkerThread@V?$Optional@VCallbackWorkItem@sensors@libeYs3D@@@base@libeYs3D@@@base@libeYs3D@@@base@libeYs3D@@@std@@@std@@YAXPEAV?$Optional@V?$WorkerThread@V?$Optional@VCallbackWorkItem@sensors@libeYs3D@@@base@libeYs3D@@@base@libeYs3D@@@base@libeYs3D@@0AEAV?$allocator@V?$Optional@V?$WorkerThread@V?$Optional@VCallbackWorkItem@sensors@libeYs3D@@@base@libeYs3D@@@base@libeYs3D@@@base@libeYs3D@@@0@@Z
	??$_Destroy_range@V?$allocator@V?$Optional@V?$WorkerThread@V?$Optional@VCallbackWorkItem@video@libeYs3D@@@base@libeYs3D@@@base@libeYs3D@@@base@libeYs3D@@@std@@@std@@YAXPEAV?$Optional@V?$WorkerThread@V?$Optional@VCallbackWorkItem@video@libeYs3D@@@base@libeYs3D@@@base@libeYs3D@@@base@libeYs3D@@0AEAV?$allocator@V?$Optional@V?$WorkerThread@V?$Optional@VCallbackWorkItem@video@libeYs3D@@@base@libeYs3D@@@base@libeYs3D@@@base@libeYs3D@@@0@@Z
	??$_Destroy_range@V?$allocator@V?$Optional@V?$WorkerThread@V?$Optional@VDACalculateWorkItem@video@libeYs3D@@@base@libeYs3D@@@base@libeYs3D@@@base@libeYs3D@@@std@@@std@@YAXPEAV?$Optional@V?$WorkerThread@V?$Optional@VDACalculateWorkItem@video@libeYs3D@@@base@libeYs3D@@@base@libeYs3D@@@base@libeYs3D@@0AEAV?$allocator@V?$Optional@V?$WorkerThread@V?$Optional@VDACalculateWorkItem@video@libeYs3D@@@base@libeYs3D@@@base@libeYs3D@@@base@libeYs3D@@@0@@Z
	??$_Destroy_range@V?$allocator@V?$basic_string@DU?$char_traits@D@std@@V?$allocator@D@2@@std@@@std@@@std@@YAXPEAV?$basic_string@DU?$char_traits@D@std@@V?$allocator@D@2@@0@0AEAV?$allocator@V?$basic_string@DU?$char_traits@D@std@@V?$allocator@D@2@@std@@@0@@Z
	??$_Destroy_range@V?$allocator@W4IMU_DATA_FORMAT@IMUDevice@devices@libeYs3D@@@std@@@std@@YAXPEAW4IMU_DATA_FORMAT@IMUDevice@devices@libeYs3D@@0AEAV?$allocator@W4IMU_DATA_FORMAT@IMUDevice@devices@libeYs3D@@@0@@Z
	??$_Distance1@PEAE@std@@YA_JPEAE0Urandom_access_iterator_tag@0@@Z
	??$_Distance1@PEAM@std@@YA_JPEAM0Urandom_access_iterator_tag@0@@Z
	??$_Distance1@PEAUCloudPoint@@@std@@YA_JPEAUCloudPoint@@0Urandom_access_iterator_tag@0@@Z
	??$_Distance1@PEBW4IMU_DATA_FORMAT@IMUDevice@devices@libeYs3D@@@std@@YA_JPEBW4IMU_DATA_FORMAT@IMUDevice@devices@libeYs3D@@0Urandom_access_iterator_tag@0@@Z
	??$_Distance1@V?$_Tree_const_iterator@V?$_Tree_val@U?$_Tree_simple_types@U?$pair@$$CBU?$pair@GG@std@@V?$vector@V?$basic_string@DU?$char_traits@D@std@@V?$allocator@D@2@@std@@V?$allocator@V?$basic_string@DU?$char_traits@D@std@@V?$allocator@D@2@@std@@@2@@2@@std@@@std@@@std@@@std@@@std@@YA_JV?$_Tree_const_iterator@V?$_Tree_val@U?$_Tree_simple_types@U?$pair@$$CBU?$pair@GG@std@@V?$vector@V?$basic_string@DU?$char_traits@D@std@@V?$allocator@D@2@@std@@V?$allocator@V?$basic_string@DU?$char_traits@D@std@@V?$allocator@D@2@@std@@@2@@2@@std@@@std@@@std@@@0@0Uinput_iterator_tag@0@@Z
	??$_Emplace_back@$$V@?$_Uninitialized_backout_al@PEAUSensorData@sensors@libeYs3D@@V?$allocator@USensorData@sensors@libeYs3D@@@std@@@std@@QEAAXXZ
	??$_Emplace_back@$$V@?$_Uninitialized_backout_al@PEAV?$Optional@V?$WorkerThread@V?$Optional@VCallbackWorkItem@sensors@libeYs3D@@@base@libeYs3D@@@base@libeYs3D@@@base@libeYs3D@@V?$allocator@V?$Optional@V?$WorkerThread@V?$Optional@VCallbackWorkItem@sensors@libeYs3D@@@base@libeYs3D@@@base@libeYs3D@@@base@libeYs3D@@@std@@@std@@QEAAXXZ
	??$_Emplace_back@$$V@?$_Uninitialized_backout_al@PEAV?$Optional@V?$WorkerThread@V?$Optional@VCallbackWorkItem@video@libeYs3D@@@base@libeYs3D@@@base@libeYs3D@@@base@libeYs3D@@V?$allocator@V?$Optional@V?$WorkerThread@V?$Optional@VCallbackWorkItem@video@libeYs3D@@@base@libeYs3D@@@base@libeYs3D@@@base@libeYs3D@@@std@@@std@@QEAAXXZ
	??$_Emplace_back@$$V@?$_Uninitialized_backout_al@PEAV?$Optional@V?$WorkerThread@V?$Optional@VDACalculateWorkItem@video@libeYs3D@@@base@libeYs3D@@@base@libeYs3D@@@base@libeYs3D@@V?$allocator@V?$Optional@V?$WorkerThread@V?$Optional@VDACalculateWorkItem@video@libeYs3D@@@base@libeYs3D@@@base@libeYs3D@@@base@libeYs3D@@@std@@@std@@QEAAXXZ
	??$_Emplace_back@AEAUMODE_CONFIG@ModeConfig@@@?$_Uninitialized_backout_al@PEAUMODE_CONFIG@ModeConfig@@V?$allocator@UMODE_CONFIG@ModeConfig@@@std@@@std@@QEAAXAEAUMODE_CONFIG@ModeConfig@@@Z
	??$_Emplace_back@AEAV?$basic_string@DU?$char_traits@D@std@@V?$allocator@D@2@@std@@@?$_Uninitialized_backout_al@PEAV?$basic_string@DU?$char_traits@D@std@@V?$allocator@D@2@@std@@V?$allocator@V?$basic_string@DU?$char_traits@D@std@@V?$allocator@D@2@@std@@@2@@std@@QEAAXAEAV?$basic_string@DU?$char_traits@D@std@@V?$allocator@D@2@@1@@Z
	??$_Emplace_back@AEBF@?$_Uninitialized_backout_al@PEAFV?$allocator@F@std@@@std@@QEAAXAEBF@Z
	??$_Emplace_back@AEBG@?$_Uninitialized_backout_al@PEAGV?$allocator@G@std@@@std@@QEAAXAEBG@Z
	??$_Emplace_back@AEBM@?$_Uninitialized_backout_al@PEAMV?$allocator@M@std@@@std@@QEAAXAEBM@Z
	??$_Emplace_back@AEBUtagAPC_STREAM_INFO@@@?$_Uninitialized_backout_al@PEAUtagAPC_STREAM_INFO@@V?$allocator@UtagAPC_STREAM_INFO@@@std@@@std@@QEAAXAEBUtagAPC_STREAM_INFO@@@Z
	??$_Emplace_back@UCommand@?$WorkerThread@V?$Optional@VCallbackWorkItem@sensors@libeYs3D@@@base@libeYs3D@@@base@libeYs3D@@@?$_Uninitialized_backout_al@PEAUCommand@?$WorkerThread@V?$Optional@VCallbackWorkItem@sensors@libeYs3D@@@base@libeYs3D@@@base@libeYs3D@@V?$allocator@UCommand@?$WorkerThread@V?$Optional@VCallbackWorkItem@sensors@libeYs3D@@@base@libeYs3D@@@base@libeYs3D@@@std@@@std@@QEAAX$$QEAUCommand@?$WorkerThread@V?$Optional@VCallbackWorkItem@sensors@libeYs3D@@@base@libeYs3D@@@base@libeYs3D@@@Z
	??$_Emplace_back@UCommand@?$WorkerThread@V?$Optional@VCallbackWorkItem@video@libeYs3D@@@base@libeYs3D@@@base@libeYs3D@@@?$_Uninitialized_backout_al@PEAUCommand@?$WorkerThread@V?$Optional@VCallbackWorkItem@video@libeYs3D@@@base@libeYs3D@@@base@libeYs3D@@V?$allocator@UCommand@?$WorkerThread@V?$Optional@VCallbackWorkItem@video@libeYs3D@@@base@libeYs3D@@@base@libeYs3D@@@std@@@std@@QEAAX$$QEAUCommand@?$WorkerThread@V?$Optional@VCallbackWorkItem@video@libeYs3D@@@base@libeYs3D@@@base@libeYs3D@@@Z
	??$_Emplace_back@UCommand@?$WorkerThread@V?$Optional@VDACalculateWorkItem@video@libeYs3D@@@base@libeYs3D@@@base@libeYs3D@@@?$_Uninitialized_backout_al@PEAUCommand@?$WorkerThread@V?$Optional@VDACalculateWorkItem@video@libeYs3D@@@base@libeYs3D@@@base@libeYs3D@@V?$allocator@UCommand@?$WorkerThread@V?$Optional@VDACalculateWorkItem@video@libeYs3D@@@base@libeYs3D@@@base@libeYs3D@@@std@@@std@@QEAAX$$QEAUCommand@?$WorkerThread@V?$Optional@VDACalculateWorkItem@video@libeYs3D@@@base@libeYs3D@@@base@libeYs3D@@@Z
	??$_Emplace_back@UMODE_CONFIG@ModeConfig@@@?$_Uninitialized_backout_al@PEAUMODE_CONFIG@ModeConfig@@V?$allocator@UMODE_CONFIG@ModeConfig@@@std@@@std@@QEAAX$$QEAUMODE_CONFIG@ModeConfig@@@Z
	??$_Emplace_back@USensorData@sensors@libeYs3D@@@?$_Uninitialized_backout_al@PEAUSensorData@sensors@libeYs3D@@V?$allocator@USensorData@sensors@libeYs3D@@@std@@@std@@QEAAX$$QEAUSensorData@sensors@libeYs3D@@@Z
	??$_Emplace_back@V?$basic_string@DU?$char_traits@D@std@@V?$allocator@D@2@@std@@@?$_Uninitialized_backout_al@PEAV?$basic_string@DU?$char_traits@D@std@@V?$allocator@D@2@@std@@V?$allocator@V?$basic_string@DU?$char_traits@D@std@@V?$allocator@D@2@@std@@@2@@std@@QEAAX$$QEAV?$basic_string@DU?$char_traits@D@std@@V?$allocator@D@2@@1@@Z
	??$_Emplace_back_with_unused_capacity@AEBUCloudPoint@@@?$vector@UCloudPoint@@V?$allocator@UCloudPoint@@@std@@@std@@AEAAXAEBUCloudPoint@@@Z
	??$_Emplace_back_with_unused_capacity@AEBUMODE_CONFIG@ModeConfig@@@?$vector@UMODE_CONFIG@ModeConfig@@V?$allocator@UMODE_CONFIG@ModeConfig@@@std@@@std@@AEAAXAEBUMODE_CONFIG@ModeConfig@@@Z
	??$_Emplace_back_with_unused_capacity@AEBV?$basic_string@DU?$char_traits@D@std@@V?$allocator@D@2@@std@@@?$vector@V?$basic_string@DU?$char_traits@D@std@@V?$allocator@D@2@@std@@V?$allocator@V?$basic_string@DU?$char_traits@D@std@@V?$allocator@D@2@@std@@@2@@std@@AEAAXAEBV?$basic_string@DU?$char_traits@D@std@@V?$allocator@D@2@@1@@Z
	??$_Emplace_back_with_unused_capacity@H@?$vector@HV?$allocator@H@std@@@std@@AEAAX$$QEAH@Z
	??$_Emplace_back_with_unused_capacity@UCommand@?$WorkerThread@V?$Optional@VCallbackWorkItem@sensors@libeYs3D@@@base@libeYs3D@@@base@libeYs3D@@@?$vector@UCommand@?$WorkerThread@V?$Optional@VCallbackWorkItem@sensors@libeYs3D@@@base@libeYs3D@@@base@libeYs3D@@V?$allocator@UCommand@?$WorkerThread@V?$Optional@VCallbackWorkItem@sensors@libeYs3D@@@base@libeYs3D@@@base@libeYs3D@@@std@@@std@@AEAAX$$QEAUCommand@?$WorkerThread@V?$Optional@VCallbackWorkItem@sensors@libeYs3D@@@base@libeYs3D@@@base@libeYs3D@@@Z
	??$_Emplace_back_with_unused_capacity@UCommand@?$WorkerThread@V?$Optional@VCallbackWorkItem@video@libeYs3D@@@base@libeYs3D@@@base@libeYs3D@@@?$vector@UCommand@?$WorkerThread@V?$Optional@VCallbackWorkItem@video@libeYs3D@@@base@libeYs3D@@@base@libeYs3D@@V?$allocator@UCommand@?$WorkerThread@V?$Optional@VCallbackWorkItem@video@libeYs3D@@@base@libeYs3D@@@base@libeYs3D@@@std@@@std@@AEAAX$$QEAUCommand@?$WorkerThread@V?$Optional@VCallbackWorkItem@video@libeYs3D@@@base@libeYs3D@@@base@libeYs3D@@@Z
	??$_Emplace_back_with_unused_capacity@UCommand@?$WorkerThread@V?$Optional@VDACalculateWorkItem@video@libeYs3D@@@base@libeYs3D@@@base@libeYs3D@@@?$vector@UCommand@?$WorkerThread@V?$Optional@VDACalculateWorkItem@video@libeYs3D@@@base@libeYs3D@@@base@libeYs3D@@V?$allocator@UCommand@?$WorkerThread@V?$Optional@VDACalculateWorkItem@video@libeYs3D@@@base@libeYs3D@@@base@libeYs3D@@@std@@@std@@AEAAX$$QEAUCommand@?$WorkerThread@V?$Optional@VDACalculateWorkItem@video@libeYs3D@@@base@libeYs3D@@@base@libeYs3D@@@Z
	??$_Emplace_back_with_unused_capacity@UMODE_CONFIG@ModeConfig@@@?$vector@UMODE_CONFIG@ModeConfig@@V?$allocator@UMODE_CONFIG@ModeConfig@@@std@@@std@@AEAAX$$QEAUMODE_CONFIG@ModeConfig@@@Z
	??$_Emplace_reallocate@AEBUCloudPoint@@@?$vector@UCloudPoint@@V?$allocator@UCloudPoint@@@std@@@std@@QEAAPEAUCloudPoint@@QEAU2@AEBU2@@Z
	??$_Emplace_reallocate@AEBUMODE_CONFIG@ModeConfig@@@?$vector@UMODE_CONFIG@ModeConfig@@V?$allocator@UMODE_CONFIG@ModeConfig@@@std@@@std@@QEAAPEAUMODE_CONFIG@ModeConfig@@QEAU23@AEBU23@@Z
	??$_Emplace_reallocate@AEBV?$basic_string@DU?$char_traits@D@std@@V?$allocator@D@2@@std@@@?$vector@V?$basic_string@DU?$char_traits@D@std@@V?$allocator@D@2@@std@@V?$allocator@V?$basic_string@DU?$char_traits@D@std@@V?$allocator@D@2@@std@@@2@@std@@QEAAPEAV?$basic_string@DU?$char_traits@D@std@@V?$allocator@D@2@@1@QEAV21@AEBV21@@Z
	??$_Emplace_reallocate@H@?$vector@HV?$allocator@H@std@@@std@@QEAAPEAHQEAH$$QEAH@Z
	??$_Emplace_reallocate@UCommand@?$WorkerThread@V?$Optional@VCallbackWorkItem@sensors@libeYs3D@@@base@libeYs3D@@@base@libeYs3D@@@?$vector@UCommand@?$WorkerThread@V?$Optional@VCallbackWorkItem@sensors@libeYs3D@@@base@libeYs3D@@@base@libeYs3D@@V?$allocator@UCommand@?$WorkerThread@V?$Optional@VCallbackWorkItem@sensors@libeYs3D@@@base@libeYs3D@@@base@libeYs3D@@@std@@@std@@QEAAPEAUCommand@?$WorkerThread@V?$Optional@VCallbackWorkItem@sensors@libeYs3D@@@base@libeYs3D@@@base@libeYs3D@@QEAU2345@$$QEAU2345@@Z
	??$_Emplace_reallocate@UCommand@?$WorkerThread@V?$Optional@VCallbackWorkItem@video@libeYs3D@@@base@libeYs3D@@@base@libeYs3D@@@?$vector@UCommand@?$WorkerThread@V?$Optional@VCallbackWorkItem@video@libeYs3D@@@base@libeYs3D@@@base@libeYs3D@@V?$allocator@UCommand@?$WorkerThread@V?$Optional@VCallbackWorkItem@video@libeYs3D@@@base@libeYs3D@@@base@libeYs3D@@@std@@@std@@QEAAPEAUCommand@?$WorkerThread@V?$Optional@VCallbackWorkItem@video@libeYs3D@@@base@libeYs3D@@@base@libeYs3D@@QEAU2345@$$QEAU2345@@Z
	??$_Emplace_reallocate@UCommand@?$WorkerThread@V?$Optional@VDACalculateWorkItem@video@libeYs3D@@@base@libeYs3D@@@base@libeYs3D@@@?$vector@UCommand@?$WorkerThread@V?$Optional@VDACalculateWorkItem@video@libeYs3D@@@base@libeYs3D@@@base@libeYs3D@@V?$allocator@UCommand@?$WorkerThread@V?$Optional@VDACalculateWorkItem@video@libeYs3D@@@base@libeYs3D@@@base@libeYs3D@@@std@@@std@@QEAAPEAUCommand@?$WorkerThread@V?$Optional@VDACalculateWorkItem@video@libeYs3D@@@base@libeYs3D@@@base@libeYs3D@@QEAU2345@$$QEAU2345@@Z
	??$_Emplace_reallocate@UMODE_CONFIG@ModeConfig@@@?$vector@UMODE_CONFIG@ModeConfig@@V?$allocator@UMODE_CONFIG@ModeConfig@@@std@@@std@@QEAAPEAUMODE_CONFIG@ModeConfig@@QEAU23@$$QEAU23@@Z
	??$_Enable_shared_from_this1@VCameraDevice@devices@libeYs3D@@V123@@std@@YAXAEBV?$shared_ptr@VCameraDevice@devices@libeYs3D@@@0@PEAVCameraDevice@devices@libeYs3D@@U?$integral_constant@_N$0A@@0@@Z
	??$_Enable_shared_from_this1@VEYS3DSystem@libeYs3D@@V12@@std@@YAXAEBV?$shared_ptr@VEYS3DSystem@libeYs3D@@@0@PEAVEYS3DSystem@libeYs3D@@U?$integral_constant@_N$0A@@0@@Z
	??$_Enable_shared_from_this1@VFrameSetPipeline@devices@libeYs3D@@V123@@std@@YAXAEBV?$shared_ptr@VFrameSetPipeline@devices@libeYs3D@@@0@PEAVFrameSetPipeline@devices@libeYs3D@@U?$integral_constant@_N$0A@@0@@Z
	??$_Enable_shared_from_this1@VPipeline@devices@libeYs3D@@V123@@std@@YAXAEBV?$shared_ptr@VPipeline@devices@libeYs3D@@@0@PEAVPipeline@devices@libeYs3D@@U?$integral_constant@_N$0A@@0@@Z
	??$_Enable_shared_from_this@VCameraDevice@devices@libeYs3D@@V123@@std@@YAXAEBV?$shared_ptr@VCameraDevice@devices@libeYs3D@@@0@PEAVCameraDevice@devices@libeYs3D@@@Z
	??$_Enable_shared_from_this@VEYS3DSystem@libeYs3D@@V12@@std@@YAXAEBV?$shared_ptr@VEYS3DSystem@libeYs3D@@@0@PEAVEYS3DSystem@libeYs3D@@@Z
	??$_Enable_shared_from_this@VFrameSetPipeline@devices@libeYs3D@@V123@@std@@YAXAEBV?$shared_ptr@VFrameSetPipeline@devices@libeYs3D@@@0@PEAVFrameSetPipeline@devices@libeYs3D@@@Z
	??$_Enable_shared_from_this@VPipeline@devices@libeYs3D@@V123@@std@@YAXAEBV?$shared_ptr@VPipeline@devices@libeYs3D@@@0@PEAVPipeline@devices@libeYs3D@@@Z
	??$_Eqrange@U?$pair@GG@std@@@?$_Tree@V?$_Tmap_traits@U?$pair@GG@std@@V?$vector@V?$basic_string@DU?$char_traits@D@std@@V?$allocator@D@2@@std@@V?$allocator@V?$basic_string@DU?$char_traits@D@std@@V?$allocator@D@2@@std@@@2@@2@U?$less@U?$pair@GG@std@@@2@V?$allocator@U?$pair@$$CBU?$pair@GG@std@@V?$vector@V?$basic_string@DU?$char_traits@D@std@@V?$allocator@D@2@@std@@V?$allocator@V?$basic_string@DU?$char_traits@D@std@@V?$allocator@D@2@@std@@@2@@2@@std@@@2@$0A@@std@@@std@@IEBA?AU?$pair@V?$_Tree_const_iterator@V?$_Tree_val@U?$_Tree_simple_types@U?$pair@$$CBU?$pair@GG@std@@V?$vector@V?$basic_string@DU?$char_traits@D@std@@V?$allocator@D@2@@std@@V?$allocator@V?$basic_string@DU?$char_traits@D@std@@V?$allocator@D@2@@std@@@2@@2@@std@@@std@@@std@@@std@@V12@@1@AEBU?$pair@GG@1@@Z
	??$_Fgetc@D@std@@YA_NAEADPEAU_iobuf@@@Z
	??$_Fix@V?$tuple@$$QEAPEAVFrame@video@libeYs3D@@@std@@@?$_Select_fixer@PEAVDepthFrameProducer@video@libeYs3D@@$0A@$0A@$0A@@std@@SAAEAPEAVDepthFrameProducer@video@libeYs3D@@AEAPEAV234@$$QEAV?$tuple@$$QEAPEAVFrame@video@libeYs3D@@@1@@Z
	??$_Fix@V?$tuple@$$QEAPEAVFrame@video@libeYs3D@@@std@@@?$_Select_fixer@U?$_Ph@$00@std@@$0A@$0A@$00@std@@SA$$QEAPEAVFrame@video@libeYs3D@@AEAU?$_Ph@$00@1@$$QEAV?$tuple@$$QEAPEAVFrame@video@libeYs3D@@@1@@Z
	??$_Fix@V?$tuple@$$QEAPEBUSensorData@sensors@libeYs3D@@@std@@@?$_Select_fixer@PEAVPipeline@devices@libeYs3D@@$0A@$0A@$0A@@std@@SAAEAPEAVPipeline@devices@libeYs3D@@AEAPEAV234@$$QEAV?$tuple@$$QEAPEBUSensorData@sensors@libeYs3D@@@1@@Z
	??$_Fix@V?$tuple@$$QEAPEBUSensorData@sensors@libeYs3D@@@std@@@?$_Select_fixer@U?$_Ph@$00@std@@$0A@$0A@$00@std@@SA$$QEAPEBUSensorData@sensors@libeYs3D@@AEAU?$_Ph@$00@1@$$QEAV?$tuple@$$QEAPEBUSensorData@sensors@libeYs3D@@@1@@Z
	??$_Fix@V?$tuple@$$QEAPEBUSensorDataSet@sensors@libeYs3D@@@std@@@?$_Select_fixer@PEAVFrameProducer@video@libeYs3D@@$0A@$0A@$0A@@std@@SAAEAPEAVFrameProducer@video@libeYs3D@@AEAPEAV234@$$QEAV?$tuple@$$QEAPEBUSensorDataSet@sensors@libeYs3D@@@1@@Z
	??$_Fix@V?$tuple@$$QEAPEBUSensorDataSet@sensors@libeYs3D@@@std@@@?$_Select_fixer@PEAVSensorDataProducer@sensors@libeYs3D@@$0A@$0A@$0A@@std@@SAAEAPEAVSensorDataProducer@sensors@libeYs3D@@AEAPEAV234@$$QEAV?$tuple@$$QEAPEBUSensorDataSet@sensors@libeYs3D@@@1@@Z
	??$_Fix@V?$tuple@$$QEAPEBUSensorDataSet@sensors@libeYs3D@@@std@@@?$_Select_fixer@U?$_Ph@$00@std@@$0A@$0A@$00@std@@SA$$QEAPEBUSensorDataSet@sensors@libeYs3D@@AEAU?$_Ph@$00@1@$$QEAV?$tuple@$$QEAPEBUSensorDataSet@sensors@libeYs3D@@@1@@Z
	??$_Fix@V?$tuple@$$QEAPEBVFrame@video@libeYs3D@@@std@@@?$_Select_fixer@PEAVFrameProducer@video@libeYs3D@@$0A@$0A@$0A@@std@@SAAEAPEAVFrameProducer@video@libeYs3D@@AEAPEAV234@$$QEAV?$tuple@$$QEAPEBVFrame@video@libeYs3D@@@1@@Z
	??$_Fix@V?$tuple@$$QEAPEBVFrame@video@libeYs3D@@@std@@@?$_Select_fixer@PEAVFrameSetPipeline@devices@libeYs3D@@$0A@$0A@$0A@@std@@SAAEAPEAVFrameSetPipeline@devices@libeYs3D@@AEAPEAV234@$$QEAV?$tuple@$$QEAPEBVFrame@video@libeYs3D@@@1@@Z
	??$_Fix@V?$tuple@$$QEAPEBVFrame@video@libeYs3D@@@std@@@?$_Select_fixer@PEAVPCFrameProducer@video@libeYs3D@@$0A@$0A@$0A@@std@@SAAEAPEAVPCFrameProducer@video@libeYs3D@@AEAPEAV234@$$QEAV?$tuple@$$QEAPEBVFrame@video@libeYs3D@@@1@@Z
	??$_Fix@V?$tuple@$$QEAPEBVFrame@video@libeYs3D@@@std@@@?$_Select_fixer@PEAVPipeline@devices@libeYs3D@@$0A@$0A@$0A@@std@@SAAEAPEAVPipeline@devices@libeYs3D@@AEAPEAV234@$$QEAV?$tuple@$$QEAPEBVFrame@video@libeYs3D@@@1@@Z
	??$_Fix@V?$tuple@$$QEAPEBVFrame@video@libeYs3D@@@std@@@?$_Select_fixer@U?$_Ph@$00@std@@$0A@$0A@$00@std@@SA$$QEAPEBVFrame@video@libeYs3D@@AEAU?$_Ph@$00@1@$$QEAV?$tuple@$$QEAPEBVFrame@video@libeYs3D@@@1@@Z
	??$_Fix@V?$tuple@$$QEAPEBVPCFrame@video@libeYs3D@@@std@@@?$_Select_fixer@PEAVFrameSetPipeline@devices@libeYs3D@@$0A@$0A@$0A@@std@@SAAEAPEAVFrameSetPipeline@devices@libeYs3D@@AEAPEAV234@$$QEAV?$tuple@$$QEAPEBVPCFrame@video@libeYs3D@@@1@@Z
	??$_Fix@V?$tuple@$$QEAPEBVPCFrame@video@libeYs3D@@@std@@@?$_Select_fixer@PEAVPipeline@devices@libeYs3D@@$0A@$0A@$0A@@std@@SAAEAPEAVPipeline@devices@libeYs3D@@AEAPEAV234@$$QEAV?$tuple@$$QEAPEBVPCFrame@video@libeYs3D@@@1@@Z
	??$_Fix@V?$tuple@$$QEAPEBVPCFrame@video@libeYs3D@@@std@@@?$_Select_fixer@U?$_Ph@$00@std@@$0A@$0A@$00@std@@SA$$QEAPEBVPCFrame@video@libeYs3D@@AEAU?$_Ph@$00@1@$$QEAV?$tuple@$$QEAPEBVPCFrame@video@libeYs3D@@@1@@Z
	??$_Fix_arg@PEAVDepthFrameProducer@video@libeYs3D@@V?$tuple@$$QEAPEAVFrame@video@libeYs3D@@@std@@@std@@YAAEAPEAVDepthFrameProducer@video@libeYs3D@@AEAPEAV123@$$QEAV?$tuple@$$QEAPEAVFrame@video@libeYs3D@@@0@@Z
	??$_Fix_arg@PEAVFrameProducer@video@libeYs3D@@V?$tuple@$$QEAPEBUSensorDataSet@sensors@libeYs3D@@@std@@@std@@YAAEAPEAVFrameProducer@video@libeYs3D@@AEAPEAV123@$$QEAV?$tuple@$$QEAPEBUSensorDataSet@sensors@libeYs3D@@@0@@Z
	??$_Fix_arg@PEAVFrameProducer@video@libeYs3D@@V?$tuple@$$QEAPEBVFrame@video@libeYs3D@@@std@@@std@@YAAEAPEAVFrameProducer@video@libeYs3D@@AEAPEAV123@$$QEAV?$tuple@$$QEAPEBVFrame@video@libeYs3D@@@0@@Z
	??$_Fix_arg@PEAVFrameSetPipeline@devices@libeYs3D@@V?$tuple@$$QEAPEBVFrame@video@libeYs3D@@@std@@@std@@YAAEAPEAVFrameSetPipeline@devices@libeYs3D@@AEAPEAV123@$$QEAV?$tuple@$$QEAPEBVFrame@video@libeYs3D@@@0@@Z
	??$_Fix_arg@PEAVFrameSetPipeline@devices@libeYs3D@@V?$tuple@$$QEAPEBVPCFrame@video@libeYs3D@@@std@@@std@@YAAEAPEAVFrameSetPipeline@devices@libeYs3D@@AEAPEAV123@$$QEAV?$tuple@$$QEAPEBVPCFrame@video@libeYs3D@@@0@@Z
	??$_Fix_arg@PEAVPCFrameProducer@video@libeYs3D@@V?$tuple@$$QEAPEBVFrame@video@libeYs3D@@@std@@@std@@YAAEAPEAVPCFrameProducer@video@libeYs3D@@AEAPEAV123@$$QEAV?$tuple@$$QEAPEBVFrame@video@libeYs3D@@@0@@Z
	??$_Fix_arg@PEAVPipeline@devices@libeYs3D@@V?$tuple@$$QEAPEBUSensorData@sensors@libeYs3D@@@std@@@std@@YAAEAPEAVPipeline@devices@libeYs3D@@AEAPEAV123@$$QEAV?$tuple@$$QEAPEBUSensorData@sensors@libeYs3D@@@0@@Z
	??$_Fix_arg@PEAVPipeline@devices@libeYs3D@@V?$tuple@$$QEAPEBVFrame@video@libeYs3D@@@std@@@std@@YAAEAPEAVPipeline@devices@libeYs3D@@AEAPEAV123@$$QEAV?$tuple@$$QEAPEBVFrame@video@libeYs3D@@@0@@Z
	??$_Fix_arg@PEAVPipeline@devices@libeYs3D@@V?$tuple@$$QEAPEBVPCFrame@video@libeYs3D@@@std@@@std@@YAAEAPEAVPipeline@devices@libeYs3D@@AEAPEAV123@$$QEAV?$tuple@$$QEAPEBVPCFrame@video@libeYs3D@@@0@@Z
	??$_Fix_arg@PEAVSensorDataProducer@sensors@libeYs3D@@V?$tuple@$$QEAPEBUSensorDataSet@sensors@libeYs3D@@@std@@@std@@YAAEAPEAVSensorDataProducer@sensors@libeYs3D@@AEAPEAV123@$$QEAV?$tuple@$$QEAPEBUSensorDataSet@sensors@libeYs3D@@@0@@Z
	??$_Fix_arg@U?$_Ph@$00@std@@V?$tuple@$$QEAPEAVFrame@video@libeYs3D@@@2@@std@@YA$$QEAPEAVFrame@video@libeYs3D@@AEAU?$_Ph@$00@0@$$QEAV?$tuple@$$QEAPEAVFrame@video@libeYs3D@@@0@@Z
	??$_Fix_arg@U?$_Ph@$00@std@@V?$tuple@$$QEAPEBUSensorData@sensors@libeYs3D@@@2@@std@@YA$$QEAPEBUSensorData@sensors@libeYs3D@@AEAU?$_Ph@$00@0@$$QEAV?$tuple@$$QEAPEBUSensorData@sensors@libeYs3D@@@0@@Z
	??$_Fix_arg@U?$_Ph@$00@std@@V?$tuple@$$QEAPEBUSensorDataSet@sensors@libeYs3D@@@2@@std@@YA$$QEAPEBUSensorDataSet@sensors@libeYs3D@@AEAU?$_Ph@$00@0@$$QEAV?$tuple@$$QEAPEBUSensorDataSet@sensors@libeYs3D@@@0@@Z
	??$_Fix_arg@U?$_Ph@$00@std@@V?$tuple@$$QEAPEBVFrame@video@libeYs3D@@@2@@std@@YA$$QEAPEBVFrame@video@libeYs3D@@AEAU?$_Ph@$00@0@$$QEAV?$tuple@$$QEAPEBVFrame@video@libeYs3D@@@0@@Z
	??$_Fix_arg@U?$_Ph@$00@std@@V?$tuple@$$QEAPEBVPCFrame@video@libeYs3D@@@2@@std@@YA$$QEAPEBVPCFrame@video@libeYs3D@@AEAU?$_Ph@$00@0@$$QEAV?$tuple@$$QEAPEBVPCFrame@video@libeYs3D@@@0@@Z
	??$_Fputc@D@std@@YA_NDPEAU_iobuf@@@Z
	??$_Freenode0@V?$allocator@U?$_List_node@V?$vector@FV?$allocator@F@std@@@std@@PEAX@std@@@std@@@?$_List_node@V?$vector@FV?$allocator@F@std@@@std@@PEAX@std@@SAXAEAV?$allocator@U?$_List_node@V?$vector@FV?$allocator@F@std@@@std@@PEAX@std@@@1@PEAU01@@Z
	??$_Freenode0@V?$allocator@U?$_Tree_node@U?$pair@$$CBHH@std@@PEAX@std@@@std@@@?$_Tree_node@U?$pair@$$CBHH@std@@PEAX@std@@SAXAEAV?$allocator@U?$_Tree_node@U?$pair@$$CBHH@std@@PEAX@std@@@1@PEAU01@@Z
	??$_Freenode0@V?$allocator@U?$_Tree_node@U?$pair@$$CBHUPID_TABLE@ModeConfig@@@std@@PEAX@std@@@std@@@?$_Tree_node@U?$pair@$$CBHUPID_TABLE@ModeConfig@@@std@@PEAX@std@@SAXAEAV?$allocator@U?$_Tree_node@U?$pair@$$CBHUPID_TABLE@ModeConfig@@@std@@PEAX@std@@@1@PEAU01@@Z
	??$_Freenode0@V?$allocator@U?$_Tree_node@U?$pair@$$CBU?$pair@GG@std@@V?$vector@V?$basic_string@DU?$char_traits@D@std@@V?$allocator@D@2@@std@@V?$allocator@V?$basic_string@DU?$char_traits@D@std@@V?$allocator@D@2@@std@@@2@@2@@std@@PEAX@std@@@std@@@?$_Tree_node@U?$pair@$$CBU?$pair@GG@std@@V?$vector@V?$basic_string@DU?$char_traits@D@std@@V?$allocator@D@2@@std@@V?$allocator@V?$basic_string@DU?$char_traits@D@std@@V?$allocator@D@2@@std@@@2@@2@@std@@PEAX@std@@SAXAEAV?$allocator@U?$_Tree_node@U?$pair@$$CBU?$pair@GG@std@@V?$vector@V?$basic_string@DU?$char_traits@D@std@@V?$allocator@D@2@@std@@V?$allocator@V?$basic_string@DU?$char_traits@D@std@@V?$allocator@D@2@@std@@@2@@2@@std@@PEAX@std@@@1@PEAU01@@Z
	??$_Freenode0@V?$allocator@U?$_Tree_node@U?$pair@$$CBUDeviceSellectInfo@libeYs3D@@V?$shared_ptr@VCameraDevice@devices@libeYs3D@@@std@@@std@@PEAX@std@@@std@@@?$_Tree_node@U?$pair@$$CBUDeviceSellectInfo@libeYs3D@@V?$shared_ptr@VCameraDevice@devices@libeYs3D@@@std@@@std@@PEAX@std@@SAXAEAV?$allocator@U?$_Tree_node@U?$pair@$$CBUDeviceSellectInfo@libeYs3D@@V?$shared_ptr@VCameraDevice@devices@libeYs3D@@@std@@@std@@PEAX@std@@@1@PEAU01@@Z
	??$_Freenode0@V?$allocator@U?$_Tree_node@U?$pair@$$CBW4IMUPacketSymbol@IMUData@@_K@std@@PEAX@std@@@std@@@?$_Tree_node@U?$pair@$$CBW4IMUPacketSymbol@IMUData@@_K@std@@PEAX@std@@SAXAEAV?$allocator@U?$_Tree_node@U?$pair@$$CBW4IMUPacketSymbol@IMUData@@_K@std@@PEAX@std@@@1@PEAU01@@Z
	??$_Get_size_of_n@$00@std@@YA_K_K@Z
	??$_Get_size_of_n@$01@std@@YA_K_K@Z
	??$_Get_size_of_n@$03@std@@YA_K_K@Z
	??$_Get_size_of_n@$0BA@@std@@YA_K_K@Z
	??$_Get_size_of_n@$0CI@@std@@YA_K_K@Z
	??$_Get_size_of_n@$0DA@@std@@YA_K_K@Z
	??$_Get_size_of_n@$0DI@@std@@YA_K_K@Z
	??$_Get_size_of_n@$0EI@@std@@YA_K_K@Z
	??$_Get_size_of_n@$0FI@@std@@YA_K_K@Z
	??$_Get_size_of_n@$0HI@@std@@YA_K_K@Z
	??$_Get_size_of_n@$0JE@@std@@YA_K_K@Z
	??$_Get_size_of_n@$0M@@std@@YA_K_K@Z
	??$_Get_size_of_n@$0MI@@std@@YA_K_K@Z
	??$_Get_size_of_n@$0OI@@std@@YA_K_K@Z
	??$_Get_unwrapped@$$CBU?$pair@$$CBW4IMUPacketSymbol@IMUData@@_K@std@@@std@@YAPEBU?$pair@$$CBW4IMUPacketSymbol@IMUData@@_K@0@QEBU10@@Z
	??$_Get_unwrapped@$$CBW4IMU_DATA_FORMAT@IMUDevice@devices@libeYs3D@@@std@@YAPEBW4IMU_DATA_FORMAT@IMUDevice@devices@libeYs3D@@QEBW41234@@Z
	??$_Get_unwrapped@E@std@@YAPEAEQEAE@Z
	??$_Get_unwrapped@F@std@@YAPEAFQEAF@Z
	??$_Get_unwrapped@G@std@@YAPEAGQEAG@Z
	??$_Get_unwrapped@H@std@@YAPEAHQEAH@Z
	??$_Get_unwrapped@M@std@@YAPEAMQEAM@Z
	??$_Get_unwrapped@UCloudPoint@@@std@@YAPEAUCloudPoint@@QEAU1@@Z
	??$_Get_unwrapped@UCommand@?$WorkerThread@V?$Optional@VCallbackWorkItem@sensors@libeYs3D@@@base@libeYs3D@@@base@libeYs3D@@@std@@YAPEAUCommand@?$WorkerThread@V?$Optional@VCallbackWorkItem@sensors@libeYs3D@@@base@libeYs3D@@@base@libeYs3D@@QEAU1234@@Z
	??$_Get_unwrapped@UCommand@?$WorkerThread@V?$Optional@VCallbackWorkItem@video@libeYs3D@@@base@libeYs3D@@@base@libeYs3D@@@std@@YAPEAUCommand@?$WorkerThread@V?$Optional@VCallbackWorkItem@video@libeYs3D@@@base@libeYs3D@@@base@libeYs3D@@QEAU1234@@Z
	??$_Get_unwrapped@UCommand@?$WorkerThread@V?$Optional@VDACalculateWorkItem@video@libeYs3D@@@base@libeYs3D@@@base@libeYs3D@@@std@@YAPEAUCommand@?$WorkerThread@V?$Optional@VDACalculateWorkItem@video@libeYs3D@@@base@libeYs3D@@@base@libeYs3D@@QEAU1234@@Z
	??$_Get_unwrapped@UMODE_CONFIG@ModeConfig@@@std@@YAPEAUMODE_CONFIG@ModeConfig@@QEAU12@@Z
	??$_Get_unwrapped@USensorData@sensors@libeYs3D@@@std@@YAPEAUSensorData@sensors@libeYs3D@@QEAU123@@Z
	??$_Get_unwrapped@UtagAPC_STREAM_INFO@@@std@@YAPEAUtagAPC_STREAM_INFO@@QEAU1@@Z
	??$_Get_unwrapped@V?$_Vector_iterator@V?$_Vector_val@U?$_Simple_types@E@std@@@std@@@std@@$0A@@std@@YAPEAEAEBV?$_Vector_iterator@V?$_Vector_val@U?$_Simple_types@E@std@@@std@@@0@@Z
	??$_Get_unwrapped@V?$_Vector_iterator@V?$_Vector_val@U?$_Simple_types@M@std@@@std@@@std@@$0A@@std@@YAPEAMAEBV?$_Vector_iterator@V?$_Vector_val@U?$_Simple_types@M@std@@@std@@@0@@Z
	??$_Get_unwrapped@V?$_Vector_iterator@V?$_Vector_val@U?$_Simple_types@UCloudPoint@@@std@@@std@@@std@@$0A@@std@@YAPEAUCloudPoint@@AEBV?$_Vector_iterator@V?$_Vector_val@U?$_Simple_types@UCloudPoint@@@std@@@std@@@0@@Z
	??$_Get_unwrapped@V?$basic_string@DU?$char_traits@D@std@@V?$allocator@D@2@@std@@@std@@YAPEAV?$basic_string@DU?$char_traits@D@std@@V?$allocator@D@2@@0@QEAV10@@Z
	??$_Get_unwrapped_n@E_J$0A@@std@@YAPEAEQEAE_J@Z
	??$_Get_unwrapped_n@F_J$0A@@std@@YAPEAFQEAF_J@Z
	??$_Get_unwrapped_n@G_J$0A@@std@@YAPEAGQEAG_J@Z
	??$_Get_unwrapped_n@H_J$0A@@std@@YAPEAHQEAH_J@Z
	??$_Get_unwrapped_n@M_J$0A@@std@@YAPEAMQEAM_J@Z
	??$_Get_unwrapped_n@UCloudPoint@@_J$0A@@std@@YAPEAUCloudPoint@@QEAU1@_J@Z
	??$_Get_unwrapped_n@UCommand@?$WorkerThread@V?$Optional@VCallbackWorkItem@sensors@libeYs3D@@@base@libeYs3D@@@base@libeYs3D@@_J$0A@@std@@YAPEAUCommand@?$WorkerThread@V?$Optional@VCallbackWorkItem@sensors@libeYs3D@@@base@libeYs3D@@@base@libeYs3D@@QEAU1234@_J@Z
	??$_Get_unwrapped_n@UCommand@?$WorkerThread@V?$Optional@VCallbackWorkItem@video@libeYs3D@@@base@libeYs3D@@@base@libeYs3D@@_J$0A@@std@@YAPEAUCommand@?$WorkerThread@V?$Optional@VCallbackWorkItem@video@libeYs3D@@@base@libeYs3D@@@base@libeYs3D@@QEAU1234@_J@Z
	??$_Get_unwrapped_n@UCommand@?$WorkerThread@V?$Optional@VDACalculateWorkItem@video@libeYs3D@@@base@libeYs3D@@@base@libeYs3D@@_J$0A@@std@@YAPEAUCommand@?$WorkerThread@V?$Optional@VDACalculateWorkItem@video@libeYs3D@@@base@libeYs3D@@@base@libeYs3D@@QEAU1234@_J@Z
	??$_Get_unwrapped_n@UMODE_CONFIG@ModeConfig@@_J$0A@@std@@YAPEAUMODE_CONFIG@ModeConfig@@QEAU12@_J@Z
	??$_Get_unwrapped_n@USensorData@sensors@libeYs3D@@_J$0A@@std@@YAPEAUSensorData@sensors@libeYs3D@@QEAU123@_J@Z
	??$_Get_unwrapped_n@UtagAPC_STREAM_INFO@@_J$0A@@std@@YAPEAUtagAPC_STREAM_INFO@@QEAU1@_J@Z
	??$_Get_unwrapped_n@V?$basic_string@DU?$char_traits@D@std@@V?$allocator@D@2@@std@@_J$0A@@std@@YAPEAV?$basic_string@DU?$char_traits@D@std@@V?$allocator@D@2@@0@QEAV10@_J@Z
	??$_Get_unwrapped_n@W4IMU_DATA_FORMAT@IMUDevice@devices@libeYs3D@@_J$0A@@std@@YAPEAW4IMU_DATA_FORMAT@IMUDevice@devices@libeYs3D@@QEAW41234@_J@Z
	??$_Guess_median_unchecked@PEAMU?$less@X@std@@@std@@YAXPEAM00U?$less@X@0@@Z
	??$_Idl_distance1@PEAEPEAE@std@@YA_JAEBQEAE0Urandom_access_iterator_tag@0@@Z
	??$_Idl_distance1@PEAFPEAF@std@@YA_JAEBQEAF0Urandom_access_iterator_tag@0@@Z
	??$_Idl_distance1@PEAGPEAG@std@@YA_JAEBQEAG0Urandom_access_iterator_tag@0@@Z
	??$_Idl_distance1@PEAHPEAH@std@@YA_JAEBQEAH0Urandom_access_iterator_tag@0@@Z
	??$_Idl_distance1@PEAMPEAM@std@@YA_JAEBQEAM0Urandom_access_iterator_tag@0@@Z
	??$_Idl_distance1@PEAUCloudPoint@@PEAU1@@std@@YA_JAEBQEAUCloudPoint@@0Urandom_access_iterator_tag@0@@Z
	??$_Idl_distance1@PEAUCommand@?$WorkerThread@V?$Optional@VCallbackWorkItem@sensors@libeYs3D@@@base@libeYs3D@@@base@libeYs3D@@PEAU1234@@std@@YA_JAEBQEAUCommand@?$WorkerThread@V?$Optional@VCallbackWorkItem@sensors@libeYs3D@@@base@libeYs3D@@@base@libeYs3D@@0Urandom_access_iterator_tag@0@@Z
	??$_Idl_distance1@PEAUCommand@?$WorkerThread@V?$Optional@VCallbackWorkItem@video@libeYs3D@@@base@libeYs3D@@@base@libeYs3D@@PEAU1234@@std@@YA_JAEBQEAUCommand@?$WorkerThread@V?$Optional@VCallbackWorkItem@video@libeYs3D@@@base@libeYs3D@@@base@libeYs3D@@0Urandom_access_iterator_tag@0@@Z
	??$_Idl_distance1@PEAUCommand@?$WorkerThread@V?$Optional@VDACalculateWorkItem@video@libeYs3D@@@base@libeYs3D@@@base@libeYs3D@@PEAU1234@@std@@YA_JAEBQEAUCommand@?$WorkerThread@V?$Optional@VDACalculateWorkItem@video@libeYs3D@@@base@libeYs3D@@@base@libeYs3D@@0Urandom_access_iterator_tag@0@@Z
	??$_Idl_distance1@PEAUMODE_CONFIG@ModeConfig@@PEAU12@@std@@YA_JAEBQEAUMODE_CONFIG@ModeConfig@@0Urandom_access_iterator_tag@0@@Z
	??$_Idl_distance1@PEAUSensorData@sensors@libeYs3D@@PEAU123@@std@@YA_JAEBQEAUSensorData@sensors@libeYs3D@@0Urandom_access_iterator_tag@0@@Z
	??$_Idl_distance1@PEAUtagAPC_STREAM_INFO@@PEAU1@@std@@YA_JAEBQEAUtagAPC_STREAM_INFO@@0Urandom_access_iterator_tag@0@@Z
	??$_Idl_distance1@PEAV?$basic_string@DU?$char_traits@D@std@@V?$allocator@D@2@@std@@PEAV12@@std@@YA_JAEBQEAV?$basic_string@DU?$char_traits@D@std@@V?$allocator@D@2@@0@0Urandom_access_iterator_tag@0@@Z
	??$_Idl_distance1@PEBW4IMU_DATA_FORMAT@IMUDevice@devices@libeYs3D@@PEBW41234@@std@@YA_JAEBQEBW4IMU_DATA_FORMAT@IMUDevice@devices@libeYs3D@@0Urandom_access_iterator_tag@0@@Z
	??$_Idl_distance@PEAEPEAE@std@@YA_JAEBQEAE0@Z
	??$_Idl_distance@PEAFPEAF@std@@YA_JAEBQEAF0@Z
	??$_Idl_distance@PEAGPEAG@std@@YA_JAEBQEAG0@Z
	??$_Idl_distance@PEAHPEAH@std@@YA_JAEBQEAH0@Z
	??$_Idl_distance@PEAMPEAM@std@@YA_JAEBQEAM0@Z
	??$_Idl_distance@PEAUCloudPoint@@PEAU1@@std@@YA_JAEBQEAUCloudPoint@@0@Z
	??$_Idl_distance@PEAUCommand@?$WorkerThread@V?$Optional@VCallbackWorkItem@sensors@libeYs3D@@@base@libeYs3D@@@base@libeYs3D@@PEAU1234@@std@@YA_JAEBQEAUCommand@?$WorkerThread@V?$Optional@VCallbackWorkItem@sensors@libeYs3D@@@base@libeYs3D@@@base@libeYs3D@@0@Z
	??$_Idl_distance@PEAUCommand@?$WorkerThread@V?$Optional@VCallbackWorkItem@video@libeYs3D@@@base@libeYs3D@@@base@libeYs3D@@PEAU1234@@std@@YA_JAEBQEAUCommand@?$WorkerThread@V?$Optional@VCallbackWorkItem@video@libeYs3D@@@base@libeYs3D@@@base@libeYs3D@@0@Z
	??$_Idl_distance@PEAUCommand@?$WorkerThread@V?$Optional@VDACalculateWorkItem@video@libeYs3D@@@base@libeYs3D@@@base@libeYs3D@@PEAU1234@@std@@YA_JAEBQEAUCommand@?$WorkerThread@V?$Optional@VDACalculateWorkItem@video@libeYs3D@@@base@libeYs3D@@@base@libeYs3D@@0@Z
	??$_Idl_distance@PEAUMODE_CONFIG@ModeConfig@@PEAU12@@std@@YA_JAEBQEAUMODE_CONFIG@ModeConfig@@0@Z
	??$_Idl_distance@PEAUSensorData@sensors@libeYs3D@@PEAU123@@std@@YA_JAEBQEAUSensorData@sensors@libeYs3D@@0@Z
	??$_Idl_distance@PEAUtagAPC_STREAM_INFO@@PEAU1@@std@@YA_JAEBQEAUtagAPC_STREAM_INFO@@0@Z
	??$_Idl_distance@PEAV?$basic_string@DU?$char_traits@D@std@@V?$allocator@D@2@@std@@PEAV12@@std@@YA_JAEBQEAV?$basic_string@DU?$char_traits@D@std@@V?$allocator@D@2@@0@0@Z
	??$_Idl_distance@PEBW4IMU_DATA_FORMAT@IMUDevice@devices@libeYs3D@@PEBW41234@@std@@YA_JAEBQEBW4IMU_DATA_FORMAT@IMUDevice@devices@libeYs3D@@0@Z
	??$_Insert@$$V@?$list@V?$vector@FV?$allocator@F@std@@@std@@V?$allocator@V?$vector@FV?$allocator@F@std@@@std@@@2@@std@@QEAAXV?$_List_unchecked_const_iterator@V?$_List_val@U?$_List_simple_types@V?$vector@FV?$allocator@F@std@@@std@@@std@@@std@@U_Iterator_base0@2@@1@@Z
	??$_Insert_at@AEAU?$pair@$$CBHH@std@@PEAU?$_Tree_node@U?$pair@$$CBHH@std@@PEAX@2@@?$_Tree@V?$_Tmap_traits@HHU?$less@H@std@@V?$allocator@U?$pair@$$CBHH@std@@@2@$0A@@std@@@std@@IEAA?AV?$_Tree_iterator@V?$_Tree_val@U?$_Tree_simple_types@U?$pair@$$CBHH@std@@@std@@@std@@@1@_NPEAU?$_Tree_node@U?$pair@$$CBHH@std@@PEAX@1@AEAU?$pair@$$CBHH@1@1@Z
	??$_Insert_at@AEAU?$pair@$$CBHUPID_TABLE@ModeConfig@@@std@@PEAU?$_Tree_node@U?$pair@$$CBHUPID_TABLE@ModeConfig@@@std@@PEAX@2@@?$_Tree@V?$_Tmap_traits@HUPID_TABLE@ModeConfig@@U?$less@H@std@@V?$allocator@U?$pair@$$CBHUPID_TABLE@ModeConfig@@@std@@@4@$0A@@std@@@std@@IEAA?AV?$_Tree_iterator@V?$_Tree_val@U?$_Tree_simple_types@U?$pair@$$CBHUPID_TABLE@ModeConfig@@@std@@@std@@@std@@@1@_NPEAU?$_Tree_node@U?$pair@$$CBHUPID_TABLE@ModeConfig@@@std@@PEAX@1@AEAU?$pair@$$CBHUPID_TABLE@ModeConfig@@@1@1@Z
	??$_Insert_at@AEAU?$pair@$$CBU?$pair@GG@std@@V?$vector@V?$basic_string@DU?$char_traits@D@std@@V?$allocator@D@2@@std@@V?$allocator@V?$basic_string@DU?$char_traits@D@std@@V?$allocator@D@2@@std@@@2@@2@@std@@PEAU?$_Tree_node@U?$pair@$$CBU?$pair@GG@std@@V?$vector@V?$basic_string@DU?$char_traits@D@std@@V?$allocator@D@2@@std@@V?$allocator@V?$basic_string@DU?$char_traits@D@std@@V?$allocator@D@2@@std@@@2@@2@@std@@PEAX@2@@?$_Tree@V?$_Tmap_traits@U?$pair@GG@std@@V?$vector@V?$basic_string@DU?$char_traits@D@std@@V?$allocator@D@2@@std@@V?$allocator@V?$basic_string@DU?$char_traits@D@std@@V?$allocator@D@2@@std@@@2@@2@U?$less@U?$pair@GG@std@@@2@V?$allocator@U?$pair@$$CBU?$pair@GG@std@@V?$vector@V?$basic_string@DU?$char_traits@D@std@@V?$allocator@D@2@@std@@V?$allocator@V?$basic_string@DU?$char_traits@D@std@@V?$allocator@D@2@@std@@@2@@2@@std@@@2@$0A@@std@@@std@@IEAA?AV?$_Tree_iterator@V?$_Tree_val@U?$_Tree_simple_types@U?$pair@$$CBU?$pair@GG@std@@V?$vector@V?$basic_string@DU?$char_traits@D@std@@V?$allocator@D@2@@std@@V?$allocator@V?$basic_string@DU?$char_traits@D@std@@V?$allocator@D@2@@std@@@2@@2@@std@@@std@@@std@@@1@_NPEAU?$_Tree_node@U?$pair@$$CBU?$pair@GG@std@@V?$vector@V?$basic_string@DU?$char_traits@D@std@@V?$allocator@D@2@@std@@V?$allocator@V?$basic_string@DU?$char_traits@D@std@@V?$allocator@D@2@@std@@@2@@2@@std@@PEAX@1@AEAU?$pair@$$CBU?$pair@GG@std@@V?$vector@V?$basic_string@DU?$char_traits@D@std@@V?$allocator@D@2@@std@@V?$allocator@V?$basic_string@DU?$char_traits@D@std@@V?$allocator@D@2@@std@@@2@@2@@1@1@Z
	??$_Insert_at@AEAU?$pair@$$CBUDeviceSellectInfo@libeYs3D@@V?$shared_ptr@VCameraDevice@devices@libeYs3D@@@std@@@std@@PEAU?$_Tree_node@U?$pair@$$CBUDeviceSellectInfo@libeYs3D@@V?$shared_ptr@VCameraDevice@devices@libeYs3D@@@std@@@std@@PEAX@2@@?$_Tree@V?$_Tmap_traits@UDeviceSellectInfo@libeYs3D@@V?$shared_ptr@VCameraDevice@devices@libeYs3D@@@std@@U?$less@UDeviceSellectInfo@libeYs3D@@@4@V?$allocator@U?$pair@$$CBUDeviceSellectInfo@libeYs3D@@V?$shared_ptr@VCameraDevice@devices@libeYs3D@@@std@@@std@@@4@$0A@@std@@@std@@IEAA?AV?$_Tree_iterator@V?$_Tree_val@U?$_Tree_simple_types@U?$pair@$$CBUDeviceSellectInfo@libeYs3D@@V?$shared_ptr@VCameraDevice@devices@libeYs3D@@@std@@@std@@@std@@@std@@@1@_NPEAU?$_Tree_node@U?$pair@$$CBUDeviceSellectInfo@libeYs3D@@V?$shared_ptr@VCameraDevice@devices@libeYs3D@@@std@@@std@@PEAX@1@AEAU?$pair@$$CBUDeviceSellectInfo@libeYs3D@@V?$shared_ptr@VCameraDevice@devices@libeYs3D@@@std@@@1@1@Z
	??$_Insert_at@AEAU?$pair@$$CBW4IMUPacketSymbol@IMUData@@_K@std@@PEAU?$_Tree_node@U?$pair@$$CBW4IMUPacketSymbol@IMUData@@_K@std@@PEAX@2@@?$_Tree@V?$_Tmap_traits@W4IMUPacketSymbol@IMUData@@_KU?$less@W4IMUPacketSymbol@IMUData@@@std@@V?$allocator@U?$pair@$$CBW4IMUPacketSymbol@IMUData@@_K@std@@@4@$0A@@std@@@std@@IEAA?AV?$_Tree_iterator@V?$_Tree_val@U?$_Tree_simple_types@U?$pair@$$CBW4IMUPacketSymbol@IMUData@@_K@std@@@std@@@std@@@1@_NPEAU?$_Tree_node@U?$pair@$$CBW4IMUPacketSymbol@IMUData@@_K@std@@PEAX@1@AEAU?$pair@$$CBW4IMUPacketSymbol@IMUData@@_K@1@1@Z
	??$_Insert_hint@AEAU?$pair@$$CBHUPID_TABLE@ModeConfig@@@std@@PEAU?$_Tree_node@U?$pair@$$CBHUPID_TABLE@ModeConfig@@@std@@PEAX@2@@?$_Tree@V?$_Tmap_traits@HUPID_TABLE@ModeConfig@@U?$less@H@std@@V?$allocator@U?$pair@$$CBHUPID_TABLE@ModeConfig@@@std@@@4@$0A@@std@@@std@@IEAA?AV?$_Tree_iterator@V?$_Tree_val@U?$_Tree_simple_types@U?$pair@$$CBHUPID_TABLE@ModeConfig@@@std@@@std@@@std@@@1@V?$_Tree_const_iterator@V?$_Tree_val@U?$_Tree_simple_types@U?$pair@$$CBHUPID_TABLE@ModeConfig@@@std@@@std@@@std@@@1@AEAU?$pair@$$CBHUPID_TABLE@ModeConfig@@@1@PEAU?$_Tree_node@U?$pair@$$CBHUPID_TABLE@ModeConfig@@@std@@PEAX@1@@Z
	??$_Insert_hint@AEAU?$pair@$$CBU?$pair@GG@std@@V?$vector@V?$basic_string@DU?$char_traits@D@std@@V?$allocator@D@2@@std@@V?$allocator@V?$basic_string@DU?$char_traits@D@std@@V?$allocator@D@2@@std@@@2@@2@@std@@PEAU?$_Tree_node@U?$pair@$$CBU?$pair@GG@std@@V?$vector@V?$basic_string@DU?$char_traits@D@std@@V?$allocator@D@2@@std@@V?$allocator@V?$basic_string@DU?$char_traits@D@std@@V?$allocator@D@2@@std@@@2@@2@@std@@PEAX@2@@?$_Tree@V?$_Tmap_traits@U?$pair@GG@std@@V?$vector@V?$basic_string@DU?$char_traits@D@std@@V?$allocator@D@2@@std@@V?$allocator@V?$basic_string@DU?$char_traits@D@std@@V?$allocator@D@2@@std@@@2@@2@U?$less@U?$pair@GG@std@@@2@V?$allocator@U?$pair@$$CBU?$pair@GG@std@@V?$vector@V?$basic_string@DU?$char_traits@D@std@@V?$allocator@D@2@@std@@V?$allocator@V?$basic_string@DU?$char_traits@D@std@@V?$allocator@D@2@@std@@@2@@2@@std@@@2@$0A@@std@@@std@@IEAA?AV?$_Tree_iterator@V?$_Tree_val@U?$_Tree_simple_types@U?$pair@$$CBU?$pair@GG@std@@V?$vector@V?$basic_string@DU?$char_traits@D@std@@V?$allocator@D@2@@std@@V?$allocator@V?$basic_string@DU?$char_traits@D@std@@V?$allocator@D@2@@std@@@2@@2@@std@@@std@@@std@@@1@V?$_Tree_const_iterator@V?$_Tree_val@U?$_Tree_simple_types@U?$pair@$$CBU?$pair@GG@std@@V?$vector@V?$basic_string@DU?$char_traits@D@std@@V?$allocator@D@2@@std@@V?$allocator@V?$basic_string@DU?$char_traits@D@std@@V?$allocator@D@2@@std@@@2@@2@@std@@@std@@@std@@@1@AEAU?$pair@$$CBU?$pair@GG@std@@V?$vector@V?$basic_string@DU?$char_traits@D@std@@V?$allocator@D@2@@std@@V?$allocator@V?$basic_string@DU?$char_traits@D@std@@V?$allocator@D@2@@std@@@2@@2@@1@PEAU?$_Tree_node@U?$pair@$$CBU?$pair@GG@std@@V?$vector@V?$basic_string@DU?$char_traits@D@std@@V?$allocator@D@2@@std@@V?$allocator@V?$basic_string@DU?$char_traits@D@std@@V?$allocator@D@2@@std@@@2@@2@@std@@PEAX@1@@Z
	??$_Insert_hint@AEAU?$pair@$$CBUDeviceSellectInfo@libeYs3D@@V?$shared_ptr@VCameraDevice@devices@libeYs3D@@@std@@@std@@PEAU?$_Tree_node@U?$pair@$$CBUDeviceSellectInfo@libeYs3D@@V?$shared_ptr@VCameraDevice@devices@libeYs3D@@@std@@@std@@PEAX@2@@?$_Tree@V?$_Tmap_traits@UDeviceSellectInfo@libeYs3D@@V?$shared_ptr@VCameraDevice@devices@libeYs3D@@@std@@U?$less@UDeviceSellectInfo@libeYs3D@@@4@V?$allocator@U?$pair@$$CBUDeviceSellectInfo@libeYs3D@@V?$shared_ptr@VCameraDevice@devices@libeYs3D@@@std@@@std@@@4@$0A@@std@@@std@@IEAA?AV?$_Tree_iterator@V?$_Tree_val@U?$_Tree_simple_types@U?$pair@$$CBUDeviceSellectInfo@libeYs3D@@V?$shared_ptr@VCameraDevice@devices@libeYs3D@@@std@@@std@@@std@@@std@@@1@V?$_Tree_const_iterator@V?$_Tree_val@U?$_Tree_simple_types@U?$pair@$$CBUDeviceSellectInfo@libeYs3D@@V?$shared_ptr@VCameraDevice@devices@libeYs3D@@@std@@@std@@@std@@@std@@@1@AEAU?$pair@$$CBUDeviceSellectInfo@libeYs3D@@V?$shared_ptr@VCameraDevice@devices@libeYs3D@@@std@@@1@PEAU?$_Tree_node@U?$pair@$$CBUDeviceSellectInfo@libeYs3D@@V?$shared_ptr@VCameraDevice@devices@libeYs3D@@@std@@@std@@PEAX@1@@Z
	??$_Insert_hint@AEAU?$pair@$$CBW4IMUPacketSymbol@IMUData@@_K@std@@PEAU?$_Tree_node@U?$pair@$$CBW4IMUPacketSymbol@IMUData@@_K@std@@PEAX@2@@?$_Tree@V?$_Tmap_traits@W4IMUPacketSymbol@IMUData@@_KU?$less@W4IMUPacketSymbol@IMUData@@@std@@V?$allocator@U?$pair@$$CBW4IMUPacketSymbol@IMUData@@_K@std@@@4@$0A@@std@@@std@@IEAA?AV?$_Tree_iterator@V?$_Tree_val@U?$_Tree_simple_types@U?$pair@$$CBW4IMUPacketSymbol@IMUData@@_K@std@@@std@@@std@@@1@V?$_Tree_const_iterator@V?$_Tree_val@U?$_Tree_simple_types@U?$pair@$$CBW4IMUPacketSymbol@IMUData@@_K@std@@@std@@@std@@@1@AEAU?$pair@$$CBW4IMUPacketSymbol@IMUData@@_K@1@PEAU?$_Tree_node@U?$pair@$$CBW4IMUPacketSymbol@IMUData@@_K@std@@PEAX@1@@Z
	??$_Insert_nohint@AEAU?$pair@$$CBHH@std@@PEAU?$_Tree_node@U?$pair@$$CBHH@std@@PEAX@2@@?$_Tree@V?$_Tmap_traits@HHU?$less@H@std@@V?$allocator@U?$pair@$$CBHH@std@@@2@$0A@@std@@@std@@IEAA?AU?$pair@V?$_Tree_iterator@V?$_Tree_val@U?$_Tree_simple_types@U?$pair@$$CBHH@std@@@std@@@std@@@std@@_N@1@_NAEAU?$pair@$$CBHH@1@PEAU?$_Tree_node@U?$pair@$$CBHH@std@@PEAX@1@@Z
	??$_Insert_nohint@AEAU?$pair@$$CBHUPID_TABLE@ModeConfig@@@std@@PEAU?$_Tree_node@U?$pair@$$CBHUPID_TABLE@ModeConfig@@@std@@PEAX@2@@?$_Tree@V?$_Tmap_traits@HUPID_TABLE@ModeConfig@@U?$less@H@std@@V?$allocator@U?$pair@$$CBHUPID_TABLE@ModeConfig@@@std@@@4@$0A@@std@@@std@@IEAA?AU?$pair@V?$_Tree_iterator@V?$_Tree_val@U?$_Tree_simple_types@U?$pair@$$CBHUPID_TABLE@ModeConfig@@@std@@@std@@@std@@@std@@_N@1@_NAEAU?$pair@$$CBHUPID_TABLE@ModeConfig@@@1@PEAU?$_Tree_node@U?$pair@$$CBHUPID_TABLE@ModeConfig@@@std@@PEAX@1@@Z
	??$_Insert_nohint@AEAU?$pair@$$CBU?$pair@GG@std@@V?$vector@V?$basic_string@DU?$char_traits@D@std@@V?$allocator@D@2@@std@@V?$allocator@V?$basic_string@DU?$char_traits@D@std@@V?$allocator@D@2@@std@@@2@@2@@std@@PEAU?$_Tree_node@U?$pair@$$CBU?$pair@GG@std@@V?$vector@V?$basic_string@DU?$char_traits@D@std@@V?$allocator@D@2@@std@@V?$allocator@V?$basic_string@DU?$char_traits@D@std@@V?$allocator@D@2@@std@@@2@@2@@std@@PEAX@2@@?$_Tree@V?$_Tmap_traits@U?$pair@GG@std@@V?$vector@V?$basic_string@DU?$char_traits@D@std@@V?$allocator@D@2@@std@@V?$allocator@V?$basic_string@DU?$char_traits@D@std@@V?$allocator@D@2@@std@@@2@@2@U?$less@U?$pair@GG@std@@@2@V?$allocator@U?$pair@$$CBU?$pair@GG@std@@V?$vector@V?$basic_string@DU?$char_traits@D@std@@V?$allocator@D@2@@std@@V?$allocator@V?$basic_string@DU?$char_traits@D@std@@V?$allocator@D@2@@std@@@2@@2@@std@@@2@$0A@@std@@@std@@IEAA?AU?$pair@V?$_Tree_iterator@V?$_Tree_val@U?$_Tree_simple_types@U?$pair@$$CBU?$pair@GG@std@@V?$vector@V?$basic_string@DU?$char_traits@D@std@@V?$allocator@D@2@@std@@V?$allocator@V?$basic_string@DU?$char_traits@D@std@@V?$allocator@D@2@@std@@@2@@2@@std@@@std@@@std@@@std@@_N@1@_NAEAU?$pair@$$CBU?$pair@GG@std@@V?$vector@V?$basic_string@DU?$char_traits@D@std@@V?$allocator@D@2@@std@@V?$allocator@V?$basic_string@DU?$char_traits@D@std@@V?$allocator@D@2@@std@@@2@@2@@1@PEAU?$_Tree_node@U?$pair@$$CBU?$pair@GG@std@@V?$vector@V?$basic_string@DU?$char_traits@D@std@@V?$allocator@D@2@@std@@V?$allocator@V?$basic_string@DU?$char_traits@D@std@@V?$allocator@D@2@@std@@@2@@2@@std@@PEAX@1@@Z
	??$_Insert_nohint@AEAU?$pair@$$CBUDeviceSellectInfo@libeYs3D@@V?$shared_ptr@VCameraDevice@devices@libeYs3D@@@std@@@std@@PEAU?$_Tree_node@U?$pair@$$CBUDeviceSellectInfo@libeYs3D@@V?$shared_ptr@VCameraDevice@devices@libeYs3D@@@std@@@std@@PEAX@2@@?$_Tree@V?$_Tmap_traits@UDeviceSellectInfo@libeYs3D@@V?$shared_ptr@VCameraDevice@devices@libeYs3D@@@std@@U?$less@UDeviceSellectInfo@libeYs3D@@@4@V?$allocator@U?$pair@$$CBUDeviceSellectInfo@libeYs3D@@V?$shared_ptr@VCameraDevice@devices@libeYs3D@@@std@@@std@@@4@$0A@@std@@@std@@IEAA?AU?$pair@V?$_Tree_iterator@V?$_Tree_val@U?$_Tree_simple_types@U?$pair@$$CBUDeviceSellectInfo@libeYs3D@@V?$shared_ptr@VCameraDevice@devices@libeYs3D@@@std@@@std@@@std@@@std@@@std@@_N@1@_NAEAU?$pair@$$CBUDeviceSellectInfo@libeYs3D@@V?$shared_ptr@VCameraDevice@devices@libeYs3D@@@std@@@1@PEAU?$_Tree_node@U?$pair@$$CBUDeviceSellectInfo@libeYs3D@@V?$shared_ptr@VCameraDevice@devices@libeYs3D@@@std@@@std@@PEAX@1@@Z
	??$_Insert_nohint@AEAU?$pair@$$CBW4IMUPacketSymbol@IMUData@@_K@std@@PEAU?$_Tree_node@U?$pair@$$CBW4IMUPacketSymbol@IMUData@@_K@std@@PEAX@2@@?$_Tree@V?$_Tmap_traits@W4IMUPacketSymbol@IMUData@@_KU?$less@W4IMUPacketSymbol@IMUData@@@std@@V?$allocator@U?$pair@$$CBW4IMUPacketSymbol@IMUData@@_K@std@@@4@$0A@@std@@@std@@IEAA?AU?$pair@V?$_Tree_iterator@V?$_Tree_val@U?$_Tree_simple_types@U?$pair@$$CBW4IMUPacketSymbol@IMUData@@_K@std@@@std@@@std@@@std@@_N@1@_NAEAU?$pair@$$CBW4IMUPacketSymbol@IMUData@@_K@1@PEAU?$_Tree_node@U?$pair@$$CBW4IMUPacketSymbol@IMUData@@_K@std@@PEAX@1@@Z
	??$_Insert_range@PEAE@?$vector@EV?$allocator@E@std@@@std@@AEAAXV?$_Vector_const_iterator@V?$_Vector_val@U?$_Simple_types@E@std@@@std@@@1@PEAE1Uforward_iterator_tag@1@@Z
	??$_Insert_string@DU?$char_traits@D@std@@_K@std@@YAAEAV?$basic_ostream@DU?$char_traits@D@std@@@0@AEAV10@QEBD_K@Z
	??$_Insertion_sort_unchecked@PEAMU?$less@X@std@@@std@@YAPEAMPEAMQEAMU?$less@X@0@@Z
	??$_Kfn@$$CBHH@?$_Tmap_traits@HHU?$less@H@std@@V?$allocator@U?$pair@$$CBHH@std@@@2@$0A@@std@@SAAEBHAEBU?$pair@$$CBHH@1@@Z
	??$_Kfn@$$CBHUPID_TABLE@ModeConfig@@@?$_Tmap_traits@HUPID_TABLE@ModeConfig@@U?$less@H@std@@V?$allocator@U?$pair@$$CBHUPID_TABLE@ModeConfig@@@std@@@4@$0A@@std@@SAAEBHAEBU?$pair@$$CBHUPID_TABLE@ModeConfig@@@1@@Z
	??$_Kfn@$$CBU?$pair@GG@std@@V?$vector@V?$basic_string@DU?$char_traits@D@std@@V?$allocator@D@2@@std@@V?$allocator@V?$basic_string@DU?$char_traits@D@std@@V?$allocator@D@2@@std@@@2@@2@@?$_Tmap_traits@U?$pair@GG@std@@V?$vector@V?$basic_string@DU?$char_traits@D@std@@V?$allocator@D@2@@std@@V?$allocator@V?$basic_string@DU?$char_traits@D@std@@V?$allocator@D@2@@std@@@2@@2@U?$less@U?$pair@GG@std@@@2@V?$allocator@U?$pair@$$CBU?$pair@GG@std@@V?$vector@V?$basic_string@DU?$char_traits@D@std@@V?$allocator@D@2@@std@@V?$allocator@V?$basic_string@DU?$char_traits@D@std@@V?$allocator@D@2@@std@@@2@@2@@std@@@2@$0A@@std@@SAAEBU?$pair@GG@1@AEBU?$pair@$$CBU?$pair@GG@std@@V?$vector@V?$basic_string@DU?$char_traits@D@std@@V?$allocator@D@2@@std@@V?$allocator@V?$basic_string@DU?$char_traits@D@std@@V?$allocator@D@2@@std@@@2@@2@@1@@Z
	??$_Kfn@$$CBUDeviceSellectInfo@libeYs3D@@V?$shared_ptr@VCameraDevice@devices@libeYs3D@@@std@@@?$_Tmap_traits@UDeviceSellectInfo@libeYs3D@@V?$shared_ptr@VCameraDevice@devices@libeYs3D@@@std@@U?$less@UDeviceSellectInfo@libeYs3D@@@4@V?$allocator@U?$pair@$$CBUDeviceSellectInfo@libeYs3D@@V?$shared_ptr@VCameraDevice@devices@libeYs3D@@@std@@@std@@@4@$0A@@std@@SAAEBUDeviceSellectInfo@libeYs3D@@AEBU?$pair@$$CBUDeviceSellectInfo@libeYs3D@@V?$shared_ptr@VCameraDevice@devices@libeYs3D@@@std@@@1@@Z
	??$_Kfn@$$CBW4IMUPacketSymbol@IMUData@@_K@?$_Tmap_traits@W4IMUPacketSymbol@IMUData@@_KU?$less@W4IMUPacketSymbol@IMUData@@@std@@V?$allocator@U?$pair@$$CBW4IMUPacketSymbol@IMUData@@_K@std@@@4@$0A@@std@@SAAEBW4IMUPacketSymbol@IMUData@@AEBU?$pair@$$CBW4IMUPacketSymbol@IMUData@@_K@1@@Z
	??$_Lbound@H@?$_Tree@V?$_Tmap_traits@HUPID_TABLE@ModeConfig@@U?$less@H@std@@V?$allocator@U?$pair@$$CBHUPID_TABLE@ModeConfig@@@std@@@4@$0A@@std@@@std@@IEBAPEAU?$_Tree_node@U?$pair@$$CBHUPID_TABLE@ModeConfig@@@std@@PEAX@1@AEBH@Z
	??$_Lbound@U?$pair@GG@std@@@?$_Tree@V?$_Tmap_traits@U?$pair@GG@std@@V?$vector@V?$basic_string@DU?$char_traits@D@std@@V?$allocator@D@2@@std@@V?$allocator@V?$basic_string@DU?$char_traits@D@std@@V?$allocator@D@2@@std@@@2@@2@U?$less@U?$pair@GG@std@@@2@V?$allocator@U?$pair@$$CBU?$pair@GG@std@@V?$vector@V?$basic_string@DU?$char_traits@D@std@@V?$allocator@D@2@@std@@V?$allocator@V?$basic_string@DU?$char_traits@D@std@@V?$allocator@D@2@@std@@@2@@2@@std@@@2@$0A@@std@@@std@@IEBAPEAU?$_Tree_node@U?$pair@$$CBU?$pair@GG@std@@V?$vector@V?$basic_string@DU?$char_traits@D@std@@V?$allocator@D@2@@std@@V?$allocator@V?$basic_string@DU?$char_traits@D@std@@V?$allocator@D@2@@std@@@2@@2@@std@@PEAX@1@AEBU?$pair@GG@1@@Z
	??$_Lbound@UDeviceSellectInfo@libeYs3D@@@?$_Tree@V?$_Tmap_traits@UDeviceSellectInfo@libeYs3D@@V?$shared_ptr@VCameraDevice@devices@libeYs3D@@@std@@U?$less@UDeviceSellectInfo@libeYs3D@@@4@V?$allocator@U?$pair@$$CBUDeviceSellectInfo@libeYs3D@@V?$shared_ptr@VCameraDevice@devices@libeYs3D@@@std@@@std@@@4@$0A@@std@@@std@@IEBAPEAU?$_Tree_node@U?$pair@$$CBUDeviceSellectInfo@libeYs3D@@V?$shared_ptr@VCameraDevice@devices@libeYs3D@@@std@@@std@@PEAX@1@AEBUDeviceSellectInfo@libeYs3D@@@Z
	??$_Lbound@W4IMUPacketSymbol@IMUData@@@?$_Tree@V?$_Tmap_traits@W4IMUPacketSymbol@IMUData@@_KU?$less@W4IMUPacketSymbol@IMUData@@@std@@V?$allocator@U?$pair@$$CBW4IMUPacketSymbol@IMUData@@_K@std@@@4@$0A@@std@@@std@@IEBAPEAU?$_Tree_node@U?$pair@$$CBW4IMUPacketSymbol@IMUData@@_K@std@@PEAX@1@AEBW4IMUPacketSymbol@IMUData@@@Z
	??$_Make_heap_unchecked@PEAMU?$less@X@std@@@std@@YAXPEAM0U?$less@X@0@@Z
	??$_Max_value@PEAD@std@@YAAEBQEADAEBQEAD0@Z
	??$_Max_value@_K@std@@YAAEB_KAEB_K0@Z
	??$_Med3_unchecked@PEAMU?$less@X@std@@@std@@YAXPEAM00U?$less@X@0@@Z
	??$_Min_value@_K@std@@YAAEB_KAEB_K0@Z
	??$_Move_backward_unchecked1@PEAEPEAE@std@@YAPEAEPEAE00U_Trivially_copyable_ptr_iterator_tag@0@@Z
	??$_Move_backward_unchecked1@PEAMPEAM@std@@YAPEAMPEAM00U_Trivially_copyable_ptr_iterator_tag@0@@Z
	??$_Move_backward_unchecked@PEAEPEAE@std@@YAPEAEPEAE00@Z
	??$_Move_backward_unchecked@PEAMPEAM@std@@YAPEAMPEAM00@Z
	??$_Move_construct_from@VFrameSetPipeline@devices@libeYs3D@@@?$_Ptr_base@VFrameSetPipeline@devices@libeYs3D@@@std@@IEAAX$$QEAV01@@Z
	??$_Move_construct_from@VPipeline@devices@libeYs3D@@@?$_Ptr_base@VPipeline@devices@libeYs3D@@@std@@IEAAX$$QEAV01@@Z
	??$_Move_unchecked1@PEAEPEAE@std@@YAPEAEPEAE00U_Trivially_copyable_ptr_iterator_tag@0@@Z
	??$_Move_unchecked1@PEAUtagAPC_STREAM_INFO@@PEAU1@@std@@YAPEAUtagAPC_STREAM_INFO@@PEAU1@00U_Trivially_copyable_ptr_iterator_tag@0@@Z
	??$_Move_unchecked@PEAEPEAE@std@@YAPEAEPEAE00@Z
	??$_Move_unchecked@PEAUtagAPC_STREAM_INFO@@PEAU1@@std@@YAPEAUtagAPC_STREAM_INFO@@PEAU1@00@Z
	??$_Partition_by_median_guess_unchecked@PEAMU?$less@X@std@@@std@@YA?AU?$pair@PEAMPEAM@0@PEAM0U?$less@X@0@@Z
	??$_Pass_fn@U?$less@X@std@@$0A@@std@@YA?AU?$less@X@0@U10@@Z
	??$_Pocca@V?$allocator@E@std@@@std@@YAXAEAV?$allocator@E@0@AEBV10@@Z
	??$_Pocca@V?$allocator@E@std@@@std@@YAXAEAV?$allocator@E@0@AEBV10@U?$integral_constant@_N$0A@@0@@Z
	??$_Pocma@V?$allocator@E@std@@@std@@YAXAEAV?$allocator@E@0@0@Z
	??$_Pocma@V?$allocator@E@std@@@std@@YAXAEAV?$allocator@E@0@0U?$integral_constant@_N$00@0@@Z
	??$_Pocma@V?$allocator@G@std@@@std@@YAXAEAV?$allocator@G@0@0@Z
	??$_Pocma@V?$allocator@G@std@@@std@@YAXAEAV?$allocator@G@0@0U?$integral_constant@_N$00@0@@Z
	??$_Pocma@V?$allocator@M@std@@@std@@YAXAEAV?$allocator@M@0@0@Z
	??$_Pocma@V?$allocator@M@std@@@std@@YAXAEAV?$allocator@M@0@0U?$integral_constant@_N$00@0@@Z
	??$_Pocma@V?$allocator@USensorData@sensors@libeYs3D@@@std@@@std@@YAXAEAV?$allocator@USensorData@sensors@libeYs3D@@@0@0@Z
	??$_Pocma@V?$allocator@USensorData@sensors@libeYs3D@@@std@@@std@@YAXAEAV?$allocator@USensorData@sensors@libeYs3D@@@0@0U?$integral_constant@_N$00@0@@Z
	??$_Pocma@V?$allocator@V?$Optional@V?$WorkerThread@V?$Optional@VCallbackWorkItem@sensors@libeYs3D@@@base@libeYs3D@@@base@libeYs3D@@@base@libeYs3D@@@std@@@std@@YAXAEAV?$allocator@V?$Optional@V?$WorkerThread@V?$Optional@VCallbackWorkItem@sensors@libeYs3D@@@base@libeYs3D@@@base@libeYs3D@@@base@libeYs3D@@@0@0@Z
	??$_Pocma@V?$allocator@V?$Optional@V?$WorkerThread@V?$Optional@VCallbackWorkItem@sensors@libeYs3D@@@base@libeYs3D@@@base@libeYs3D@@@base@libeYs3D@@@std@@@std@@YAXAEAV?$allocator@V?$Optional@V?$WorkerThread@V?$Optional@VCallbackWorkItem@sensors@libeYs3D@@@base@libeYs3D@@@base@libeYs3D@@@base@libeYs3D@@@0@0U?$integral_constant@_N$00@0@@Z
	??$_Pocma@V?$allocator@V?$Optional@V?$WorkerThread@V?$Optional@VCallbackWorkItem@video@libeYs3D@@@base@libeYs3D@@@base@libeYs3D@@@base@libeYs3D@@@std@@@std@@YAXAEAV?$allocator@V?$Optional@V?$WorkerThread@V?$Optional@VCallbackWorkItem@video@libeYs3D@@@base@libeYs3D@@@base@libeYs3D@@@base@libeYs3D@@@0@0@Z
	??$_Pocma@V?$allocator@V?$Optional@V?$WorkerThread@V?$Optional@VCallbackWorkItem@video@libeYs3D@@@base@libeYs3D@@@base@libeYs3D@@@base@libeYs3D@@@std@@@std@@YAXAEAV?$allocator@V?$Optional@V?$WorkerThread@V?$Optional@VCallbackWorkItem@video@libeYs3D@@@base@libeYs3D@@@base@libeYs3D@@@base@libeYs3D@@@0@0U?$integral_constant@_N$00@0@@Z
	??$_Pocma@V?$allocator@V?$Optional@V?$WorkerThread@V?$Optional@VDACalculateWorkItem@video@libeYs3D@@@base@libeYs3D@@@base@libeYs3D@@@base@libeYs3D@@@std@@@std@@YAXAEAV?$allocator@V?$Optional@V?$WorkerThread@V?$Optional@VDACalculateWorkItem@video@libeYs3D@@@base@libeYs3D@@@base@libeYs3D@@@base@libeYs3D@@@0@0@Z
	??$_Pocma@V?$allocator@V?$Optional@V?$WorkerThread@V?$Optional@VDACalculateWorkItem@video@libeYs3D@@@base@libeYs3D@@@base@libeYs3D@@@base@libeYs3D@@@std@@@std@@YAXAEAV?$allocator@V?$Optional@V?$WorkerThread@V?$Optional@VDACalculateWorkItem@video@libeYs3D@@@base@libeYs3D@@@base@libeYs3D@@@base@libeYs3D@@@0@0U?$integral_constant@_N$00@0@@Z
	??$_Pocma@V?$allocator@V?$basic_string@DU?$char_traits@D@std@@V?$allocator@D@2@@std@@@std@@@std@@YAXAEAV?$allocator@V?$basic_string@DU?$char_traits@D@std@@V?$allocator@D@2@@std@@@0@0@Z
	??$_Pocma@V?$allocator@V?$basic_string@DU?$char_traits@D@std@@V?$allocator@D@2@@std@@@std@@@std@@YAXAEAV?$allocator@V?$basic_string@DU?$char_traits@D@std@@V?$allocator@D@2@@std@@@0@0U?$integral_constant@_N$00@0@@Z
	??$_Pocs@V?$allocator@UCommand@?$WorkerThread@V?$Optional@VCallbackWorkItem@sensors@libeYs3D@@@base@libeYs3D@@@base@libeYs3D@@@std@@@std@@YAXAEAV?$allocator@UCommand@?$WorkerThread@V?$Optional@VCallbackWorkItem@sensors@libeYs3D@@@base@libeYs3D@@@base@libeYs3D@@@0@0@Z
	??$_Pocs@V?$allocator@UCommand@?$WorkerThread@V?$Optional@VCallbackWorkItem@sensors@libeYs3D@@@base@libeYs3D@@@base@libeYs3D@@@std@@@std@@YAXAEAV?$allocator@UCommand@?$WorkerThread@V?$Optional@VCallbackWorkItem@sensors@libeYs3D@@@base@libeYs3D@@@base@libeYs3D@@@0@0U?$integral_constant@_N$0A@@0@@Z
	??$_Pocs@V?$allocator@UCommand@?$WorkerThread@V?$Optional@VCallbackWorkItem@video@libeYs3D@@@base@libeYs3D@@@base@libeYs3D@@@std@@@std@@YAXAEAV?$allocator@UCommand@?$WorkerThread@V?$Optional@VCallbackWorkItem@video@libeYs3D@@@base@libeYs3D@@@base@libeYs3D@@@0@0@Z
	??$_Pocs@V?$allocator@UCommand@?$WorkerThread@V?$Optional@VCallbackWorkItem@video@libeYs3D@@@base@libeYs3D@@@base@libeYs3D@@@std@@@std@@YAXAEAV?$allocator@UCommand@?$WorkerThread@V?$Optional@VCallbackWorkItem@video@libeYs3D@@@base@libeYs3D@@@base@libeYs3D@@@0@0U?$integral_constant@_N$0A@@0@@Z
	??$_Pocs@V?$allocator@UCommand@?$WorkerThread@V?$Optional@VDACalculateWorkItem@video@libeYs3D@@@base@libeYs3D@@@base@libeYs3D@@@std@@@std@@YAXAEAV?$allocator@UCommand@?$WorkerThread@V?$Optional@VDACalculateWorkItem@video@libeYs3D@@@base@libeYs3D@@@base@libeYs3D@@@0@0@Z
	??$_Pocs@V?$allocator@UCommand@?$WorkerThread@V?$Optional@VDACalculateWorkItem@video@libeYs3D@@@base@libeYs3D@@@base@libeYs3D@@@std@@@std@@YAXAEAV?$allocator@UCommand@?$WorkerThread@V?$Optional@VDACalculateWorkItem@video@libeYs3D@@@base@libeYs3D@@@base@libeYs3D@@@0@0U?$integral_constant@_N$0A@@0@@Z
	??$_Pop_heap_hole_by_index@PEAMMU?$less@X@std@@@std@@YAXPEAM_J1$$QEAMU?$less@X@0@@Z
	??$_Pop_heap_hole_unchecked@PEAMMU?$less@X@std@@@std@@YAXPEAM00$$QEAMU?$less@X@0@@Z
	??$_Pop_heap_unchecked@PEAMU?$less@X@std@@@std@@YAXPEAM0U?$less@X@0@@Z
	??$_Ptr_copy_cat@$$CBW4IMU_DATA_FORMAT@IMUDevice@devices@libeYs3D@@W41234@@std@@YA?AU_Really_trivial_ptr_iterator_tag@0@AEBQEBW4IMU_DATA_FORMAT@IMUDevice@devices@libeYs3D@@AEBQEAW42345@@Z
	??$_Ptr_copy_cat@EE@std@@YA?AU_Really_trivial_ptr_iterator_tag@0@AEBQEAE0@Z
	??$_Ptr_copy_cat@HH@std@@YA?AU_Really_trivial_ptr_iterator_tag@0@AEBQEAH0@Z
	??$_Ptr_copy_cat@MM@std@@YA?AU_Really_trivial_ptr_iterator_tag@0@AEBQEAM0@Z
	??$_Ptr_copy_cat@UCloudPoint@@U1@@std@@YA?AU_Really_trivial_ptr_iterator_tag@0@AEBQEAUCloudPoint@@0@Z
	??$_Ptr_copy_cat@UMODE_CONFIG@ModeConfig@@U12@@std@@YA?AU_General_ptr_iterator_tag@0@AEBQEAUMODE_CONFIG@ModeConfig@@0@Z
	??$_Ptr_copy_cat@V?$basic_string@DU?$char_traits@D@std@@V?$allocator@D@2@@std@@V12@@std@@YA?AU_General_ptr_iterator_tag@0@AEBQEAV?$basic_string@DU?$char_traits@D@std@@V?$allocator@D@2@@0@0@Z
	??$_Ptr_move_cat@EE@std@@YA?AU_Really_trivial_ptr_iterator_tag@0@AEBQEAE0@Z
	??$_Ptr_move_cat@FF@std@@YA?AU_Really_trivial_ptr_iterator_tag@0@AEBQEAF0@Z
	??$_Ptr_move_cat@GG@std@@YA?AU_Really_trivial_ptr_iterator_tag@0@AEBQEAG0@Z
	??$_Ptr_move_cat@HH@std@@YA?AU_Really_trivial_ptr_iterator_tag@0@AEBQEAH0@Z
	??$_Ptr_move_cat@MM@std@@YA?AU_Really_trivial_ptr_iterator_tag@0@AEBQEAM0@Z
	??$_Ptr_move_cat@UCloudPoint@@U1@@std@@YA?AU_Really_trivial_ptr_iterator_tag@0@AEBQEAUCloudPoint@@0@Z
	??$_Ptr_move_cat@UCommand@?$WorkerThread@V?$Optional@VCallbackWorkItem@sensors@libeYs3D@@@base@libeYs3D@@@base@libeYs3D@@U1234@@std@@YA?AU_General_ptr_iterator_tag@0@AEBQEAUCommand@?$WorkerThread@V?$Optional@VCallbackWorkItem@sensors@libeYs3D@@@base@libeYs3D@@@base@libeYs3D@@0@Z
	??$_Ptr_move_cat@UCommand@?$WorkerThread@V?$Optional@VCallbackWorkItem@video@libeYs3D@@@base@libeYs3D@@@base@libeYs3D@@U1234@@std@@YA?AU_General_ptr_iterator_tag@0@AEBQEAUCommand@?$WorkerThread@V?$Optional@VCallbackWorkItem@video@libeYs3D@@@base@libeYs3D@@@base@libeYs3D@@0@Z
	??$_Ptr_move_cat@UCommand@?$WorkerThread@V?$Optional@VDACalculateWorkItem@video@libeYs3D@@@base@libeYs3D@@@base@libeYs3D@@U1234@@std@@YA?AU_General_ptr_iterator_tag@0@AEBQEAUCommand@?$WorkerThread@V?$Optional@VDACalculateWorkItem@video@libeYs3D@@@base@libeYs3D@@@base@libeYs3D@@0@Z
	??$_Ptr_move_cat@UMODE_CONFIG@ModeConfig@@U12@@std@@YA?AU_General_ptr_iterator_tag@0@AEBQEAUMODE_CONFIG@ModeConfig@@0@Z
	??$_Ptr_move_cat@USensorData@sensors@libeYs3D@@U123@@std@@YA?AU_General_ptr_iterator_tag@0@AEBQEAUSensorData@sensors@libeYs3D@@0@Z
	??$_Ptr_move_cat@UtagAPC_STREAM_INFO@@U1@@std@@YA?AU_Really_trivial_ptr_iterator_tag@0@AEBQEAUtagAPC_STREAM_INFO@@0@Z
	??$_Ptr_move_cat@V?$basic_string@DU?$char_traits@D@std@@V?$allocator@D@2@@std@@V12@@std@@YA?AU_General_ptr_iterator_tag@0@AEBQEAV?$basic_string@DU?$char_traits@D@std@@V?$allocator@D@2@@0@0@Z
	??$_Push_heap_by_index@PEAMMU?$less@X@std@@@std@@YAXPEAM_J1$$QEAMU?$less@X@0@@Z
	??$_Range_construct_or_tidy@PEBW4IMU_DATA_FORMAT@IMUDevice@devices@libeYs3D@@@?$vector@W4IMU_DATA_FORMAT@IMUDevice@devices@libeYs3D@@V?$allocator@W4IMU_DATA_FORMAT@IMUDevice@devices@libeYs3D@@@std@@@std@@AEAAXPEBW4IMU_DATA_FORMAT@IMUDevice@devices@libeYs3D@@0Uforward_iterator_tag@1@@Z
	??$_Reallocate_for@V<lambda_66f57f934f28d61049862f64df852ff0>@@PEBD@?$basic_string@DU?$char_traits@D@std@@V?$allocator@D@2@@std@@QEAAAEAV01@_KV<lambda_66f57f934f28d61049862f64df852ff0>@@PEBD@Z
	??$_Reallocate_grow_by@V<lambda_319d5e083f45f90dcdce5dce53cbb275>@@D@?$basic_string@DU?$char_traits@D@std@@V?$allocator@D@2@@std@@QEAAAEAV01@_KV<lambda_319d5e083f45f90dcdce5dce53cbb275>@@D@Z
	??$_Reallocate_grow_by@V<lambda_65e615be2a453ca0576c979606f46740>@@PEBD_K@?$basic_string@DU?$char_traits@D@std@@V?$allocator@D@2@@std@@QEAAAEAV01@_KV<lambda_65e615be2a453ca0576c979606f46740>@@PEBD_K@Z
	??$_Refancy@PEAD$0A@@std@@YAPEADPEAD@Z
	??$_Reset@V<lambda_488c629a0a7c1ecc954ac8047e960599>@@@?$_Func_class@_J$$V@std@@IEAAX$$QEAV<lambda_488c629a0a7c1ecc954ac8047e960599>@@@Z
	??$_Reset@V<lambda_4cde73e63763cb313bd212247f8ddbb0>@@@?$_Func_class@W4WorkerProcessingResult@base@libeYs3D@@$$QEAV?$Optional@VDACalculateWorkItem@video@libeYs3D@@@23@@std@@IEAAX$$QEAV<lambda_4cde73e63763cb313bd212247f8ddbb0>@@@Z
	??$_Reset@V<lambda_530843cc44829e3530ea01af34e42038>@@@?$_Func_class@W4WorkerProcessingResult@base@libeYs3D@@$$QEAV?$Optional@VCallbackWorkItem@sensors@libeYs3D@@@23@@std@@IEAAX$$QEAV<lambda_530843cc44829e3530ea01af34e42038>@@@Z
	??$_Reset@V<lambda_69d578ede27bd906c7e1bc689c004001>@@@?$_Func_class@_J$$V@std@@IEAAX$$QEAV<lambda_69d578ede27bd906c7e1bc689c004001>@@@Z
	??$_Reset@V<lambda_9f92d7825455e143dbf3293131d714f3>@@@?$_Func_class@W4WorkerProcessingResult@base@libeYs3D@@$$QEAV?$Optional@VCallbackWorkItem@video@libeYs3D@@@23@@std@@IEAAX$$QEAV<lambda_9f92d7825455e143dbf3293131d714f3>@@@Z
	??$_Reset@V<lambda_fd68a9891d2d9d887c20652be0ece82a>@@@?$_Func_class@_J$$V@std@@IEAAX$$QEAV<lambda_fd68a9891d2d9d887c20652be0ece82a>@@@Z
	??$_Reset@V?$_Binder@U_Unforced@std@@P8DepthFrameProducer@video@libeYs3D@@EAAXPEAVFrame@45@@ZPEAV345@AEBU?$_Ph@$00@2@@std@@@?$_Func_class@XPEAVFrame@video@libeYs3D@@@std@@IEAAX$$QEAV?$_Binder@U_Unforced@std@@P8DepthFrameProducer@video@libeYs3D@@EAAXPEAVFrame@45@@ZPEAV345@AEBU?$_Ph@$00@2@@1@@Z
	??$_Reset@V?$_Binder@U_Unforced@std@@P8FrameProducer@video@libeYs3D@@EAA_NPEBUSensorDataSet@sensors@5@@ZPEAV345@AEBU?$_Ph@$00@2@@std@@@?$_Func_class@_NPEBUSensorDataSet@sensors@libeYs3D@@@std@@IEAAX$$QEAV?$_Binder@U_Unforced@std@@P8FrameProducer@video@libeYs3D@@EAA_NPEBUSensorDataSet@sensors@5@@ZPEAV345@AEBU?$_Ph@$00@2@@1@@Z
	??$_Reset@V?$_Binder@U_Unforced@std@@P8FrameProducer@video@libeYs3D@@EAA_NPEBVFrame@45@@ZPEAV345@AEBU?$_Ph@$00@2@@std@@@?$_Func_class@_NPEBVFrame@video@libeYs3D@@@std@@IEAAX$$QEAV?$_Binder@U_Unforced@std@@P8FrameProducer@video@libeYs3D@@EAA_NPEBVFrame@45@@ZPEAV345@AEBU?$_Ph@$00@2@@1@@Z
	??$_Reset@V?$_Binder@U_Unforced@std@@P8FrameSetPipeline@devices@libeYs3D@@EAA_NPEBVFrame@video@5@@ZPEAV345@AEBU?$_Ph@$00@2@@std@@@?$_Func_class@_NPEBVFrame@video@libeYs3D@@@std@@IEAAX$$QEAV?$_Binder@U_Unforced@std@@P8FrameSetPipeline@devices@libeYs3D@@EAA_NPEBVFrame@video@5@@ZPEAV345@AEBU?$_Ph@$00@2@@1@@Z
	??$_Reset@V?$_Binder@U_Unforced@std@@P8FrameSetPipeline@devices@libeYs3D@@EAA_NPEBVPCFrame@video@5@@ZPEAV345@AEBU?$_Ph@$00@2@@std@@@?$_Func_class@_NPEBVPCFrame@video@libeYs3D@@@std@@IEAAX$$QEAV?$_Binder@U_Unforced@std@@P8FrameSetPipeline@devices@libeYs3D@@EAA_NPEBVPCFrame@video@5@@ZPEAV345@AEBU?$_Ph@$00@2@@1@@Z
	??$_Reset@V?$_Binder@U_Unforced@std@@P8PCFrameProducer@video@libeYs3D@@EAA_NPEBVFrame@45@@ZPEAV345@AEBU?$_Ph@$00@2@@std@@@?$_Func_class@_NPEBVFrame@video@libeYs3D@@@std@@IEAAX$$QEAV?$_Binder@U_Unforced@std@@P8PCFrameProducer@video@libeYs3D@@EAA_NPEBVFrame@45@@ZPEAV345@AEBU?$_Ph@$00@2@@1@@Z
	??$_Reset@V?$_Binder@U_Unforced@std@@P8Pipeline@devices@libeYs3D@@EAA_NPEBUSensorData@sensors@5@@ZPEAV345@AEBU?$_Ph@$00@2@@std@@@?$_Func_class@_NPEBUSensorData@sensors@libeYs3D@@@std@@IEAAX$$QEAV?$_Binder@U_Unforced@std@@P8Pipeline@devices@libeYs3D@@EAA_NPEBUSensorData@sensors@5@@ZPEAV345@AEBU?$_Ph@$00@2@@1@@Z
	??$_Reset@V?$_Binder@U_Unforced@std@@P8Pipeline@devices@libeYs3D@@EAA_NPEBVFrame@video@5@@ZPEAV345@AEBU?$_Ph@$00@2@@std@@@?$_Func_class@_NPEBVFrame@video@libeYs3D@@@std@@IEAAX$$QEAV?$_Binder@U_Unforced@std@@P8Pipeline@devices@libeYs3D@@EAA_NPEBVFrame@video@5@@ZPEAV345@AEBU?$_Ph@$00@2@@1@@Z
	??$_Reset@V?$_Binder@U_Unforced@std@@P8Pipeline@devices@libeYs3D@@EAA_NPEBVPCFrame@video@5@@ZPEAV345@AEBU?$_Ph@$00@2@@std@@@?$_Func_class@_NPEBVPCFrame@video@libeYs3D@@@std@@IEAAX$$QEAV?$_Binder@U_Unforced@std@@P8Pipeline@devices@libeYs3D@@EAA_NPEBVPCFrame@video@5@@ZPEAV345@AEBU?$_Ph@$00@2@@1@@Z
	??$_Reset@V?$_Binder@U_Unforced@std@@P8SensorDataProducer@sensors@libeYs3D@@EAA_NPEBUSensorDataSet@45@@ZPEAV345@AEBU?$_Ph@$00@2@@std@@@?$_Func_class@_NPEBUSensorDataSet@sensors@libeYs3D@@@std@@IEAAX$$QEAV?$_Binder@U_Unforced@std@@P8SensorDataProducer@sensors@libeYs3D@@EAA_NPEBUSensorDataSet@45@@ZPEAV345@AEBU?$_Ph@$00@2@@1@@Z
	??$_Reset_impl@V?$_Func_impl_no_alloc@V<lambda_488c629a0a7c1ecc954ac8047e960599>@@_J$$V@std@@V<lambda_488c629a0a7c1ecc954ac8047e960599>@@@?$_Func_class@_J$$V@std@@IEAAX$$QEAV<lambda_488c629a0a7c1ecc954ac8047e960599>@@U?$integral_constant@_N$0A@@1@@Z
	??$_Reset_impl@V?$_Func_impl_no_alloc@V<lambda_4cde73e63763cb313bd212247f8ddbb0>@@W4WorkerProcessingResult@base@libeYs3D@@$$QEAV?$Optional@VDACalculateWorkItem@video@libeYs3D@@@34@@std@@V<lambda_4cde73e63763cb313bd212247f8ddbb0>@@@?$_Func_class@W4WorkerProcessingResult@base@libeYs3D@@$$QEAV?$Optional@VDACalculateWorkItem@video@libeYs3D@@@23@@std@@IEAAX$$QEAV<lambda_4cde73e63763cb313bd212247f8ddbb0>@@U?$integral_constant@_N$0A@@1@@Z
	??$_Reset_impl@V?$_Func_impl_no_alloc@V<lambda_530843cc44829e3530ea01af34e42038>@@W4WorkerProcessingResult@base@libeYs3D@@$$QEAV?$Optional@VCallbackWorkItem@sensors@libeYs3D@@@34@@std@@V<lambda_530843cc44829e3530ea01af34e42038>@@@?$_Func_class@W4WorkerProcessingResult@base@libeYs3D@@$$QEAV?$Optional@VCallbackWorkItem@sensors@libeYs3D@@@23@@std@@IEAAX$$QEAV<lambda_530843cc44829e3530ea01af34e42038>@@U?$integral_constant@_N$0A@@1@@Z
	??$_Reset_impl@V?$_Func_impl_no_alloc@V<lambda_69d578ede27bd906c7e1bc689c004001>@@_J$$V@std@@V<lambda_69d578ede27bd906c7e1bc689c004001>@@@?$_Func_class@_J$$V@std@@IEAAX$$QEAV<lambda_69d578ede27bd906c7e1bc689c004001>@@U?$integral_constant@_N$0A@@1@@Z
	??$_Reset_impl@V?$_Func_impl_no_alloc@V<lambda_9f92d7825455e143dbf3293131d714f3>@@W4WorkerProcessingResult@base@libeYs3D@@$$QEAV?$Optional@VCallbackWorkItem@video@libeYs3D@@@34@@std@@V<lambda_9f92d7825455e143dbf3293131d714f3>@@@?$_Func_class@W4WorkerProcessingResult@base@libeYs3D@@$$QEAV?$Optional@VCallbackWorkItem@video@libeYs3D@@@23@@std@@IEAAX$$QEAV<lambda_9f92d7825455e143dbf3293131d714f3>@@U?$integral_constant@_N$0A@@1@@Z
	??$_Reset_impl@V?$_Func_impl_no_alloc@V<lambda_fd68a9891d2d9d887c20652be0ece82a>@@_J$$V@std@@V<lambda_fd68a9891d2d9d887c20652be0ece82a>@@@?$_Func_class@_J$$V@std@@IEAAX$$QEAV<lambda_fd68a9891d2d9d887c20652be0ece82a>@@U?$integral_constant@_N$0A@@1@@Z
	??$_Reset_impl@V?$_Func_impl_no_alloc@V?$_Binder@U_Unforced@std@@P8DepthFrameProducer@video@libeYs3D@@EAAXPEAVFrame@45@@ZPEAV345@AEBU?$_Ph@$00@2@@std@@XPEAVFrame@video@libeYs3D@@@std@@V?$_Binder@U_Unforced@std@@P8DepthFrameProducer@video@libeYs3D@@EAAXPEAVFrame@45@@ZPEAV345@AEBU?$_Ph@$00@2@@2@@?$_Func_class@XPEAVFrame@video@libeYs3D@@@std@@IEAAX$$QEAV?$_Binder@U_Unforced@std@@P8DepthFrameProducer@video@libeYs3D@@EAAXPEAVFrame@45@@ZPEAV345@AEBU?$_Ph@$00@2@@1@U?$integral_constant@_N$0A@@1@@Z
	??$_Reset_impl@V?$_Func_impl_no_alloc@V?$_Binder@U_Unforced@std@@P8FrameProducer@video@libeYs3D@@EAA_NPEBUSensorDataSet@sensors@5@@ZPEAV345@AEBU?$_Ph@$00@2@@std@@_NPEBUSensorDataSet@sensors@libeYs3D@@@std@@V?$_Binder@U_Unforced@std@@P8FrameProducer@video@libeYs3D@@EAA_NPEBUSensorDataSet@sensors@5@@ZPEAV345@AEBU?$_Ph@$00@2@@2@@?$_Func_class@_NPEBUSensorDataSet@sensors@libeYs3D@@@std@@IEAAX$$QEAV?$_Binder@U_Unforced@std@@P8FrameProducer@video@libeYs3D@@EAA_NPEBUSensorDataSet@sensors@5@@ZPEAV345@AEBU?$_Ph@$00@2@@1@U?$integral_constant@_N$0A@@1@@Z
	??$_Reset_impl@V?$_Func_impl_no_alloc@V?$_Binder@U_Unforced@std@@P8FrameProducer@video@libeYs3D@@EAA_NPEBVFrame@45@@ZPEAV345@AEBU?$_Ph@$00@2@@std@@_NPEBVFrame@video@libeYs3D@@@std@@V?$_Binder@U_Unforced@std@@P8FrameProducer@video@libeYs3D@@EAA_NPEBVFrame@45@@ZPEAV345@AEBU?$_Ph@$00@2@@2@@?$_Func_class@_NPEBVFrame@video@libeYs3D@@@std@@IEAAX$$QEAV?$_Binder@U_Unforced@std@@P8FrameProducer@video@libeYs3D@@EAA_NPEBVFrame@45@@ZPEAV345@AEBU?$_Ph@$00@2@@1@U?$integral_constant@_N$0A@@1@@Z
	??$_Reset_impl@V?$_Func_impl_no_alloc@V?$_Binder@U_Unforced@std@@P8FrameSetPipeline@devices@libeYs3D@@EAA_NPEBVFrame@video@5@@ZPEAV345@AEBU?$_Ph@$00@2@@std@@_NPEBVFrame@video@libeYs3D@@@std@@V?$_Binder@U_Unforced@std@@P8FrameSetPipeline@devices@libeYs3D@@EAA_NPEBVFrame@video@5@@ZPEAV345@AEBU?$_Ph@$00@2@@2@@?$_Func_class@_NPEBVFrame@video@libeYs3D@@@std@@IEAAX$$QEAV?$_Binder@U_Unforced@std@@P8FrameSetPipeline@devices@libeYs3D@@EAA_NPEBVFrame@video@5@@ZPEAV345@AEBU?$_Ph@$00@2@@1@U?$integral_constant@_N$0A@@1@@Z
	??$_Reset_impl@V?$_Func_impl_no_alloc@V?$_Binder@U_Unforced@std@@P8FrameSetPipeline@devices@libeYs3D@@EAA_NPEBVPCFrame@video@5@@ZPEAV345@AEBU?$_Ph@$00@2@@std@@_NPEBVPCFrame@video@libeYs3D@@@std@@V?$_Binder@U_Unforced@std@@P8FrameSetPipeline@devices@libeYs3D@@EAA_NPEBVPCFrame@video@5@@ZPEAV345@AEBU?$_Ph@$00@2@@2@@?$_Func_class@_NPEBVPCFrame@video@libeYs3D@@@std@@IEAAX$$QEAV?$_Binder@U_Unforced@std@@P8FrameSetPipeline@devices@libeYs3D@@EAA_NPEBVPCFrame@video@5@@ZPEAV345@AEBU?$_Ph@$00@2@@1@U?$integral_constant@_N$0A@@1@@Z
	??$_Reset_impl@V?$_Func_impl_no_alloc@V?$_Binder@U_Unforced@std@@P8PCFrameProducer@video@libeYs3D@@EAA_NPEBVFrame@45@@ZPEAV345@AEBU?$_Ph@$00@2@@std@@_NPEBVFrame@video@libeYs3D@@@std@@V?$_Binder@U_Unforced@std@@P8PCFrameProducer@video@libeYs3D@@EAA_NPEBVFrame@45@@ZPEAV345@AEBU?$_Ph@$00@2@@2@@?$_Func_class@_NPEBVFrame@video@libeYs3D@@@std@@IEAAX$$QEAV?$_Binder@U_Unforced@std@@P8PCFrameProducer@video@libeYs3D@@EAA_NPEBVFrame@45@@ZPEAV345@AEBU?$_Ph@$00@2@@1@U?$integral_constant@_N$0A@@1@@Z
	??$_Reset_impl@V?$_Func_impl_no_alloc@V?$_Binder@U_Unforced@std@@P8Pipeline@devices@libeYs3D@@EAA_NPEBUSensorData@sensors@5@@ZPEAV345@AEBU?$_Ph@$00@2@@std@@_NPEBUSensorData@sensors@libeYs3D@@@std@@V?$_Binder@U_Unforced@std@@P8Pipeline@devices@libeYs3D@@EAA_NPEBUSensorData@sensors@5@@ZPEAV345@AEBU?$_Ph@$00@2@@2@@?$_Func_class@_NPEBUSensorData@sensors@libeYs3D@@@std@@IEAAX$$QEAV?$_Binder@U_Unforced@std@@P8Pipeline@devices@libeYs3D@@EAA_NPEBUSensorData@sensors@5@@ZPEAV345@AEBU?$_Ph@$00@2@@1@U?$integral_constant@_N$0A@@1@@Z
	??$_Reset_impl@V?$_Func_impl_no_alloc@V?$_Binder@U_Unforced@std@@P8Pipeline@devices@libeYs3D@@EAA_NPEBVFrame@video@5@@ZPEAV345@AEBU?$_Ph@$00@2@@std@@_NPEBVFrame@video@libeYs3D@@@std@@V?$_Binder@U_Unforced@std@@P8Pipeline@devices@libeYs3D@@EAA_NPEBVFrame@video@5@@ZPEAV345@AEBU?$_Ph@$00@2@@2@@?$_Func_class@_NPEBVFrame@video@libeYs3D@@@std@@IEAAX$$QEAV?$_Binder@U_Unforced@std@@P8Pipeline@devices@libeYs3D@@EAA_NPEBVFrame@video@5@@ZPEAV345@AEBU?$_Ph@$00@2@@1@U?$integral_constant@_N$0A@@1@@Z
	??$_Reset_impl@V?$_Func_impl_no_alloc@V?$_Binder@U_Unforced@std@@P8Pipeline@devices@libeYs3D@@EAA_NPEBVPCFrame@video@5@@ZPEAV345@AEBU?$_Ph@$00@2@@std@@_NPEBVPCFrame@video@libeYs3D@@@std@@V?$_Binder@U_Unforced@std@@P8Pipeline@devices@libeYs3D@@EAA_NPEBVPCFrame@video@5@@ZPEAV345@AEBU?$_Ph@$00@2@@2@@?$_Func_class@_NPEBVPCFrame@video@libeYs3D@@@std@@IEAAX$$QEAV?$_Binder@U_Unforced@std@@P8Pipeline@devices@libeYs3D@@EAA_NPEBVPCFrame@video@5@@ZPEAV345@AEBU?$_Ph@$00@2@@1@U?$integral_constant@_N$0A@@1@@Z
	??$_Reset_impl@V?$_Func_impl_no_alloc@V?$_Binder@U_Unforced@std@@P8SensorDataProducer@sensors@libeYs3D@@EAA_NPEBUSensorDataSet@45@@ZPEAV345@AEBU?$_Ph@$00@2@@std@@_NPEBUSensorDataSet@sensors@libeYs3D@@@std@@V?$_Binder@U_Unforced@std@@P8SensorDataProducer@sensors@libeYs3D@@EAA_NPEBUSensorDataSet@45@@ZPEAV345@AEBU?$_Ph@$00@2@@2@@?$_Func_class@_NPEBUSensorDataSet@sensors@libeYs3D@@@std@@IEAAX$$QEAV?$_Binder@U_Unforced@std@@P8SensorDataProducer@sensors@libeYs3D@@EAA_NPEBUSensorDataSet@45@@ZPEAV345@AEBU?$_Ph@$00@2@@1@U?$integral_constant@_N$0A@@1@@Z
	??$_Resize@V<lambda_1b1d21d4d0a625f2ca46306f492426c3>@@@?$vector@GV?$allocator@G@std@@@std@@AEAAX_KV<lambda_1b1d21d4d0a625f2ca46306f492426c3>@@@Z
	??$_Resize@V<lambda_24780451169aff7b21d8dc81a5c8ea5e>@@@?$vector@UtagAPC_STREAM_INFO@@V?$allocator@UtagAPC_STREAM_INFO@@@std@@@std@@AEAAX_KV<lambda_24780451169aff7b21d8dc81a5c8ea5e>@@@Z
	??$_Resize@V<lambda_2b51424039c320f102fd798e073c89b2>@@@?$vector@EV?$allocator@E@std@@@std@@AEAAX_KV<lambda_2b51424039c320f102fd798e073c89b2>@@@Z
	??$_Resize@V<lambda_5d91c21a7dab2480088f44d5291e9dfa>@@@?$vector@GV?$allocator@G@std@@@std@@AEAAX_KV<lambda_5d91c21a7dab2480088f44d5291e9dfa>@@@Z
	??$_Resize@V<lambda_74be05070710ffacd29b9292ee44c745>@@@?$vector@FV?$allocator@F@std@@@std@@AEAAX_KV<lambda_74be05070710ffacd29b9292ee44c745>@@@Z
	??$_Resize@V<lambda_91e74e7942ac848116ee9e34f55e92a4>@@@?$vector@USensorData@sensors@libeYs3D@@V?$allocator@USensorData@sensors@libeYs3D@@@std@@@std@@AEAAX_KV<lambda_91e74e7942ac848116ee9e34f55e92a4>@@@Z
	??$_Resize@V<lambda_a0fd67340d08d33487be225a22701bdb>@@@?$vector@MV?$allocator@M@std@@@std@@AEAAX_KV<lambda_a0fd67340d08d33487be225a22701bdb>@@@Z
	??$_Seek_wrapped@E@std@@YAXAEAPEAEQEAE@Z
	??$_Seek_wrapped@F@std@@YAXAEAPEAFQEAF@Z
	??$_Seek_wrapped@G@std@@YAXAEAPEAGQEAG@Z
	??$_Seek_wrapped@H@std@@YAXAEAPEAHQEAH@Z
	??$_Seek_wrapped@M@std@@YAXAEAPEAMQEAM@Z
	??$_Seek_wrapped@UCloudPoint@@@std@@YAXAEAPEAUCloudPoint@@QEAU1@@Z
	??$_Seek_wrapped@UCommand@?$WorkerThread@V?$Optional@VCallbackWorkItem@sensors@libeYs3D@@@base@libeYs3D@@@base@libeYs3D@@@std@@YAXAEAPEAUCommand@?$WorkerThread@V?$Optional@VCallbackWorkItem@sensors@libeYs3D@@@base@libeYs3D@@@base@libeYs3D@@QEAU1234@@Z
	??$_Seek_wrapped@UCommand@?$WorkerThread@V?$Optional@VCallbackWorkItem@video@libeYs3D@@@base@libeYs3D@@@base@libeYs3D@@@std@@YAXAEAPEAUCommand@?$WorkerThread@V?$Optional@VCallbackWorkItem@video@libeYs3D@@@base@libeYs3D@@@base@libeYs3D@@QEAU1234@@Z
	??$_Seek_wrapped@UCommand@?$WorkerThread@V?$Optional@VDACalculateWorkItem@video@libeYs3D@@@base@libeYs3D@@@base@libeYs3D@@@std@@YAXAEAPEAUCommand@?$WorkerThread@V?$Optional@VDACalculateWorkItem@video@libeYs3D@@@base@libeYs3D@@@base@libeYs3D@@QEAU1234@@Z
	??$_Seek_wrapped@UMODE_CONFIG@ModeConfig@@@std@@YAXAEAPEAUMODE_CONFIG@ModeConfig@@QEAU12@@Z
	??$_Seek_wrapped@USensorData@sensors@libeYs3D@@@std@@YAXAEAPEAUSensorData@sensors@libeYs3D@@QEAU123@@Z
	??$_Seek_wrapped@UtagAPC_STREAM_INFO@@@std@@YAXAEAPEAUtagAPC_STREAM_INFO@@QEAU1@@Z
	??$_Seek_wrapped@V?$basic_string@DU?$char_traits@D@std@@V?$allocator@D@2@@std@@@std@@YAXAEAPEAV?$basic_string@DU?$char_traits@D@std@@V?$allocator@D@2@@0@QEAV10@@Z
	??$_Seek_wrapped@W4IMU_DATA_FORMAT@IMUDevice@devices@libeYs3D@@@std@@YAXAEAPEAW4IMU_DATA_FORMAT@IMUDevice@devices@libeYs3D@@QEAW41234@@Z
	??$_Set_ptr_rep_and_enable_shared@VCameraDevice@devices@libeYs3D@@@?$shared_ptr@VCameraDevice@devices@libeYs3D@@@std@@AEAAXPEAVCameraDevice@devices@libeYs3D@@PEAV_Ref_count_base@1@@Z
	??$_Set_ptr_rep_and_enable_shared@VEYS3DSystem@libeYs3D@@@?$shared_ptr@VEYS3DSystem@libeYs3D@@@std@@AEAAXPEAVEYS3DSystem@libeYs3D@@PEAV_Ref_count_base@1@@Z
	??$_Set_ptr_rep_and_enable_shared@VFrameSetPipeline@devices@libeYs3D@@@?$shared_ptr@VFrameSetPipeline@devices@libeYs3D@@@std@@AEAAXPEAVFrameSetPipeline@devices@libeYs3D@@PEAV_Ref_count_base@1@@Z
	??$_Set_ptr_rep_and_enable_shared@VPipeline@devices@libeYs3D@@@?$shared_ptr@VPipeline@devices@libeYs3D@@@std@@AEAAXPEAVPipeline@devices@libeYs3D@@PEAV_Ref_count_base@1@@Z
	??$_Setp@VCameraDevice@devices@libeYs3D@@@?$shared_ptr@VCameraDevice@devices@libeYs3D@@@std@@AEAAXPEAVCameraDevice@devices@libeYs3D@@U?$integral_constant@_N$0A@@1@@Z
	??$_Setp@VEYS3DSystem@libeYs3D@@@?$shared_ptr@VEYS3DSystem@libeYs3D@@@std@@AEAAXPEAVEYS3DSystem@libeYs3D@@U?$integral_constant@_N$0A@@1@@Z
	??$_Setp@VFrameSetPipeline@devices@libeYs3D@@@?$shared_ptr@VFrameSetPipeline@devices@libeYs3D@@@std@@AEAAXPEAVFrameSetPipeline@devices@libeYs3D@@U?$integral_constant@_N$0A@@1@@Z
	??$_Setp@VPipeline@devices@libeYs3D@@@?$shared_ptr@VPipeline@devices@libeYs3D@@@std@@AEAAXPEAVPipeline@devices@libeYs3D@@U?$integral_constant@_N$0A@@1@@Z
	??$_Sort_heap_unchecked@PEAMU?$less@X@std@@@std@@YAXPEAM0U?$less@X@0@@Z
	??$_Sort_unchecked@PEAMU?$less@X@std@@@std@@YAXPEAM0_JU?$less@X@0@@Z
	??$_Swap_adl@PEAUCommand@?$WorkerThread@V?$Optional@VCallbackWorkItem@sensors@libeYs3D@@@base@libeYs3D@@@base@libeYs3D@@@std@@YAXAEAPEAUCommand@?$WorkerThread@V?$Optional@VCallbackWorkItem@sensors@libeYs3D@@@base@libeYs3D@@@base@libeYs3D@@0@Z
	??$_Swap_adl@PEAUCommand@?$WorkerThread@V?$Optional@VCallbackWorkItem@video@libeYs3D@@@base@libeYs3D@@@base@libeYs3D@@@std@@YAXAEAPEAUCommand@?$WorkerThread@V?$Optional@VCallbackWorkItem@video@libeYs3D@@@base@libeYs3D@@@base@libeYs3D@@0@Z
	??$_Swap_adl@PEAUCommand@?$WorkerThread@V?$Optional@VDACalculateWorkItem@video@libeYs3D@@@base@libeYs3D@@@base@libeYs3D@@@std@@YAXAEAPEAUCommand@?$WorkerThread@V?$Optional@VDACalculateWorkItem@video@libeYs3D@@@base@libeYs3D@@@base@libeYs3D@@0@Z
	??$_Test_callable@V<lambda_488c629a0a7c1ecc954ac8047e960599>@@@std@@YA_NAEBV<lambda_488c629a0a7c1ecc954ac8047e960599>@@@Z
	??$_Test_callable@V<lambda_488c629a0a7c1ecc954ac8047e960599>@@@std@@YA_NAEBV<lambda_488c629a0a7c1ecc954ac8047e960599>@@U?$integral_constant@_N$0A@@0@@Z
	??$_Test_callable@V<lambda_4cde73e63763cb313bd212247f8ddbb0>@@@std@@YA_NAEBV<lambda_4cde73e63763cb313bd212247f8ddbb0>@@@Z
	??$_Test_callable@V<lambda_4cde73e63763cb313bd212247f8ddbb0>@@@std@@YA_NAEBV<lambda_4cde73e63763cb313bd212247f8ddbb0>@@U?$integral_constant@_N$0A@@0@@Z
	??$_Test_callable@V<lambda_530843cc44829e3530ea01af34e42038>@@@std@@YA_NAEBV<lambda_530843cc44829e3530ea01af34e42038>@@@Z
	??$_Test_callable@V<lambda_530843cc44829e3530ea01af34e42038>@@@std@@YA_NAEBV<lambda_530843cc44829e3530ea01af34e42038>@@U?$integral_constant@_N$0A@@0@@Z
	??$_Test_callable@V<lambda_69d578ede27bd906c7e1bc689c004001>@@@std@@YA_NAEBV<lambda_69d578ede27bd906c7e1bc689c004001>@@@Z
	??$_Test_callable@V<lambda_69d578ede27bd906c7e1bc689c004001>@@@std@@YA_NAEBV<lambda_69d578ede27bd906c7e1bc689c004001>@@U?$integral_constant@_N$0A@@0@@Z
	??$_Test_callable@V<lambda_9f92d7825455e143dbf3293131d714f3>@@@std@@YA_NAEBV<lambda_9f92d7825455e143dbf3293131d714f3>@@@Z
	??$_Test_callable@V<lambda_9f92d7825455e143dbf3293131d714f3>@@@std@@YA_NAEBV<lambda_9f92d7825455e143dbf3293131d714f3>@@U?$integral_constant@_N$0A@@0@@Z
	??$_Test_callable@V<lambda_fd68a9891d2d9d887c20652be0ece82a>@@@std@@YA_NAEBV<lambda_fd68a9891d2d9d887c20652be0ece82a>@@@Z
	??$_Test_callable@V<lambda_fd68a9891d2d9d887c20652be0ece82a>@@@std@@YA_NAEBV<lambda_fd68a9891d2d9d887c20652be0ece82a>@@U?$integral_constant@_N$0A@@0@@Z
	??$_Test_callable@V?$_Binder@U_Unforced@std@@P8DepthFrameProducer@video@libeYs3D@@EAAXPEAVFrame@45@@ZPEAV345@AEBU?$_Ph@$00@2@@std@@@std@@YA_NAEBV?$_Binder@U_Unforced@std@@P8DepthFrameProducer@video@libeYs3D@@EAAXPEAVFrame@45@@ZPEAV345@AEBU?$_Ph@$00@2@@0@@Z
	??$_Test_callable@V?$_Binder@U_Unforced@std@@P8DepthFrameProducer@video@libeYs3D@@EAAXPEAVFrame@45@@ZPEAV345@AEBU?$_Ph@$00@2@@std@@@std@@YA_NAEBV?$_Binder@U_Unforced@std@@P8DepthFrameProducer@video@libeYs3D@@EAAXPEAVFrame@45@@ZPEAV345@AEBU?$_Ph@$00@2@@0@U?$integral_constant@_N$0A@@0@@Z
	??$_Test_callable@V?$_Binder@U_Unforced@std@@P8FrameProducer@video@libeYs3D@@EAA_NPEBUSensorDataSet@sensors@5@@ZPEAV345@AEBU?$_Ph@$00@2@@std@@@std@@YA_NAEBV?$_Binder@U_Unforced@std@@P8FrameProducer@video@libeYs3D@@EAA_NPEBUSensorDataSet@sensors@5@@ZPEAV345@AEBU?$_Ph@$00@2@@0@@Z
	??$_Test_callable@V?$_Binder@U_Unforced@std@@P8FrameProducer@video@libeYs3D@@EAA_NPEBUSensorDataSet@sensors@5@@ZPEAV345@AEBU?$_Ph@$00@2@@std@@@std@@YA_NAEBV?$_Binder@U_Unforced@std@@P8FrameProducer@video@libeYs3D@@EAA_NPEBUSensorDataSet@sensors@5@@ZPEAV345@AEBU?$_Ph@$00@2@@0@U?$integral_constant@_N$0A@@0@@Z
	??$_Test_callable@V?$_Binder@U_Unforced@std@@P8FrameProducer@video@libeYs3D@@EAA_NPEBVFrame@45@@ZPEAV345@AEBU?$_Ph@$00@2@@std@@@std@@YA_NAEBV?$_Binder@U_Unforced@std@@P8FrameProducer@video@libeYs3D@@EAA_NPEBVFrame@45@@ZPEAV345@AEBU?$_Ph@$00@2@@0@@Z
	??$_Test_callable@V?$_Binder@U_Unforced@std@@P8FrameProducer@video@libeYs3D@@EAA_NPEBVFrame@45@@ZPEAV345@AEBU?$_Ph@$00@2@@std@@@std@@YA_NAEBV?$_Binder@U_Unforced@std@@P8FrameProducer@video@libeYs3D@@EAA_NPEBVFrame@45@@ZPEAV345@AEBU?$_Ph@$00@2@@0@U?$integral_constant@_N$0A@@0@@Z
	??$_Test_callable@V?$_Binder@U_Unforced@std@@P8FrameSetPipeline@devices@libeYs3D@@EAA_NPEBVFrame@video@5@@ZPEAV345@AEBU?$_Ph@$00@2@@std@@@std@@YA_NAEBV?$_Binder@U_Unforced@std@@P8FrameSetPipeline@devices@libeYs3D@@EAA_NPEBVFrame@video@5@@ZPEAV345@AEBU?$_Ph@$00@2@@0@@Z
	??$_Test_callable@V?$_Binder@U_Unforced@std@@P8FrameSetPipeline@devices@libeYs3D@@EAA_NPEBVFrame@video@5@@ZPEAV345@AEBU?$_Ph@$00@2@@std@@@std@@YA_NAEBV?$_Binder@U_Unforced@std@@P8FrameSetPipeline@devices@libeYs3D@@EAA_NPEBVFrame@video@5@@ZPEAV345@AEBU?$_Ph@$00@2@@0@U?$integral_constant@_N$0A@@0@@Z
	??$_Test_callable@V?$_Binder@U_Unforced@std@@P8FrameSetPipeline@devices@libeYs3D@@EAA_NPEBVPCFrame@video@5@@ZPEAV345@AEBU?$_Ph@$00@2@@std@@@std@@YA_NAEBV?$_Binder@U_Unforced@std@@P8FrameSetPipeline@devices@libeYs3D@@EAA_NPEBVPCFrame@video@5@@ZPEAV345@AEBU?$_Ph@$00@2@@0@@Z
	??$_Test_callable@V?$_Binder@U_Unforced@std@@P8FrameSetPipeline@devices@libeYs3D@@EAA_NPEBVPCFrame@video@5@@ZPEAV345@AEBU?$_Ph@$00@2@@std@@@std@@YA_NAEBV?$_Binder@U_Unforced@std@@P8FrameSetPipeline@devices@libeYs3D@@EAA_NPEBVPCFrame@video@5@@ZPEAV345@AEBU?$_Ph@$00@2@@0@U?$integral_constant@_N$0A@@0@@Z
	??$_Test_callable@V?$_Binder@U_Unforced@std@@P8PCFrameProducer@video@libeYs3D@@EAA_NPEBVFrame@45@@ZPEAV345@AEBU?$_Ph@$00@2@@std@@@std@@YA_NAEBV?$_Binder@U_Unforced@std@@P8PCFrameProducer@video@libeYs3D@@EAA_NPEBVFrame@45@@ZPEAV345@AEBU?$_Ph@$00@2@@0@@Z
	??$_Test_callable@V?$_Binder@U_Unforced@std@@P8PCFrameProducer@video@libeYs3D@@EAA_NPEBVFrame@45@@ZPEAV345@AEBU?$_Ph@$00@2@@std@@@std@@YA_NAEBV?$_Binder@U_Unforced@std@@P8PCFrameProducer@video@libeYs3D@@EAA_NPEBVFrame@45@@ZPEAV345@AEBU?$_Ph@$00@2@@0@U?$integral_constant@_N$0A@@0@@Z
	??$_Test_callable@V?$_Binder@U_Unforced@std@@P8Pipeline@devices@libeYs3D@@EAA_NPEBUSensorData@sensors@5@@ZPEAV345@AEBU?$_Ph@$00@2@@std@@@std@@YA_NAEBV?$_Binder@U_Unforced@std@@P8Pipeline@devices@libeYs3D@@EAA_NPEBUSensorData@sensors@5@@ZPEAV345@AEBU?$_Ph@$00@2@@0@@Z
	??$_Test_callable@V?$_Binder@U_Unforced@std@@P8Pipeline@devices@libeYs3D@@EAA_NPEBUSensorData@sensors@5@@ZPEAV345@AEBU?$_Ph@$00@2@@std@@@std@@YA_NAEBV?$_Binder@U_Unforced@std@@P8Pipeline@devices@libeYs3D@@EAA_NPEBUSensorData@sensors@5@@ZPEAV345@AEBU?$_Ph@$00@2@@0@U?$integral_constant@_N$0A@@0@@Z
	??$_Test_callable@V?$_Binder@U_Unforced@std@@P8Pipeline@devices@libeYs3D@@EAA_NPEBVFrame@video@5@@ZPEAV345@AEBU?$_Ph@$00@2@@std@@@std@@YA_NAEBV?$_Binder@U_Unforced@std@@P8Pipeline@devices@libeYs3D@@EAA_NPEBVFrame@video@5@@ZPEAV345@AEBU?$_Ph@$00@2@@0@@Z
	??$_Test_callable@V?$_Binder@U_Unforced@std@@P8Pipeline@devices@libeYs3D@@EAA_NPEBVFrame@video@5@@ZPEAV345@AEBU?$_Ph@$00@2@@std@@@std@@YA_NAEBV?$_Binder@U_Unforced@std@@P8Pipeline@devices@libeYs3D@@EAA_NPEBVFrame@video@5@@ZPEAV345@AEBU?$_Ph@$00@2@@0@U?$integral_constant@_N$0A@@0@@Z
	??$_Test_callable@V?$_Binder@U_Unforced@std@@P8Pipeline@devices@libeYs3D@@EAA_NPEBVPCFrame@video@5@@ZPEAV345@AEBU?$_Ph@$00@2@@std@@@std@@YA_NAEBV?$_Binder@U_Unforced@std@@P8Pipeline@devices@libeYs3D@@EAA_NPEBVPCFrame@video@5@@ZPEAV345@AEBU?$_Ph@$00@2@@0@@Z
	??$_Test_callable@V?$_Binder@U_Unforced@std@@P8Pipeline@devices@libeYs3D@@EAA_NPEBVPCFrame@video@5@@ZPEAV345@AEBU?$_Ph@$00@2@@std@@@std@@YA_NAEBV?$_Binder@U_Unforced@std@@P8Pipeline@devices@libeYs3D@@EAA_NPEBVPCFrame@video@5@@ZPEAV345@AEBU?$_Ph@$00@2@@0@U?$integral_constant@_N$0A@@0@@Z
	??$_Test_callable@V?$_Binder@U_Unforced@std@@P8SensorDataProducer@sensors@libeYs3D@@EAA_NPEBUSensorDataSet@45@@ZPEAV345@AEBU?$_Ph@$00@2@@std@@@std@@YA_NAEBV?$_Binder@U_Unforced@std@@P8SensorDataProducer@sensors@libeYs3D@@EAA_NPEBUSensorDataSet@45@@ZPEAV345@AEBU?$_Ph@$00@2@@0@@Z
	??$_Test_callable@V?$_Binder@U_Unforced@std@@P8SensorDataProducer@sensors@libeYs3D@@EAA_NPEBUSensorDataSet@45@@ZPEAV345@AEBU?$_Ph@$00@2@@std@@@std@@YA_NAEBV?$_Binder@U_Unforced@std@@P8SensorDataProducer@sensors@libeYs3D@@EAA_NPEBUSensorDataSet@45@@ZPEAV345@AEBU?$_Ph@$00@2@@0@U?$integral_constant@_N$0A@@0@@Z
	??$_Try_emplace@AEBH$$V@?$map@HUPID_TABLE@ModeConfig@@U?$less@H@std@@V?$allocator@U?$pair@$$CBHUPID_TABLE@ModeConfig@@@std@@@4@@std@@QEAA?AU?$pair@V?$_Tree_iterator@V?$_Tree_val@U?$_Tree_simple_types@U?$pair@$$CBHUPID_TABLE@ModeConfig@@@std@@@std@@@std@@@std@@_N@1@AEBH@Z
	??$_Try_emplace@AEBU?$pair@GG@std@@$$V@?$map@U?$pair@GG@std@@V?$vector@V?$basic_string@DU?$char_traits@D@std@@V?$allocator@D@2@@std@@V?$allocator@V?$basic_string@DU?$char_traits@D@std@@V?$allocator@D@2@@std@@@2@@2@U?$less@U?$pair@GG@std@@@2@V?$allocator@U?$pair@$$CBU?$pair@GG@std@@V?$vector@V?$basic_string@DU?$char_traits@D@std@@V?$allocator@D@2@@std@@V?$allocator@V?$basic_string@DU?$char_traits@D@std@@V?$allocator@D@2@@std@@@2@@2@@std@@@2@@std@@QEAA?AU?$pair@V?$_Tree_iterator@V?$_Tree_val@U?$_Tree_simple_types@U?$pair@$$CBU?$pair@GG@std@@V?$vector@V?$basic_string@DU?$char_traits@D@std@@V?$allocator@D@2@@std@@V?$allocator@V?$basic_string@DU?$char_traits@D@std@@V?$allocator@D@2@@std@@@2@@2@@std@@@std@@@std@@@std@@_N@1@AEBU?$pair@GG@1@@Z
	??$_Try_emplace@AEBUDeviceSellectInfo@libeYs3D@@$$V@?$map@UDeviceSellectInfo@libeYs3D@@V?$shared_ptr@VCameraDevice@devices@libeYs3D@@@std@@U?$less@UDeviceSellectInfo@libeYs3D@@@4@V?$allocator@U?$pair@$$CBUDeviceSellectInfo@libeYs3D@@V?$shared_ptr@VCameraDevice@devices@libeYs3D@@@std@@@std@@@4@@std@@QEAA?AU?$pair@V?$_Tree_iterator@V?$_Tree_val@U?$_Tree_simple_types@U?$pair@$$CBUDeviceSellectInfo@libeYs3D@@V?$shared_ptr@VCameraDevice@devices@libeYs3D@@@std@@@std@@@std@@@std@@@std@@_N@1@AEBUDeviceSellectInfo@libeYs3D@@@Z
	??$_Try_emplace@W4IMUPacketSymbol@IMUData@@$$V@?$map@W4IMUPacketSymbol@IMUData@@_KU?$less@W4IMUPacketSymbol@IMUData@@@std@@V?$allocator@U?$pair@$$CBW4IMUPacketSymbol@IMUData@@_K@std@@@4@@std@@QEAA?AU?$pair@V?$_Tree_iterator@V?$_Tree_val@U?$_Tree_simple_types@U?$pair@$$CBW4IMUPacketSymbol@IMUData@@_K@std@@@std@@@std@@@std@@_N@1@$$QEAW4IMUPacketSymbol@IMUData@@@Z
	??$_Ucopy@PEAE@?$vector@EV?$allocator@E@std@@@std@@AEAAPEAEPEAE00@Z
	??$_Ucopy@PEAH@?$vector@HV?$allocator@H@std@@@std@@AEAAPEAHPEAH00@Z
	??$_Ucopy@PEAM@?$vector@MV?$allocator@M@std@@@std@@AEAAPEAMPEAM00@Z
	??$_Ucopy@PEAUCloudPoint@@@?$vector@UCloudPoint@@V?$allocator@UCloudPoint@@@std@@@std@@AEAAPEAUCloudPoint@@PEAU2@00@Z
	??$_Ucopy@PEAUMODE_CONFIG@ModeConfig@@@?$vector@UMODE_CONFIG@ModeConfig@@V?$allocator@UMODE_CONFIG@ModeConfig@@@std@@@std@@AEAAPEAUMODE_CONFIG@ModeConfig@@PEAU23@00@Z
	??$_Ucopy@PEAV?$basic_string@DU?$char_traits@D@std@@V?$allocator@D@2@@std@@@?$vector@V?$basic_string@DU?$char_traits@D@std@@V?$allocator@D@2@@std@@V?$allocator@V?$basic_string@DU?$char_traits@D@std@@V?$allocator@D@2@@std@@@2@@std@@AEAAPEAV?$basic_string@DU?$char_traits@D@std@@V?$allocator@D@2@@1@PEAV21@00@Z
	??$_Ucopy@PEBW4IMU_DATA_FORMAT@IMUDevice@devices@libeYs3D@@@?$vector@W4IMU_DATA_FORMAT@IMUDevice@devices@libeYs3D@@V?$allocator@W4IMU_DATA_FORMAT@IMUDevice@devices@libeYs3D@@@std@@@std@@AEAAPEAW4IMU_DATA_FORMAT@IMUDevice@devices@libeYs3D@@PEBW42345@0PEAW42345@@Z
	??$_Unfancy@$$CBD@std@@YAPEBDPEBD@Z
	??$_Unfancy@D@std@@YAPEADPEAD@Z
	??$_Unfancy@F@std@@YAPEAFPEAF@Z
	??$_Unfancy@G@std@@YAPEAGPEAG@Z
	??$_Unfancy@H@std@@YAPEAHPEAH@Z
	??$_Unfancy@M@std@@YAPEAMPEAM@Z
	??$_Unfancy@UCloudPoint@@@std@@YAPEAUCloudPoint@@PEAU1@@Z
	??$_Unfancy@UCommand@?$WorkerThread@V?$Optional@VCallbackWorkItem@sensors@libeYs3D@@@base@libeYs3D@@@base@libeYs3D@@@std@@YAPEAUCommand@?$WorkerThread@V?$Optional@VCallbackWorkItem@sensors@libeYs3D@@@base@libeYs3D@@@base@libeYs3D@@PEAU1234@@Z
	??$_Unfancy@UCommand@?$WorkerThread@V?$Optional@VCallbackWorkItem@video@libeYs3D@@@base@libeYs3D@@@base@libeYs3D@@@std@@YAPEAUCommand@?$WorkerThread@V?$Optional@VCallbackWorkItem@video@libeYs3D@@@base@libeYs3D@@@base@libeYs3D@@PEAU1234@@Z
	??$_Unfancy@UCommand@?$WorkerThread@V?$Optional@VDACalculateWorkItem@video@libeYs3D@@@base@libeYs3D@@@base@libeYs3D@@@std@@YAPEAUCommand@?$WorkerThread@V?$Optional@VDACalculateWorkItem@video@libeYs3D@@@base@libeYs3D@@@base@libeYs3D@@PEAU1234@@Z
	??$_Unfancy@UMODE_CONFIG@ModeConfig@@@std@@YAPEAUMODE_CONFIG@ModeConfig@@PEAU12@@Z
	??$_Unfancy@USensorData@sensors@libeYs3D@@@std@@YAPEAUSensorData@sensors@libeYs3D@@PEAU123@@Z
	??$_Unfancy@U_Container_proxy@std@@@std@@YAPEAU_Container_proxy@0@PEAU10@@Z
	??$_Unfancy@UtagAPC_STREAM_INFO@@@std@@YAPEAUtagAPC_STREAM_INFO@@PEAU1@@Z
	??$_Unfancy@V?$Optional@V?$WorkerThread@V?$Optional@VCallbackWorkItem@sensors@libeYs3D@@@base@libeYs3D@@@base@libeYs3D@@@base@libeYs3D@@@std@@YAPEAV?$Optional@V?$WorkerThread@V?$Optional@VCallbackWorkItem@sensors@libeYs3D@@@base@libeYs3D@@@base@libeYs3D@@@base@libeYs3D@@PEAV123@@Z
	??$_Unfancy@V?$Optional@V?$WorkerThread@V?$Optional@VCallbackWorkItem@video@libeYs3D@@@base@libeYs3D@@@base@libeYs3D@@@base@libeYs3D@@@std@@YAPEAV?$Optional@V?$WorkerThread@V?$Optional@VCallbackWorkItem@video@libeYs3D@@@base@libeYs3D@@@base@libeYs3D@@@base@libeYs3D@@PEAV123@@Z
	??$_Unfancy@V?$Optional@V?$WorkerThread@V?$Optional@VDACalculateWorkItem@video@libeYs3D@@@base@libeYs3D@@@base@libeYs3D@@@base@libeYs3D@@@std@@YAPEAV?$Optional@V?$WorkerThread@V?$Optional@VDACalculateWorkItem@video@libeYs3D@@@base@libeYs3D@@@base@libeYs3D@@@base@libeYs3D@@PEAV123@@Z
	??$_Unfancy@V?$basic_string@DU?$char_traits@D@std@@V?$allocator@D@2@@std@@@std@@YAPEAV?$basic_string@DU?$char_traits@D@std@@V?$allocator@D@2@@0@PEAV10@@Z
	??$_Unfancy_maybe_null@E@std@@YAPEAEPEAE@Z
	??$_Unfancy_maybe_null@G@std@@YAPEAGPEAG@Z
	??$_Unfancy_maybe_null@M@std@@YAPEAMPEAM@Z
	??$_Unfancy_maybe_null@USensorData@sensors@libeYs3D@@@std@@YAPEAUSensorData@sensors@libeYs3D@@PEAU123@@Z
	??$_Ungetc@D@std@@YA_NAEBDPEAU_iobuf@@@Z
	??$_Uninit_alloc_fill_n1@PEAE_KV?$allocator@E@std@@@std@@YAPEAEQEAE_KAEBEAEAV?$allocator@E@0@U?$integral_constant@_N$00@0@@Z
	??$_Uninit_alloc_fill_n1@PEAF_KV?$allocator@F@std@@@std@@YAPEAFQEAF_KAEBFAEAV?$allocator@F@0@U?$integral_constant@_N$0A@@0@@Z
	??$_Uninit_alloc_fill_n1@PEAG_KV?$allocator@G@std@@@std@@YAPEAGQEAG_KAEBGAEAV?$allocator@G@0@U?$integral_constant@_N$0A@@0@@Z
	??$_Uninit_alloc_fill_n1@PEAM_KV?$allocator@M@std@@@std@@YAPEAMQEAM_KAEBMAEAV?$allocator@M@0@U?$integral_constant@_N$0A@@0@@Z
	??$_Uninit_alloc_fill_n1@PEAUtagAPC_STREAM_INFO@@_KV?$allocator@UtagAPC_STREAM_INFO@@@std@@@std@@YAPEAUtagAPC_STREAM_INFO@@QEAU1@_KAEBU1@AEAV?$allocator@UtagAPC_STREAM_INFO@@@0@U?$integral_constant@_N$0A@@0@@Z
	??$_Uninitialized_copy@PEAEPEAEV?$allocator@E@std@@@std@@YAPEAEQEAE0PEAEAEAV?$allocator@E@0@@Z
	??$_Uninitialized_copy@PEAHPEAHV?$allocator@H@std@@@std@@YAPEAHQEAH0PEAHAEAV?$allocator@H@0@@Z
	??$_Uninitialized_copy@PEAMPEAMV?$allocator@M@std@@@std@@YAPEAMQEAM0PEAMAEAV?$allocator@M@0@@Z
	??$_Uninitialized_copy@PEAUCloudPoint@@PEAU1@V?$allocator@UCloudPoint@@@std@@@std@@YAPEAUCloudPoint@@QEAU1@0PEAU1@AEAV?$allocator@UCloudPoint@@@0@@Z
	??$_Uninitialized_copy@PEAUMODE_CONFIG@ModeConfig@@PEAU12@V?$allocator@UMODE_CONFIG@ModeConfig@@@std@@@std@@YAPEAUMODE_CONFIG@ModeConfig@@QEAU12@0PEAU12@AEAV?$allocator@UMODE_CONFIG@ModeConfig@@@0@@Z
	??$_Uninitialized_copy@PEAV?$basic_string@DU?$char_traits@D@std@@V?$allocator@D@2@@std@@PEAV12@V?$allocator@V?$basic_string@DU?$char_traits@D@std@@V?$allocator@D@2@@std@@@2@@std@@YAPEAV?$basic_string@DU?$char_traits@D@std@@V?$allocator@D@2@@0@QEAV10@0PEAV10@AEAV?$allocator@V?$basic_string@DU?$char_traits@D@std@@V?$allocator@D@2@@std@@@0@@Z
	??$_Uninitialized_copy@PEBW4IMU_DATA_FORMAT@IMUDevice@devices@libeYs3D@@PEAW41234@V?$allocator@W4IMU_DATA_FORMAT@IMUDevice@devices@libeYs3D@@@std@@@std@@YAPEAW4IMU_DATA_FORMAT@IMUDevice@devices@libeYs3D@@QEBW41234@0PEAW41234@AEAV?$allocator@W4IMU_DATA_FORMAT@IMUDevice@devices@libeYs3D@@@0@@Z
	??$_Uninitialized_copy_al_unchecked@$$CBW4IMU_DATA_FORMAT@IMUDevice@devices@libeYs3D@@W41234@V?$allocator@W4IMU_DATA_FORMAT@IMUDevice@devices@libeYs3D@@@std@@@std@@YAPEAW4IMU_DATA_FORMAT@IMUDevice@devices@libeYs3D@@QEBW41234@0QEAW41234@AEAV?$allocator@W4IMU_DATA_FORMAT@IMUDevice@devices@libeYs3D@@@0@U_Really_trivial_ptr_iterator_tag@0@U?$integral_constant@_N$00@0@@Z
	??$_Uninitialized_copy_al_unchecked@EEV?$allocator@E@std@@@std@@YAPEAEQEAE00AEAV?$allocator@E@0@U_Really_trivial_ptr_iterator_tag@0@U?$integral_constant@_N$00@0@@Z
	??$_Uninitialized_copy_al_unchecked@HHV?$allocator@H@std@@@std@@YAPEAHQEAH00AEAV?$allocator@H@0@U_Really_trivial_ptr_iterator_tag@0@U?$integral_constant@_N$00@0@@Z
	??$_Uninitialized_copy_al_unchecked@MMV?$allocator@M@std@@@std@@YAPEAMQEAM00AEAV?$allocator@M@0@U_Really_trivial_ptr_iterator_tag@0@U?$integral_constant@_N$00@0@@Z
	??$_Uninitialized_copy_al_unchecked@PEAUMODE_CONFIG@ModeConfig@@PEAU12@V?$allocator@UMODE_CONFIG@ModeConfig@@@std@@@std@@YAPEAUMODE_CONFIG@ModeConfig@@PEAU12@QEAU12@1AEAV?$allocator@UMODE_CONFIG@ModeConfig@@@0@U_General_ptr_iterator_tag@0@U_Unused_parameter@0@@Z
	??$_Uninitialized_copy_al_unchecked@PEAV?$basic_string@DU?$char_traits@D@std@@V?$allocator@D@2@@std@@PEAV12@V?$allocator@V?$basic_string@DU?$char_traits@D@std@@V?$allocator@D@2@@std@@@2@@std@@YAPEAV?$basic_string@DU?$char_traits@D@std@@V?$allocator@D@2@@0@PEAV10@QEAV10@1AEAV?$allocator@V?$basic_string@DU?$char_traits@D@std@@V?$allocator@D@2@@std@@@0@U_General_ptr_iterator_tag@0@U_Unused_parameter@0@@Z
	??$_Uninitialized_copy_al_unchecked@UCloudPoint@@U1@V?$allocator@UCloudPoint@@@std@@@std@@YAPEAUCloudPoint@@QEAU1@00AEAV?$allocator@UCloudPoint@@@0@U_Really_trivial_ptr_iterator_tag@0@U?$integral_constant@_N$00@0@@Z
	??$_Uninitialized_fill_n@PEAE_KV?$allocator@E@std@@@std@@YAPEAEQEAE_KAEBEAEAV?$allocator@E@0@@Z
	??$_Uninitialized_fill_n@PEAF_KV?$allocator@F@std@@@std@@YAPEAFQEAF_KAEBFAEAV?$allocator@F@0@@Z
	??$_Uninitialized_fill_n@PEAG_KV?$allocator@G@std@@@std@@YAPEAGQEAG_KAEBGAEAV?$allocator@G@0@@Z
	??$_Uninitialized_fill_n@PEAM_KV?$allocator@M@std@@@std@@YAPEAMQEAM_KAEBMAEAV?$allocator@M@0@@Z
	??$_Uninitialized_fill_n@PEAUtagAPC_STREAM_INFO@@_KV?$allocator@UtagAPC_STREAM_INFO@@@std@@@std@@YAPEAUtagAPC_STREAM_INFO@@QEAU1@_KAEBU1@AEAV?$allocator@UtagAPC_STREAM_INFO@@@0@@Z
	??$_Uninitialized_move@PEAEPEAEV?$allocator@E@std@@@std@@YAPEAEQEAE0PEAEAEAV?$allocator@E@0@@Z
	??$_Uninitialized_move@PEAFPEAFV?$allocator@F@std@@@std@@YAPEAFQEAF0PEAFAEAV?$allocator@F@0@@Z
	??$_Uninitialized_move@PEAGPEAGV?$allocator@G@std@@@std@@YAPEAGQEAG0PEAGAEAV?$allocator@G@0@@Z
	??$_Uninitialized_move@PEAHPEAHV?$allocator@H@std@@@std@@YAPEAHQEAH0PEAHAEAV?$allocator@H@0@@Z
	??$_Uninitialized_move@PEAMPEAMV?$allocator@M@std@@@std@@YAPEAMQEAM0PEAMAEAV?$allocator@M@0@@Z
	??$_Uninitialized_move@PEAUCloudPoint@@PEAU1@V?$allocator@UCloudPoint@@@std@@@std@@YAPEAUCloudPoint@@QEAU1@0PEAU1@AEAV?$allocator@UCloudPoint@@@0@@Z
	??$_Uninitialized_move@PEAUCommand@?$WorkerThread@V?$Optional@VCallbackWorkItem@sensors@libeYs3D@@@base@libeYs3D@@@base@libeYs3D@@PEAU1234@V?$allocator@UCommand@?$WorkerThread@V?$Optional@VCallbackWorkItem@sensors@libeYs3D@@@base@libeYs3D@@@base@libeYs3D@@@std@@@std@@YAPEAUCommand@?$WorkerThread@V?$Optional@VCallbackWorkItem@sensors@libeYs3D@@@base@libeYs3D@@@base@libeYs3D@@QEAU1234@0PEAU1234@AEAV?$allocator@UCommand@?$WorkerThread@V?$Optional@VCallbackWorkItem@sensors@libeYs3D@@@base@libeYs3D@@@base@libeYs3D@@@0@@Z
	??$_Uninitialized_move@PEAUCommand@?$WorkerThread@V?$Optional@VCallbackWorkItem@video@libeYs3D@@@base@libeYs3D@@@base@libeYs3D@@PEAU1234@V?$allocator@UCommand@?$WorkerThread@V?$Optional@VCallbackWorkItem@video@libeYs3D@@@base@libeYs3D@@@base@libeYs3D@@@std@@@std@@YAPEAUCommand@?$WorkerThread@V?$Optional@VCallbackWorkItem@video@libeYs3D@@@base@libeYs3D@@@base@libeYs3D@@QEAU1234@0PEAU1234@AEAV?$allocator@UCommand@?$WorkerThread@V?$Optional@VCallbackWorkItem@video@libeYs3D@@@base@libeYs3D@@@base@libeYs3D@@@0@@Z
	??$_Uninitialized_move@PEAUCommand@?$WorkerThread@V?$Optional@VDACalculateWorkItem@video@libeYs3D@@@base@libeYs3D@@@base@libeYs3D@@PEAU1234@V?$allocator@UCommand@?$WorkerThread@V?$Optional@VDACalculateWorkItem@video@libeYs3D@@@base@libeYs3D@@@base@libeYs3D@@@std@@@std@@YAPEAUCommand@?$WorkerThread@V?$Optional@VDACalculateWorkItem@video@libeYs3D@@@base@libeYs3D@@@base@libeYs3D@@QEAU1234@0PEAU1234@AEAV?$allocator@UCommand@?$WorkerThread@V?$Optional@VDACalculateWorkItem@video@libeYs3D@@@base@libeYs3D@@@base@libeYs3D@@@0@@Z
	??$_Uninitialized_move@PEAUMODE_CONFIG@ModeConfig@@PEAU12@V?$allocator@UMODE_CONFIG@ModeConfig@@@std@@@std@@YAPEAUMODE_CONFIG@ModeConfig@@QEAU12@0PEAU12@AEAV?$allocator@UMODE_CONFIG@ModeConfig@@@0@@Z
	??$_Uninitialized_move@PEAUSensorData@sensors@libeYs3D@@PEAU123@V?$allocator@USensorData@sensors@libeYs3D@@@std@@@std@@YAPEAUSensorData@sensors@libeYs3D@@QEAU123@0PEAU123@AEAV?$allocator@USensorData@sensors@libeYs3D@@@0@@Z
	??$_Uninitialized_move@PEAUtagAPC_STREAM_INFO@@PEAU1@V?$allocator@UtagAPC_STREAM_INFO@@@std@@@std@@YAPEAUtagAPC_STREAM_INFO@@QEAU1@0PEAU1@AEAV?$allocator@UtagAPC_STREAM_INFO@@@0@@Z
	??$_Uninitialized_move@PEAV?$basic_string@DU?$char_traits@D@std@@V?$allocator@D@2@@std@@PEAV12@V?$allocator@V?$basic_string@DU?$char_traits@D@std@@V?$allocator@D@2@@std@@@2@@std@@YAPEAV?$basic_string@DU?$char_traits@D@std@@V?$allocator@D@2@@0@QEAV10@0PEAV10@AEAV?$allocator@V?$basic_string@DU?$char_traits@D@std@@V?$allocator@D@2@@std@@@0@@Z
	??$_Uninitialized_move_al_unchecked@EEV?$allocator@E@std@@@std@@YAPEAEQEAE00AEAV?$allocator@E@0@U_Really_trivial_ptr_iterator_tag@0@U?$integral_constant@_N$00@0@@Z
	??$_Uninitialized_move_al_unchecked@FFV?$allocator@F@std@@@std@@YAPEAFQEAF00AEAV?$allocator@F@0@U_Really_trivial_ptr_iterator_tag@0@U?$integral_constant@_N$00@0@@Z
	??$_Uninitialized_move_al_unchecked@GGV?$allocator@G@std@@@std@@YAPEAGQEAG00AEAV?$allocator@G@0@U_Really_trivial_ptr_iterator_tag@0@U?$integral_constant@_N$00@0@@Z
	??$_Uninitialized_move_al_unchecked@HHV?$allocator@H@std@@@std@@YAPEAHQEAH00AEAV?$allocator@H@0@U_Really_trivial_ptr_iterator_tag@0@U?$integral_constant@_N$00@0@@Z
	??$_Uninitialized_move_al_unchecked@MMV?$allocator@M@std@@@std@@YAPEAMQEAM00AEAV?$allocator@M@0@U_Really_trivial_ptr_iterator_tag@0@U?$integral_constant@_N$00@0@@Z
	??$_Uninitialized_move_al_unchecked@PEAUCommand@?$WorkerThread@V?$Optional@VCallbackWorkItem@sensors@libeYs3D@@@base@libeYs3D@@@base@libeYs3D@@PEAU1234@V?$allocator@UCommand@?$WorkerThread@V?$Optional@VCallbackWorkItem@sensors@libeYs3D@@@base@libeYs3D@@@base@libeYs3D@@@std@@@std@@YAPEAUCommand@?$WorkerThread@V?$Optional@VCallbackWorkItem@sensors@libeYs3D@@@base@libeYs3D@@@base@libeYs3D@@PEAU1234@QEAU1234@1AEAV?$allocator@UCommand@?$WorkerThread@V?$Optional@VCallbackWorkItem@sensors@libeYs3D@@@base@libeYs3D@@@base@libeYs3D@@@0@U_General_ptr_iterator_tag@0@U_Unused_parameter@0@@Z
	??$_Uninitialized_move_al_unchecked@PEAUCommand@?$WorkerThread@V?$Optional@VCallbackWorkItem@video@libeYs3D@@@base@libeYs3D@@@base@libeYs3D@@PEAU1234@V?$allocator@UCommand@?$WorkerThread@V?$Optional@VCallbackWorkItem@video@libeYs3D@@@base@libeYs3D@@@base@libeYs3D@@@std@@@std@@YAPEAUCommand@?$WorkerThread@V?$Optional@VCallbackWorkItem@video@libeYs3D@@@base@libeYs3D@@@base@libeYs3D@@PEAU1234@QEAU1234@1AEAV?$allocator@UCommand@?$WorkerThread@V?$Optional@VCallbackWorkItem@video@libeYs3D@@@base@libeYs3D@@@base@libeYs3D@@@0@U_General_ptr_iterator_tag@0@U_Unused_parameter@0@@Z
	??$_Uninitialized_move_al_unchecked@PEAUCommand@?$WorkerThread@V?$Optional@VDACalculateWorkItem@video@libeYs3D@@@base@libeYs3D@@@base@libeYs3D@@PEAU1234@V?$allocator@UCommand@?$WorkerThread@V?$Optional@VDACalculateWorkItem@video@libeYs3D@@@base@libeYs3D@@@base@libeYs3D@@@std@@@std@@YAPEAUCommand@?$WorkerThread@V?$Optional@VDACalculateWorkItem@video@libeYs3D@@@base@libeYs3D@@@base@libeYs3D@@PEAU1234@QEAU1234@1AEAV?$allocator@UCommand@?$WorkerThread@V?$Optional@VDACalculateWorkItem@video@libeYs3D@@@base@libeYs3D@@@base@libeYs3D@@@0@U_General_ptr_iterator_tag@0@U_Unused_parameter@0@@Z
	??$_Uninitialized_move_al_unchecked@PEAUMODE_CONFIG@ModeConfig@@PEAU12@V?$allocator@UMODE_CONFIG@ModeConfig@@@std@@@std@@YAPEAUMODE_CONFIG@ModeConfig@@PEAU12@QEAU12@1AEAV?$allocator@UMODE_CONFIG@ModeConfig@@@0@U_General_ptr_iterator_tag@0@U_Unused_parameter@0@@Z
	??$_Uninitialized_move_al_unchecked@PEAUSensorData@sensors@libeYs3D@@PEAU123@V?$allocator@USensorData@sensors@libeYs3D@@@std@@@std@@YAPEAUSensorData@sensors@libeYs3D@@PEAU123@QEAU123@1AEAV?$allocator@USensorData@sensors@libeYs3D@@@0@U_General_ptr_iterator_tag@0@U_Unused_parameter@0@@Z
	??$_Uninitialized_move_al_unchecked@PEAV?$basic_string@DU?$char_traits@D@std@@V?$allocator@D@2@@std@@PEAV12@V?$allocator@V?$basic_string@DU?$char_traits@D@std@@V?$allocator@D@2@@std@@@2@@std@@YAPEAV?$basic_string@DU?$char_traits@D@std@@V?$allocator@D@2@@0@PEAV10@QEAV10@1AEAV?$allocator@V?$basic_string@DU?$char_traits@D@std@@V?$allocator@D@2@@std@@@0@U_General_ptr_iterator_tag@0@U_Unused_parameter@0@@Z
	??$_Uninitialized_move_al_unchecked@UCloudPoint@@U1@V?$allocator@UCloudPoint@@@std@@@std@@YAPEAUCloudPoint@@QEAU1@00AEAV?$allocator@UCloudPoint@@@0@U_Really_trivial_ptr_iterator_tag@0@U?$integral_constant@_N$00@0@@Z
	??$_Uninitialized_move_al_unchecked@UtagAPC_STREAM_INFO@@U1@V?$allocator@UtagAPC_STREAM_INFO@@@std@@@std@@YAPEAUtagAPC_STREAM_INFO@@QEAU1@00AEAV?$allocator@UtagAPC_STREAM_INFO@@@0@U_Really_trivial_ptr_iterator_tag@0@U?$integral_constant@_N$00@0@@Z
	??$_Uninitialized_value_construct_n1@PEAE_KV?$allocator@E@std@@@std@@YAPEAEPEAE_KAEAV?$allocator@E@0@U?$integral_constant@_N$00@0@@Z
	??$_Uninitialized_value_construct_n1@PEAG_KV?$allocator@G@std@@@std@@YAPEAGPEAG_KAEAV?$allocator@G@0@U?$integral_constant@_N$00@0@@Z
	??$_Uninitialized_value_construct_n1@PEAM_KV?$allocator@M@std@@@std@@YAPEAMPEAM_KAEAV?$allocator@M@0@U?$integral_constant@_N$00@0@@Z
	??$_Uninitialized_value_construct_n1@PEAUSensorData@sensors@libeYs3D@@_KV?$allocator@USensorData@sensors@libeYs3D@@@std@@@std@@YAPEAUSensorData@sensors@libeYs3D@@QEAU123@_KAEAV?$allocator@USensorData@sensors@libeYs3D@@@0@U?$integral_constant@_N$0A@@0@@Z
	??$_Uninitialized_value_construct_n1@PEAV?$Optional@V?$WorkerThread@V?$Optional@VCallbackWorkItem@sensors@libeYs3D@@@base@libeYs3D@@@base@libeYs3D@@@base@libeYs3D@@_KV?$allocator@V?$Optional@V?$WorkerThread@V?$Optional@VCallbackWorkItem@sensors@libeYs3D@@@base@libeYs3D@@@base@libeYs3D@@@base@libeYs3D@@@std@@@std@@YAPEAV?$Optional@V?$WorkerThread@V?$Optional@VCallbackWorkItem@sensors@libeYs3D@@@base@libeYs3D@@@base@libeYs3D@@@base@libeYs3D@@QEAV123@_KAEAV?$allocator@V?$Optional@V?$WorkerThread@V?$Optional@VCallbackWorkItem@sensors@libeYs3D@@@base@libeYs3D@@@base@libeYs3D@@@base@libeYs3D@@@0@U?$integral_constant@_N$0A@@0@@Z
	??$_Uninitialized_value_construct_n1@PEAV?$Optional@V?$WorkerThread@V?$Optional@VCallbackWorkItem@video@libeYs3D@@@base@libeYs3D@@@base@libeYs3D@@@base@libeYs3D@@_KV?$allocator@V?$Optional@V?$WorkerThread@V?$Optional@VCallbackWorkItem@video@libeYs3D@@@base@libeYs3D@@@base@libeYs3D@@@base@libeYs3D@@@std@@@std@@YAPEAV?$Optional@V?$WorkerThread@V?$Optional@VCallbackWorkItem@video@libeYs3D@@@base@libeYs3D@@@base@libeYs3D@@@base@libeYs3D@@QEAV123@_KAEAV?$allocator@V?$Optional@V?$WorkerThread@V?$Optional@VCallbackWorkItem@video@libeYs3D@@@base@libeYs3D@@@base@libeYs3D@@@base@libeYs3D@@@0@U?$integral_constant@_N$0A@@0@@Z
	??$_Uninitialized_value_construct_n1@PEAV?$Optional@V?$WorkerThread@V?$Optional@VDACalculateWorkItem@video@libeYs3D@@@base@libeYs3D@@@base@libeYs3D@@@base@libeYs3D@@_KV?$allocator@V?$Optional@V?$WorkerThread@V?$Optional@VDACalculateWorkItem@video@libeYs3D@@@base@libeYs3D@@@base@libeYs3D@@@base@libeYs3D@@@std@@@std@@YAPEAV?$Optional@V?$WorkerThread@V?$Optional@VDACalculateWorkItem@video@libeYs3D@@@base@libeYs3D@@@base@libeYs3D@@@base@libeYs3D@@QEAV123@_KAEAV?$allocator@V?$Optional@V?$WorkerThread@V?$Optional@VDACalculateWorkItem@video@libeYs3D@@@base@libeYs3D@@@base@libeYs3D@@@base@libeYs3D@@@0@U?$integral_constant@_N$0A@@0@@Z
	??$_Uninitialized_value_construct_n@PEAE_KV?$allocator@E@std@@@std@@YAPEAEPEAE_KAEAV?$allocator@E@0@@Z
	??$_Uninitialized_value_construct_n@PEAG_KV?$allocator@G@std@@@std@@YAPEAGPEAG_KAEAV?$allocator@G@0@@Z
	??$_Uninitialized_value_construct_n@PEAM_KV?$allocator@M@std@@@std@@YAPEAMPEAM_KAEAV?$allocator@M@0@@Z
	??$_Uninitialized_value_construct_n@PEAUSensorData@sensors@libeYs3D@@_KV?$allocator@USensorData@sensors@libeYs3D@@@std@@@std@@YAPEAUSensorData@sensors@libeYs3D@@PEAU123@_KAEAV?$allocator@USensorData@sensors@libeYs3D@@@0@@Z
	??$_Uninitialized_value_construct_n@PEAV?$Optional@V?$WorkerThread@V?$Optional@VCallbackWorkItem@sensors@libeYs3D@@@base@libeYs3D@@@base@libeYs3D@@@base@libeYs3D@@_KV?$allocator@V?$Optional@V?$WorkerThread@V?$Optional@VCallbackWorkItem@sensors@libeYs3D@@@base@libeYs3D@@@base@libeYs3D@@@base@libeYs3D@@@std@@@std@@YAPEAV?$Optional@V?$WorkerThread@V?$Optional@VCallbackWorkItem@sensors@libeYs3D@@@base@libeYs3D@@@base@libeYs3D@@@base@libeYs3D@@PEAV123@_KAEAV?$allocator@V?$Optional@V?$WorkerThread@V?$Optional@VCallbackWorkItem@sensors@libeYs3D@@@base@libeYs3D@@@base@libeYs3D@@@base@libeYs3D@@@0@@Z
	??$_Uninitialized_value_construct_n@PEAV?$Optional@V?$WorkerThread@V?$Optional@VCallbackWorkItem@video@libeYs3D@@@base@libeYs3D@@@base@libeYs3D@@@base@libeYs3D@@_KV?$allocator@V?$Optional@V?$WorkerThread@V?$Optional@VCallbackWorkItem@video@libeYs3D@@@base@libeYs3D@@@base@libeYs3D@@@base@libeYs3D@@@std@@@std@@YAPEAV?$Optional@V?$WorkerThread@V?$Optional@VCallbackWorkItem@video@libeYs3D@@@base@libeYs3D@@@base@libeYs3D@@@base@libeYs3D@@PEAV123@_KAEAV?$allocator@V?$Optional@V?$WorkerThread@V?$Optional@VCallbackWorkItem@video@libeYs3D@@@base@libeYs3D@@@base@libeYs3D@@@base@libeYs3D@@@0@@Z
	??$_Uninitialized_value_construct_n@PEAV?$Optional@V?$WorkerThread@V?$Optional@VDACalculateWorkItem@video@libeYs3D@@@base@libeYs3D@@@base@libeYs3D@@@base@libeYs3D@@_KV?$allocator@V?$Optional@V?$WorkerThread@V?$Optional@VDACalculateWorkItem@video@libeYs3D@@@base@libeYs3D@@@base@libeYs3D@@@base@libeYs3D@@@std@@@std@@YAPEAV?$Optional@V?$WorkerThread@V?$Optional@VDACalculateWorkItem@video@libeYs3D@@@base@libeYs3D@@@base@libeYs3D@@@base@libeYs3D@@PEAV123@_KAEAV?$allocator@V?$Optional@V?$WorkerThread@V?$Optional@VDACalculateWorkItem@video@libeYs3D@@@base@libeYs3D@@@base@libeYs3D@@@base@libeYs3D@@@0@@Z
	??$_Verify_range@E@std@@YAXQEBE0@Z
	??$_Verify_range@U?$pair@$$CBW4IMUPacketSymbol@IMUData@@_K@std@@@std@@YAXQEBU?$pair@$$CBW4IMUPacketSymbol@IMUData@@_K@0@0@Z
	??$_Zero_range@PEAE@std@@YAPEAEQEAE0@Z
	??$_Zero_range@PEAG@std@@YAPEAGQEAG0@Z
	??$_Zero_range@PEAM@std@@YAPEAMQEAM0@Z
	??$addressof@$$CBV<lambda_488c629a0a7c1ecc954ac8047e960599>@@@std@@YAPEBV<lambda_488c629a0a7c1ecc954ac8047e960599>@@AEBV1@@Z
	??$addressof@$$CBV<lambda_4cde73e63763cb313bd212247f8ddbb0>@@@std@@YAPEBV<lambda_4cde73e63763cb313bd212247f8ddbb0>@@AEBV1@@Z
	??$addressof@$$CBV<lambda_530843cc44829e3530ea01af34e42038>@@@std@@YAPEBV<lambda_530843cc44829e3530ea01af34e42038>@@AEBV1@@Z
	??$addressof@$$CBV<lambda_69d578ede27bd906c7e1bc689c004001>@@@std@@YAPEBV<lambda_69d578ede27bd906c7e1bc689c004001>@@AEBV1@@Z
	??$addressof@$$CBV<lambda_9f92d7825455e143dbf3293131d714f3>@@@std@@YAPEBV<lambda_9f92d7825455e143dbf3293131d714f3>@@AEBV1@@Z
	??$addressof@$$CBV<lambda_fd68a9891d2d9d887c20652be0ece82a>@@@std@@YAPEBV<lambda_fd68a9891d2d9d887c20652be0ece82a>@@AEBV1@@Z
	??$addressof@$$CBV?$_Binder@U_Unforced@std@@P8DepthFrameProducer@video@libeYs3D@@EAAXPEAVFrame@45@@ZPEAV345@AEBU?$_Ph@$00@2@@std@@@std@@YAPEBV?$_Binder@U_Unforced@std@@P8DepthFrameProducer@video@libeYs3D@@EAAXPEAVFrame@45@@ZPEAV345@AEBU?$_Ph@$00@2@@0@AEBV10@@Z
	??$addressof@$$CBV?$_Binder@U_Unforced@std@@P8FrameProducer@video@libeYs3D@@EAA_NPEBUSensorDataSet@sensors@5@@ZPEAV345@AEBU?$_Ph@$00@2@@std@@@std@@YAPEBV?$_Binder@U_Unforced@std@@P8FrameProducer@video@libeYs3D@@EAA_NPEBUSensorDataSet@sensors@5@@ZPEAV345@AEBU?$_Ph@$00@2@@0@AEBV10@@Z
	??$addressof@$$CBV?$_Binder@U_Unforced@std@@P8FrameProducer@video@libeYs3D@@EAA_NPEBVFrame@45@@ZPEAV345@AEBU?$_Ph@$00@2@@std@@@std@@YAPEBV?$_Binder@U_Unforced@std@@P8FrameProducer@video@libeYs3D@@EAA_NPEBVFrame@45@@ZPEAV345@AEBU?$_Ph@$00@2@@0@AEBV10@@Z
	??$addressof@$$CBV?$_Binder@U_Unforced@std@@P8FrameSetPipeline@devices@libeYs3D@@EAA_NPEBVFrame@video@5@@ZPEAV345@AEBU?$_Ph@$00@2@@std@@@std@@YAPEBV?$_Binder@U_Unforced@std@@P8FrameSetPipeline@devices@libeYs3D@@EAA_NPEBVFrame@video@5@@ZPEAV345@AEBU?$_Ph@$00@2@@0@AEBV10@@Z
	??$addressof@$$CBV?$_Binder@U_Unforced@std@@P8FrameSetPipeline@devices@libeYs3D@@EAA_NPEBVPCFrame@video@5@@ZPEAV345@AEBU?$_Ph@$00@2@@std@@@std@@YAPEBV?$_Binder@U_Unforced@std@@P8FrameSetPipeline@devices@libeYs3D@@EAA_NPEBVPCFrame@video@5@@ZPEAV345@AEBU?$_Ph@$00@2@@0@AEBV10@@Z
	??$addressof@$$CBV?$_Binder@U_Unforced@std@@P8PCFrameProducer@video@libeYs3D@@EAA_NPEBVFrame@45@@ZPEAV345@AEBU?$_Ph@$00@2@@std@@@std@@YAPEBV?$_Binder@U_Unforced@std@@P8PCFrameProducer@video@libeYs3D@@EAA_NPEBVFrame@45@@ZPEAV345@AEBU?$_Ph@$00@2@@0@AEBV10@@Z
	??$addressof@$$CBV?$_Binder@U_Unforced@std@@P8Pipeline@devices@libeYs3D@@EAA_NPEBUSensorData@sensors@5@@ZPEAV345@AEBU?$_Ph@$00@2@@std@@@std@@YAPEBV?$_Binder@U_Unforced@std@@P8Pipeline@devices@libeYs3D@@EAA_NPEBUSensorData@sensors@5@@ZPEAV345@AEBU?$_Ph@$00@2@@0@AEBV10@@Z
	??$addressof@$$CBV?$_Binder@U_Unforced@std@@P8Pipeline@devices@libeYs3D@@EAA_NPEBVFrame@video@5@@ZPEAV345@AEBU?$_Ph@$00@2@@std@@@std@@YAPEBV?$_Binder@U_Unforced@std@@P8Pipeline@devices@libeYs3D@@EAA_NPEBVFrame@video@5@@ZPEAV345@AEBU?$_Ph@$00@2@@0@AEBV10@@Z
	??$addressof@$$CBV?$_Binder@U_Unforced@std@@P8Pipeline@devices@libeYs3D@@EAA_NPEBVPCFrame@video@5@@ZPEAV345@AEBU?$_Ph@$00@2@@std@@@std@@YAPEBV?$_Binder@U_Unforced@std@@P8Pipeline@devices@libeYs3D@@EAA_NPEBVPCFrame@video@5@@ZPEAV345@AEBU?$_Ph@$00@2@@0@AEBV10@@Z
	??$addressof@$$CBV?$_Binder@U_Unforced@std@@P8SensorDataProducer@sensors@libeYs3D@@EAA_NPEBUSensorDataSet@45@@ZPEAV345@AEBU?$_Ph@$00@2@@std@@@std@@YAPEBV?$_Binder@U_Unforced@std@@P8SensorDataProducer@sensors@libeYs3D@@EAA_NPEBUSensorDataSet@45@@ZPEAV345@AEBU?$_Ph@$00@2@@0@AEBV10@@Z
	??$addressof@$$CBV?$_List_val@U?$_List_simple_types@V?$vector@FV?$allocator@F@std@@@std@@@std@@@std@@@std@@YAPEBV?$_List_val@U?$_List_simple_types@V?$vector@FV?$allocator@F@std@@@std@@@std@@@0@AEBV10@@Z
	??$addressof@$$CBV?$_Tree_val@U?$_Tree_simple_types@U?$pair@$$CBU?$pair@GG@std@@V?$vector@V?$basic_string@DU?$char_traits@D@std@@V?$allocator@D@2@@std@@V?$allocator@V?$basic_string@DU?$char_traits@D@std@@V?$allocator@D@2@@std@@@2@@2@@std@@@std@@@std@@@std@@YAPEBV?$_Tree_val@U?$_Tree_simple_types@U?$pair@$$CBU?$pair@GG@std@@V?$vector@V?$basic_string@DU?$char_traits@D@std@@V?$allocator@D@2@@std@@V?$allocator@V?$basic_string@DU?$char_traits@D@std@@V?$allocator@D@2@@std@@@2@@2@@std@@@std@@@0@AEBV10@@Z
	??$addressof@$$CBV?$codecvt@DDU_Mbstatet@@@std@@@std@@YAPEBV?$codecvt@DDU_Mbstatet@@@0@AEBV10@@Z
	??$addressof@$$CBV?$vector@EV?$allocator@E@std@@@std@@@std@@YAPEBV?$vector@EV?$allocator@E@std@@@0@AEBV10@@Z
	??$addressof@D@std@@YAPEADAEAD@Z
	??$addressof@PEAD@std@@YAPEAPEADAEAPEAD@Z
	??$addressof@PEAU?$_List_node@V?$vector@FV?$allocator@F@std@@@std@@PEAX@std@@@std@@YAPEAPEAU?$_List_node@V?$vector@FV?$allocator@F@std@@@std@@PEAX@0@AEAPEAU10@@Z
	??$addressof@PEAU?$_Tree_node@U?$pair@$$CBHH@std@@PEAX@std@@@std@@YAPEAPEAU?$_Tree_node@U?$pair@$$CBHH@std@@PEAX@0@AEAPEAU10@@Z
	??$addressof@PEAU?$_Tree_node@U?$pair@$$CBHUPID_TABLE@ModeConfig@@@std@@PEAX@std@@@std@@YAPEAPEAU?$_Tree_node@U?$pair@$$CBHUPID_TABLE@ModeConfig@@@std@@PEAX@0@AEAPEAU10@@Z
	??$addressof@PEAU?$_Tree_node@U?$pair@$$CBU?$pair@GG@std@@V?$vector@V?$basic_string@DU?$char_traits@D@std@@V?$allocator@D@2@@std@@V?$allocator@V?$basic_string@DU?$char_traits@D@std@@V?$allocator@D@2@@std@@@2@@2@@std@@PEAX@std@@@std@@YAPEAPEAU?$_Tree_node@U?$pair@$$CBU?$pair@GG@std@@V?$vector@V?$basic_string@DU?$char_traits@D@std@@V?$allocator@D@2@@std@@V?$allocator@V?$basic_string@DU?$char_traits@D@std@@V?$allocator@D@2@@std@@@2@@2@@std@@PEAX@0@AEAPEAU10@@Z
	??$addressof@PEAU?$_Tree_node@U?$pair@$$CBUDeviceSellectInfo@libeYs3D@@V?$shared_ptr@VCameraDevice@devices@libeYs3D@@@std@@@std@@PEAX@std@@@std@@YAPEAPEAU?$_Tree_node@U?$pair@$$CBUDeviceSellectInfo@libeYs3D@@V?$shared_ptr@VCameraDevice@devices@libeYs3D@@@std@@@std@@PEAX@0@AEAPEAU10@@Z
	??$addressof@PEAU?$_Tree_node@U?$pair@$$CBW4IMUPacketSymbol@IMUData@@_K@std@@PEAX@std@@@std@@YAPEAPEAU?$_Tree_node@U?$pair@$$CBW4IMUPacketSymbol@IMUData@@_K@std@@PEAX@0@AEAPEAU10@@Z
	??$addressof@U?$pair@$$CBHH@std@@@std@@YAPEAU?$pair@$$CBHH@0@AEAU10@@Z
	??$addressof@U?$pair@$$CBHUPID_TABLE@ModeConfig@@@std@@@std@@YAPEAU?$pair@$$CBHUPID_TABLE@ModeConfig@@@0@AEAU10@@Z
	??$addressof@U?$pair@$$CBU?$pair@GG@std@@V?$vector@V?$basic_string@DU?$char_traits@D@std@@V?$allocator@D@2@@std@@V?$allocator@V?$basic_string@DU?$char_traits@D@std@@V?$allocator@D@2@@std@@@2@@2@@std@@@std@@YAPEAU?$pair@$$CBU?$pair@GG@std@@V?$vector@V?$basic_string@DU?$char_traits@D@std@@V?$allocator@D@2@@std@@V?$allocator@V?$basic_string@DU?$char_traits@D@std@@V?$allocator@D@2@@std@@@2@@2@@0@AEAU10@@Z
	??$addressof@U?$pair@$$CBUDeviceSellectInfo@libeYs3D@@V?$shared_ptr@VCameraDevice@devices@libeYs3D@@@std@@@std@@@std@@YAPEAU?$pair@$$CBUDeviceSellectInfo@libeYs3D@@V?$shared_ptr@VCameraDevice@devices@libeYs3D@@@std@@@0@AEAU10@@Z
	??$addressof@U?$pair@$$CBW4IMUPacketSymbol@IMUData@@_K@std@@@std@@YAPEAU?$pair@$$CBW4IMUPacketSymbol@IMUData@@_K@0@AEAU10@@Z
	??$addressof@V?$_List_const_iterator@V?$_List_val@U?$_List_simple_types@V?$vector@FV?$allocator@F@std@@@std@@@std@@@std@@@std@@@std@@YAPEAV?$_List_const_iterator@V?$_List_val@U?$_List_simple_types@V?$vector@FV?$allocator@F@std@@@std@@@std@@@std@@@0@AEAV10@@Z
	??$addressof@V?$_List_val@U?$_List_simple_types@V?$vector@FV?$allocator@F@std@@@std@@@std@@@std@@@std@@YAPEAV?$_List_val@U?$_List_simple_types@V?$vector@FV?$allocator@F@std@@@std@@@std@@@0@AEAV10@@Z
	??$addressof@V?$_String_val@U?$_Simple_types@D@std@@@std@@@std@@YAPEAV?$_String_val@U?$_Simple_types@D@std@@@0@AEAV10@@Z
	??$addressof@V?$_Tree_val@U?$_Tree_simple_types@U?$pair@$$CBHH@std@@@std@@@std@@@std@@YAPEAV?$_Tree_val@U?$_Tree_simple_types@U?$pair@$$CBHH@std@@@std@@@0@AEAV10@@Z
	??$addressof@V?$_Tree_val@U?$_Tree_simple_types@U?$pair@$$CBHUPID_TABLE@ModeConfig@@@std@@@std@@@std@@@std@@YAPEAV?$_Tree_val@U?$_Tree_simple_types@U?$pair@$$CBHUPID_TABLE@ModeConfig@@@std@@@std@@@0@AEAV10@@Z
	??$addressof@V?$_Tree_val@U?$_Tree_simple_types@U?$pair@$$CBU?$pair@GG@std@@V?$vector@V?$basic_string@DU?$char_traits@D@std@@V?$allocator@D@2@@std@@V?$allocator@V?$basic_string@DU?$char_traits@D@std@@V?$allocator@D@2@@std@@@2@@2@@std@@@std@@@std@@@std@@YAPEAV?$_Tree_val@U?$_Tree_simple_types@U?$pair@$$CBU?$pair@GG@std@@V?$vector@V?$basic_string@DU?$char_traits@D@std@@V?$allocator@D@2@@std@@V?$allocator@V?$basic_string@DU?$char_traits@D@std@@V?$allocator@D@2@@std@@@2@@2@@std@@@std@@@0@AEAV10@@Z
	??$addressof@V?$_Tree_val@U?$_Tree_simple_types@U?$pair@$$CBUDeviceSellectInfo@libeYs3D@@V?$shared_ptr@VCameraDevice@devices@libeYs3D@@@std@@@std@@@std@@@std@@@std@@YAPEAV?$_Tree_val@U?$_Tree_simple_types@U?$pair@$$CBUDeviceSellectInfo@libeYs3D@@V?$shared_ptr@VCameraDevice@devices@libeYs3D@@@std@@@std@@@std@@@0@AEAV10@@Z
	??$addressof@V?$_Tree_val@U?$_Tree_simple_types@U?$pair@$$CBW4IMUPacketSymbol@IMUData@@_K@std@@@std@@@std@@@std@@YAPEAV?$_Tree_val@U?$_Tree_simple_types@U?$pair@$$CBW4IMUPacketSymbol@IMUData@@_K@std@@@std@@@0@AEAV10@@Z
	??$addressof@V?$_Vector_val@U?$_Simple_types@E@std@@@std@@@std@@YAPEAV?$_Vector_val@U?$_Simple_types@E@std@@@0@AEAV10@@Z
	??$addressof@V?$_Vector_val@U?$_Simple_types@F@std@@@std@@@std@@YAPEAV?$_Vector_val@U?$_Simple_types@F@std@@@0@AEAV10@@Z
	??$addressof@V?$_Vector_val@U?$_Simple_types@G@std@@@std@@@std@@YAPEAV?$_Vector_val@U?$_Simple_types@G@std@@@0@AEAV10@@Z
	??$addressof@V?$_Vector_val@U?$_Simple_types@H@std@@@std@@@std@@YAPEAV?$_Vector_val@U?$_Simple_types@H@std@@@0@AEAV10@@Z
	??$addressof@V?$_Vector_val@U?$_Simple_types@M@std@@@std@@@std@@YAPEAV?$_Vector_val@U?$_Simple_types@M@std@@@0@AEAV10@@Z
	??$addressof@V?$_Vector_val@U?$_Simple_types@UCloudPoint@@@std@@@std@@@std@@YAPEAV?$_Vector_val@U?$_Simple_types@UCloudPoint@@@std@@@0@AEAV10@@Z
	??$addressof@V?$_Vector_val@U?$_Simple_types@UCommand@?$WorkerThread@V?$Optional@VCallbackWorkItem@sensors@libeYs3D@@@base@libeYs3D@@@base@libeYs3D@@@std@@@std@@@std@@YAPEAV?$_Vector_val@U?$_Simple_types@UCommand@?$WorkerThread@V?$Optional@VCallbackWorkItem@sensors@libeYs3D@@@base@libeYs3D@@@base@libeYs3D@@@std@@@0@AEAV10@@Z
	??$addressof@V?$_Vector_val@U?$_Simple_types@UCommand@?$WorkerThread@V?$Optional@VCallbackWorkItem@video@libeYs3D@@@base@libeYs3D@@@base@libeYs3D@@@std@@@std@@@std@@YAPEAV?$_Vector_val@U?$_Simple_types@UCommand@?$WorkerThread@V?$Optional@VCallbackWorkItem@video@libeYs3D@@@base@libeYs3D@@@base@libeYs3D@@@std@@@0@AEAV10@@Z
	??$addressof@V?$_Vector_val@U?$_Simple_types@UCommand@?$WorkerThread@V?$Optional@VDACalculateWorkItem@video@libeYs3D@@@base@libeYs3D@@@base@libeYs3D@@@std@@@std@@@std@@YAPEAV?$_Vector_val@U?$_Simple_types@UCommand@?$WorkerThread@V?$Optional@VDACalculateWorkItem@video@libeYs3D@@@base@libeYs3D@@@base@libeYs3D@@@std@@@0@AEAV10@@Z
	??$addressof@V?$_Vector_val@U?$_Simple_types@UMODE_CONFIG@ModeConfig@@@std@@@std@@@std@@YAPEAV?$_Vector_val@U?$_Simple_types@UMODE_CONFIG@ModeConfig@@@std@@@0@AEAV10@@Z
	??$addressof@V?$_Vector_val@U?$_Simple_types@USensorData@sensors@libeYs3D@@@std@@@std@@@std@@YAPEAV?$_Vector_val@U?$_Simple_types@USensorData@sensors@libeYs3D@@@std@@@0@AEAV10@@Z
	??$addressof@V?$_Vector_val@U?$_Simple_types@UtagAPC_STREAM_INFO@@@std@@@std@@@std@@YAPEAV?$_Vector_val@U?$_Simple_types@UtagAPC_STREAM_INFO@@@std@@@0@AEAV10@@Z
	??$addressof@V?$_Vector_val@U?$_Simple_types@V?$Optional@V?$WorkerThread@V?$Optional@VCallbackWorkItem@sensors@libeYs3D@@@base@libeYs3D@@@base@libeYs3D@@@base@libeYs3D@@@std@@@std@@@std@@YAPEAV?$_Vector_val@U?$_Simple_types@V?$Optional@V?$WorkerThread@V?$Optional@VCallbackWorkItem@sensors@libeYs3D@@@base@libeYs3D@@@base@libeYs3D@@@base@libeYs3D@@@std@@@0@AEAV10@@Z
	??$addressof@V?$_Vector_val@U?$_Simple_types@V?$Optional@V?$WorkerThread@V?$Optional@VCallbackWorkItem@video@libeYs3D@@@base@libeYs3D@@@base@libeYs3D@@@base@libeYs3D@@@std@@@std@@@std@@YAPEAV?$_Vector_val@U?$_Simple_types@V?$Optional@V?$WorkerThread@V?$Optional@VCallbackWorkItem@video@libeYs3D@@@base@libeYs3D@@@base@libeYs3D@@@base@libeYs3D@@@std@@@0@AEAV10@@Z
	??$addressof@V?$_Vector_val@U?$_Simple_types@V?$Optional@V?$WorkerThread@V?$Optional@VDACalculateWorkItem@video@libeYs3D@@@base@libeYs3D@@@base@libeYs3D@@@base@libeYs3D@@@std@@@std@@@std@@YAPEAV?$_Vector_val@U?$_Simple_types@V?$Optional@V?$WorkerThread@V?$Optional@VDACalculateWorkItem@video@libeYs3D@@@base@libeYs3D@@@base@libeYs3D@@@base@libeYs3D@@@std@@@0@AEAV10@@Z
	??$addressof@V?$_Vector_val@U?$_Simple_types@V?$basic_string@DU?$char_traits@D@std@@V?$allocator@D@2@@std@@@std@@@std@@@std@@YAPEAV?$_Vector_val@U?$_Simple_types@V?$basic_string@DU?$char_traits@D@std@@V?$allocator@D@2@@std@@@std@@@0@AEAV10@@Z
	??$addressof@V?$_Vector_val@U?$_Simple_types@W4IMU_DATA_FORMAT@IMUDevice@devices@libeYs3D@@@std@@@std@@@std@@YAPEAV?$_Vector_val@U?$_Simple_types@W4IMU_DATA_FORMAT@IMUDevice@devices@libeYs3D@@@std@@@0@AEAV10@@Z
	??$addressof@V?$function@$$A6A_NPEBUSensorData@sensors@libeYs3D@@@Z@std@@@std@@YAPEAV?$function@$$A6A_NPEBUSensorData@sensors@libeYs3D@@@Z@0@AEAV10@@Z
	??$addressof@V?$function@$$A6A_NPEBUSensorDataSet@sensors@libeYs3D@@@Z@std@@@std@@YAPEAV?$function@$$A6A_NPEBUSensorDataSet@sensors@libeYs3D@@@Z@0@AEAV10@@Z
	??$addressof@V?$function@$$A6A_NPEBVFrame@video@libeYs3D@@@Z@std@@@std@@YAPEAV?$function@$$A6A_NPEBVFrame@video@libeYs3D@@@Z@0@AEAV10@@Z
	??$addressof@V?$function@$$A6A_NPEBVPCFrame@video@libeYs3D@@@Z@std@@@std@@YAPEAV?$function@$$A6A_NPEBVPCFrame@video@libeYs3D@@@Z@0@AEAV10@@Z
	??$addressof@V?$list@V?$vector@FV?$allocator@F@std@@@std@@V?$allocator@V?$vector@FV?$allocator@F@std@@@std@@@2@@std@@@std@@YAPEAV?$list@V?$vector@FV?$allocator@F@std@@@std@@V?$allocator@V?$vector@FV?$allocator@F@std@@@std@@@2@@0@AEAV10@@Z
	??$addressof@V?$unique_ptr@VFrameProducer@video@libeYs3D@@U?$default_delete@VFrameProducer@video@libeYs3D@@@std@@@std@@@std@@YAPEAV?$unique_ptr@VFrameProducer@video@libeYs3D@@U?$default_delete@VFrameProducer@video@libeYs3D@@@std@@@0@AEAV10@@Z
	??$addressof@V?$unique_ptr@VPCProducer@video@libeYs3D@@U?$default_delete@VPCProducer@video@libeYs3D@@@std@@@std@@@std@@YAPEAV?$unique_ptr@VPCProducer@video@libeYs3D@@U?$default_delete@VPCProducer@video@libeYs3D@@@std@@@0@AEAV10@@Z
	??$addressof@V?$vector@EV?$allocator@E@std@@@std@@@std@@YAPEAV?$vector@EV?$allocator@E@std@@@0@AEAV10@@Z
	??$addressof@V?$vector@FV?$allocator@F@std@@@std@@@std@@YAPEAV?$vector@FV?$allocator@F@std@@@0@AEAV10@@Z
	??$addressof@V?$vector@GV?$allocator@G@std@@@std@@@std@@YAPEAV?$vector@GV?$allocator@G@std@@@0@AEAV10@@Z
	??$addressof@V?$vector@MV?$allocator@M@std@@@std@@@std@@YAPEAV?$vector@MV?$allocator@M@std@@@0@AEAV10@@Z
	??$addressof@V?$vector@UCommand@?$WorkerThread@V?$Optional@VCallbackWorkItem@sensors@libeYs3D@@@base@libeYs3D@@@base@libeYs3D@@V?$allocator@UCommand@?$WorkerThread@V?$Optional@VCallbackWorkItem@sensors@libeYs3D@@@base@libeYs3D@@@base@libeYs3D@@@std@@@std@@@std@@YAPEAV?$vector@UCommand@?$WorkerThread@V?$Optional@VCallbackWorkItem@sensors@libeYs3D@@@base@libeYs3D@@@base@libeYs3D@@V?$allocator@UCommand@?$WorkerThread@V?$Optional@VCallbackWorkItem@sensors@libeYs3D@@@base@libeYs3D@@@base@libeYs3D@@@std@@@0@AEAV10@@Z
	??$addressof@V?$vector@UCommand@?$WorkerThread@V?$Optional@VCallbackWorkItem@video@libeYs3D@@@base@libeYs3D@@@base@libeYs3D@@V?$allocator@UCommand@?$WorkerThread@V?$Optional@VCallbackWorkItem@video@libeYs3D@@@base@libeYs3D@@@base@libeYs3D@@@std@@@std@@@std@@YAPEAV?$vector@UCommand@?$WorkerThread@V?$Optional@VCallbackWorkItem@video@libeYs3D@@@base@libeYs3D@@@base@libeYs3D@@V?$allocator@UCommand@?$WorkerThread@V?$Optional@VCallbackWorkItem@video@libeYs3D@@@base@libeYs3D@@@base@libeYs3D@@@std@@@0@AEAV10@@Z
	??$addressof@V?$vector@UCommand@?$WorkerThread@V?$Optional@VDACalculateWorkItem@video@libeYs3D@@@base@libeYs3D@@@base@libeYs3D@@V?$allocator@UCommand@?$WorkerThread@V?$Optional@VDACalculateWorkItem@video@libeYs3D@@@base@libeYs3D@@@base@libeYs3D@@@std@@@std@@@std@@YAPEAV?$vector@UCommand@?$WorkerThread@V?$Optional@VDACalculateWorkItem@video@libeYs3D@@@base@libeYs3D@@@base@libeYs3D@@V?$allocator@UCommand@?$WorkerThread@V?$Optional@VDACalculateWorkItem@video@libeYs3D@@@base@libeYs3D@@@base@libeYs3D@@@std@@@0@AEAV10@@Z
	??$addressof@V?$vector@USensorData@sensors@libeYs3D@@V?$allocator@USensorData@sensors@libeYs3D@@@std@@@std@@@std@@YAPEAV?$vector@USensorData@sensors@libeYs3D@@V?$allocator@USensorData@sensors@libeYs3D@@@std@@@0@AEAV10@@Z
	??$addressof@V?$vector@V?$Optional@V?$WorkerThread@V?$Optional@VCallbackWorkItem@sensors@libeYs3D@@@base@libeYs3D@@@base@libeYs3D@@@base@libeYs3D@@V?$allocator@V?$Optional@V?$WorkerThread@V?$Optional@VCallbackWorkItem@sensors@libeYs3D@@@base@libeYs3D@@@base@libeYs3D@@@base@libeYs3D@@@std@@@std@@@std@@YAPEAV?$vector@V?$Optional@V?$WorkerThread@V?$Optional@VCallbackWorkItem@sensors@libeYs3D@@@base@libeYs3D@@@base@libeYs3D@@@base@libeYs3D@@V?$allocator@V?$Optional@V?$WorkerThread@V?$Optional@VCallbackWorkItem@sensors@libeYs3D@@@base@libeYs3D@@@base@libeYs3D@@@base@libeYs3D@@@std@@@0@AEAV10@@Z
	??$addressof@V?$vector@V?$Optional@V?$WorkerThread@V?$Optional@VCallbackWorkItem@video@libeYs3D@@@base@libeYs3D@@@base@libeYs3D@@@base@libeYs3D@@V?$allocator@V?$Optional@V?$WorkerThread@V?$Optional@VCallbackWorkItem@video@libeYs3D@@@base@libeYs3D@@@base@libeYs3D@@@base@libeYs3D@@@std@@@std@@@std@@YAPEAV?$vector@V?$Optional@V?$WorkerThread@V?$Optional@VCallbackWorkItem@video@libeYs3D@@@base@libeYs3D@@@base@libeYs3D@@@base@libeYs3D@@V?$allocator@V?$Optional@V?$WorkerThread@V?$Optional@VCallbackWorkItem@video@libeYs3D@@@base@libeYs3D@@@base@libeYs3D@@@base@libeYs3D@@@std@@@0@AEAV10@@Z
	??$addressof@V?$vector@V?$Optional@V?$WorkerThread@V?$Optional@VDACalculateWorkItem@video@libeYs3D@@@base@libeYs3D@@@base@libeYs3D@@@base@libeYs3D@@V?$allocator@V?$Optional@V?$WorkerThread@V?$Optional@VDACalculateWorkItem@video@libeYs3D@@@base@libeYs3D@@@base@libeYs3D@@@base@libeYs3D@@@std@@@std@@@std@@YAPEAV?$vector@V?$Optional@V?$WorkerThread@V?$Optional@VDACalculateWorkItem@video@libeYs3D@@@base@libeYs3D@@@base@libeYs3D@@@base@libeYs3D@@V?$allocator@V?$Optional@V?$WorkerThread@V?$Optional@VDACalculateWorkItem@video@libeYs3D@@@base@libeYs3D@@@base@libeYs3D@@@base@libeYs3D@@@std@@@0@AEAV10@@Z
	??$addressof@V?$vector@V?$basic_string@DU?$char_traits@D@std@@V?$allocator@D@2@@std@@V?$allocator@V?$basic_string@DU?$char_traits@D@std@@V?$allocator@D@2@@std@@@2@@std@@@std@@YAPEAV?$vector@V?$basic_string@DU?$char_traits@D@std@@V?$allocator@D@2@@std@@V?$allocator@V?$basic_string@DU?$char_traits@D@std@@V?$allocator@D@2@@std@@@2@@0@AEAV10@@Z
	??$advance@PEAE_J@std@@YAXAEAPEAE_J@Z
	??$advance@PEAM_J@std@@YAXAEAPEAM_J@Z
	??$advance@PEAUCloudPoint@@_J@std@@YAXAEAPEAUCloudPoint@@_J@Z
	??$assign@PEAEX@?$vector@EV?$allocator@E@std@@@std@@QEAAXPEAE0@Z
	??$assign@V?$_Vector_iterator@V?$_Vector_val@U?$_Simple_types@E@std@@@std@@@std@@X@?$vector@EV?$allocator@E@std@@@std@@QEAAXV?$_Vector_iterator@V?$_Vector_val@U?$_Simple_types@E@std@@@std@@@1@0@Z
	??$assign@V?$_Vector_iterator@V?$_Vector_val@U?$_Simple_types@M@std@@@std@@@std@@X@?$vector@MV?$allocator@M@std@@@std@@QEAAXV?$_Vector_iterator@V?$_Vector_val@U?$_Simple_types@M@std@@@std@@@1@0@Z
	??$assign@V?$_Vector_iterator@V?$_Vector_val@U?$_Simple_types@UCloudPoint@@@std@@@std@@@std@@X@?$vector@UCloudPoint@@V?$allocator@UCloudPoint@@@std@@@std@@QEAAXV?$_Vector_iterator@V?$_Vector_val@U?$_Simple_types@UCloudPoint@@@std@@@std@@@1@0@Z
	??$begin@E$0BAAA@@std@@YAPEAEAEAY0BAAA@E@Z
	??$bind@P8DepthFrameProducer@video@libeYs3D@@EAAXPEAVFrame@23@@ZPEAV123@AEBU?$_Ph@$00@std@@@std@@YA?AV?$_Binder@U_Unforced@std@@P8DepthFrameProducer@video@libeYs3D@@EAAXPEAVFrame@45@@ZPEAV345@AEBU?$_Ph@$00@2@@0@$$QEAP8DepthFrameProducer@video@libeYs3D@@EAAXPEAVFrame@34@@Z$$QEAPEAV234@AEBU?$_Ph@$00@0@@Z
	??$bind@P8FrameProducer@video@libeYs3D@@EAA_NPEBUSensorDataSet@sensors@3@@ZPEAV123@AEBU?$_Ph@$00@std@@@std@@YA?AV?$_Binder@U_Unforced@std@@P8FrameProducer@video@libeYs3D@@EAA_NPEBUSensorDataSet@sensors@5@@ZPEAV345@AEBU?$_Ph@$00@2@@0@$$QEAP8FrameProducer@video@libeYs3D@@EAA_NPEBUSensorDataSet@sensors@4@@Z$$QEAPEAV234@AEBU?$_Ph@$00@0@@Z
	??$bind@P8FrameProducer@video@libeYs3D@@EAA_NPEBVFrame@23@@ZPEAV123@AEBU?$_Ph@$00@std@@@std@@YA?AV?$_Binder@U_Unforced@std@@P8FrameProducer@video@libeYs3D@@EAA_NPEBVFrame@45@@ZPEAV345@AEBU?$_Ph@$00@2@@0@$$QEAP8FrameProducer@video@libeYs3D@@EAA_NPEBVFrame@34@@Z$$QEAPEAV234@AEBU?$_Ph@$00@0@@Z
	??$bind@P8FrameSetPipeline@devices@libeYs3D@@EAA_NPEBVFrame@video@3@@ZPEAV123@AEBU?$_Ph@$00@std@@@std@@YA?AV?$_Binder@U_Unforced@std@@P8FrameSetPipeline@devices@libeYs3D@@EAA_NPEBVFrame@video@5@@ZPEAV345@AEBU?$_Ph@$00@2@@0@$$QEAP8FrameSetPipeline@devices@libeYs3D@@EAA_NPEBVFrame@video@4@@Z$$QEAPEAV234@AEBU?$_Ph@$00@0@@Z
	??$bind@P8FrameSetPipeline@devices@libeYs3D@@EAA_NPEBVPCFrame@video@3@@ZPEAV123@AEBU?$_Ph@$00@std@@@std@@YA?AV?$_Binder@U_Unforced@std@@P8FrameSetPipeline@devices@libeYs3D@@EAA_NPEBVPCFrame@video@5@@ZPEAV345@AEBU?$_Ph@$00@2@@0@$$QEAP8FrameSetPipeline@devices@libeYs3D@@EAA_NPEBVPCFrame@video@4@@Z$$QEAPEAV234@AEBU?$_Ph@$00@0@@Z
	??$bind@P8PCFrameProducer@video@libeYs3D@@EAA_NPEBVFrame@23@@ZPEAV123@AEBU?$_Ph@$00@std@@@std@@YA?AV?$_Binder@U_Unforced@std@@P8PCFrameProducer@video@libeYs3D@@EAA_NPEBVFrame@45@@ZPEAV345@AEBU?$_Ph@$00@2@@0@$$QEAP8PCFrameProducer@video@libeYs3D@@EAA_NPEBVFrame@34@@Z$$QEAPEAV234@AEBU?$_Ph@$00@0@@Z
	??$bind@P8Pipeline@devices@libeYs3D@@EAA_NPEBUSensorData@sensors@3@@ZPEAV123@AEBU?$_Ph@$00@std@@@std@@YA?AV?$_Binder@U_Unforced@std@@P8Pipeline@devices@libeYs3D@@EAA_NPEBUSensorData@sensors@5@@ZPEAV345@AEBU?$_Ph@$00@2@@0@$$QEAP8Pipeline@devices@libeYs3D@@EAA_NPEBUSensorData@sensors@4@@Z$$QEAPEAV234@AEBU?$_Ph@$00@0@@Z
	??$bind@P8Pipeline@devices@libeYs3D@@EAA_NPEBVFrame@video@3@@ZPEAV123@AEBU?$_Ph@$00@std@@@std@@YA?AV?$_Binder@U_Unforced@std@@P8Pipeline@devices@libeYs3D@@EAA_NPEBVFrame@video@5@@ZPEAV345@AEBU?$_Ph@$00@2@@0@$$QEAP8Pipeline@devices@libeYs3D@@EAA_NPEBVFrame@video@4@@Z$$QEAPEAV234@AEBU?$_Ph@$00@0@@Z
	??$bind@P8Pipeline@devices@libeYs3D@@EAA_NPEBVPCFrame@video@3@@ZPEAV123@AEBU?$_Ph@$00@std@@@std@@YA?AV?$_Binder@U_Unforced@std@@P8Pipeline@devices@libeYs3D@@EAA_NPEBVPCFrame@video@5@@ZPEAV345@AEBU?$_Ph@$00@2@@0@$$QEAP8Pipeline@devices@libeYs3D@@EAA_NPEBVPCFrame@video@4@@Z$$QEAPEAV234@AEBU?$_Ph@$00@0@@Z
	??$bind@P8SensorDataProducer@sensors@libeYs3D@@EAA_NPEBUSensorDataSet@23@@ZPEAV123@AEBU?$_Ph@$00@std@@@std@@YA?AV?$_Binder@U_Unforced@std@@P8SensorDataProducer@sensors@libeYs3D@@EAA_NPEBUSensorDataSet@45@@ZPEAV345@AEBU?$_Ph@$00@2@@0@$$QEAP8SensorDataProducer@sensors@libeYs3D@@EAA_NPEBUSensorDataSet@34@@Z$$QEAPEAV234@AEBU?$_Ph@$00@0@@Z
	??$construct@FAEBF@?$_Default_allocator_traits@V?$allocator@F@std@@@std@@SAXAEAV?$allocator@F@1@QEAFAEBF@Z
	??$construct@GAEBG@?$_Default_allocator_traits@V?$allocator@G@std@@@std@@SAXAEAV?$allocator@G@1@QEAGAEBG@Z
	??$construct@HH@?$_Default_allocator_traits@V?$allocator@H@std@@@std@@SAXAEAV?$allocator@H@1@QEAH$$QEAH@Z
	??$construct@MAEBM@?$_Default_allocator_traits@V?$allocator@M@std@@@std@@SAXAEAV?$allocator@M@1@QEAMAEBM@Z
	??$construct@PEADAEBQEAD@?$_Default_allocator_traits@V?$allocator@D@std@@@std@@SAXAEAV?$allocator@D@1@QEAPEADAEBQEAD@Z
	??$construct@PEAU?$_List_node@V?$vector@FV?$allocator@F@std@@@std@@PEAX@std@@AEAPEAU12@@?$_Default_allocator_traits@V?$allocator@U?$_List_node@V?$vector@FV?$allocator@F@std@@@std@@PEAX@std@@@std@@@std@@SAXAEAV?$allocator@U?$_List_node@V?$vector@FV?$allocator@F@std@@@std@@PEAX@std@@@1@QEAPEAU?$_List_node@V?$vector@FV?$allocator@F@std@@@std@@PEAX@1@AEAPEAU31@@Z
	??$construct@PEAU?$_Tree_node@U?$pair@$$CBHH@std@@PEAX@std@@AEAPEAU12@@?$_Default_allocator_traits@V?$allocator@U?$_Tree_node@U?$pair@$$CBHH@std@@PEAX@std@@@std@@@std@@SAXAEAV?$allocator@U?$_Tree_node@U?$pair@$$CBHH@std@@PEAX@std@@@1@QEAPEAU?$_Tree_node@U?$pair@$$CBHH@std@@PEAX@1@AEAPEAU31@@Z
	??$construct@PEAU?$_Tree_node@U?$pair@$$CBHUPID_TABLE@ModeConfig@@@std@@PEAX@std@@AEAPEAU12@@?$_Default_allocator_traits@V?$allocator@U?$_Tree_node@U?$pair@$$CBHUPID_TABLE@ModeConfig@@@std@@PEAX@std@@@std@@@std@@SAXAEAV?$allocator@U?$_Tree_node@U?$pair@$$CBHUPID_TABLE@ModeConfig@@@std@@PEAX@std@@@1@QEAPEAU?$_Tree_node@U?$pair@$$CBHUPID_TABLE@ModeConfig@@@std@@PEAX@1@AEAPEAU31@@Z
	??$construct@PEAU?$_Tree_node@U?$pair@$$CBU?$pair@GG@std@@V?$vector@V?$basic_string@DU?$char_traits@D@std@@V?$allocator@D@2@@std@@V?$allocator@V?$basic_string@DU?$char_traits@D@std@@V?$allocator@D@2@@std@@@2@@2@@std@@PEAX@std@@AEAPEAU12@@?$_Default_allocator_traits@V?$allocator@U?$_Tree_node@U?$pair@$$CBU?$pair@GG@std@@V?$vector@V?$basic_string@DU?$char_traits@D@std@@V?$allocator@D@2@@std@@V?$allocator@V?$basic_string@DU?$char_traits@D@std@@V?$allocator@D@2@@std@@@2@@2@@std@@PEAX@std@@@std@@@std@@SAXAEAV?$allocator@U?$_Tree_node@U?$pair@$$CBU?$pair@GG@std@@V?$vector@V?$basic_string@DU?$char_traits@D@std@@V?$allocator@D@2@@std@@V?$allocator@V?$basic_string@DU?$char_traits@D@std@@V?$allocator@D@2@@std@@@2@@2@@std@@PEAX@std@@@1@QEAPEAU?$_Tree_node@U?$pair@$$CBU?$pair@GG@std@@V?$vector@V?$basic_string@DU?$char_traits@D@std@@V?$allocator@D@2@@std@@V?$allocator@V?$basic_string@DU?$char_traits@D@std@@V?$allocator@D@2@@std@@@2@@2@@std@@PEAX@1@AEAPEAU31@@Z
	??$construct@PEAU?$_Tree_node@U?$pair@$$CBUDeviceSellectInfo@libeYs3D@@V?$shared_ptr@VCameraDevice@devices@libeYs3D@@@std@@@std@@PEAX@std@@AEAPEAU12@@?$_Default_allocator_traits@V?$allocator@U?$_Tree_node@U?$pair@$$CBUDeviceSellectInfo@libeYs3D@@V?$shared_ptr@VCameraDevice@devices@libeYs3D@@@std@@@std@@PEAX@std@@@std@@@std@@SAXAEAV?$allocator@U?$_Tree_node@U?$pair@$$CBUDeviceSellectInfo@libeYs3D@@V?$shared_ptr@VCameraDevice@devices@libeYs3D@@@std@@@std@@PEAX@std@@@1@QEAPEAU?$_Tree_node@U?$pair@$$CBUDeviceSellectInfo@libeYs3D@@V?$shared_ptr@VCameraDevice@devices@libeYs3D@@@std@@@std@@PEAX@1@AEAPEAU31@@Z
	??$construct@PEAU?$_Tree_node@U?$pair@$$CBW4IMUPacketSymbol@IMUData@@_K@std@@PEAX@std@@AEAPEAU12@@?$_Default_allocator_traits@V?$allocator@U?$_Tree_node@U?$pair@$$CBW4IMUPacketSymbol@IMUData@@_K@std@@PEAX@std@@@std@@@std@@SAXAEAV?$allocator@U?$_Tree_node@U?$pair@$$CBW4IMUPacketSymbol@IMUData@@_K@std@@PEAX@std@@@1@QEAPEAU?$_Tree_node@U?$pair@$$CBW4IMUPacketSymbol@IMUData@@_K@std@@PEAX@1@AEAPEAU31@@Z
	??$construct@U?$pair@$$CBHH@std@@U?$pair@HH@2@@?$_Default_allocator_traits@V?$allocator@U?$_Tree_node@U?$pair@$$CBHH@std@@PEAX@std@@@std@@@std@@SAXAEAV?$allocator@U?$_Tree_node@U?$pair@$$CBHH@std@@PEAX@std@@@1@QEAU?$pair@$$CBHH@1@$$QEAU?$pair@HH@1@@Z
	??$construct@U?$pair@$$CBHUPID_TABLE@ModeConfig@@@std@@AEBUpiecewise_construct_t@2@V?$tuple@AEBH@2@V?$tuple@$$V@2@@?$_Default_allocator_traits@V?$allocator@U?$_Tree_node@U?$pair@$$CBHUPID_TABLE@ModeConfig@@@std@@PEAX@std@@@std@@@std@@SAXAEAV?$allocator@U?$_Tree_node@U?$pair@$$CBHUPID_TABLE@ModeConfig@@@std@@PEAX@std@@@1@QEAU?$pair@$$CBHUPID_TABLE@ModeConfig@@@1@AEBUpiecewise_construct_t@1@$$QEAV?$tuple@AEBH@1@$$QEAV?$tuple@$$V@1@@Z
	??$construct@U?$pair@$$CBU?$pair@GG@std@@V?$vector@V?$basic_string@DU?$char_traits@D@std@@V?$allocator@D@2@@std@@V?$allocator@V?$basic_string@DU?$char_traits@D@std@@V?$allocator@D@2@@std@@@2@@2@@std@@AEBUpiecewise_construct_t@2@V?$tuple@AEBU?$pair@GG@std@@@2@V?$tuple@$$V@2@@?$_Default_allocator_traits@V?$allocator@U?$_Tree_node@U?$pair@$$CBU?$pair@GG@std@@V?$vector@V?$basic_string@DU?$char_traits@D@std@@V?$allocator@D@2@@std@@V?$allocator@V?$basic_string@DU?$char_traits@D@std@@V?$allocator@D@2@@std@@@2@@2@@std@@PEAX@std@@@std@@@std@@SAXAEAV?$allocator@U?$_Tree_node@U?$pair@$$CBU?$pair@GG@std@@V?$vector@V?$basic_string@DU?$char_traits@D@std@@V?$allocator@D@2@@std@@V?$allocator@V?$basic_string@DU?$char_traits@D@std@@V?$allocator@D@2@@std@@@2@@2@@std@@PEAX@std@@@1@QEAU?$pair@$$CBU?$pair@GG@std@@V?$vector@V?$basic_string@DU?$char_traits@D@std@@V?$allocator@D@2@@std@@V?$allocator@V?$basic_string@DU?$char_traits@D@std@@V?$allocator@D@2@@std@@@2@@2@@1@AEBUpiecewise_construct_t@1@$$QEAV?$tuple@AEBU?$pair@GG@std@@@1@$$QEAV?$tuple@$$V@1@@Z
	??$construct@U?$pair@$$CBUDeviceSellectInfo@libeYs3D@@V?$shared_ptr@VCameraDevice@devices@libeYs3D@@@std@@@std@@AEBUpiecewise_construct_t@2@V?$tuple@AEBUDeviceSellectInfo@libeYs3D@@@2@V?$tuple@$$V@2@@?$_Default_allocator_traits@V?$allocator@U?$_Tree_node@U?$pair@$$CBUDeviceSellectInfo@libeYs3D@@V?$shared_ptr@VCameraDevice@devices@libeYs3D@@@std@@@std@@PEAX@std@@@std@@@std@@SAXAEAV?$allocator@U?$_Tree_node@U?$pair@$$CBUDeviceSellectInfo@libeYs3D@@V?$shared_ptr@VCameraDevice@devices@libeYs3D@@@std@@@std@@PEAX@std@@@1@QEAU?$pair@$$CBUDeviceSellectInfo@libeYs3D@@V?$shared_ptr@VCameraDevice@devices@libeYs3D@@@std@@@1@AEBUpiecewise_construct_t@1@$$QEAV?$tuple@AEBUDeviceSellectInfo@libeYs3D@@@1@$$QEAV?$tuple@$$V@1@@Z
	??$construct@U?$pair@$$CBW4IMUPacketSymbol@IMUData@@_K@std@@AEBU12@@?$_Default_allocator_traits@V?$allocator@U?$_Tree_node@U?$pair@$$CBW4IMUPacketSymbol@IMUData@@_K@std@@PEAX@std@@@std@@@std@@SAXAEAV?$allocator@U?$_Tree_node@U?$pair@$$CBW4IMUPacketSymbol@IMUData@@_K@std@@PEAX@std@@@1@QEAU?$pair@$$CBW4IMUPacketSymbol@IMUData@@_K@1@AEBU31@@Z
	??$construct@U?$pair@$$CBW4IMUPacketSymbol@IMUData@@_K@std@@AEBUpiecewise_construct_t@2@V?$tuple@$$QEAW4IMUPacketSymbol@IMUData@@@2@V?$tuple@$$V@2@@?$_Default_allocator_traits@V?$allocator@U?$_Tree_node@U?$pair@$$CBW4IMUPacketSymbol@IMUData@@_K@std@@PEAX@std@@@std@@@std@@SAXAEAV?$allocator@U?$_Tree_node@U?$pair@$$CBW4IMUPacketSymbol@IMUData@@_K@std@@PEAX@std@@@1@QEAU?$pair@$$CBW4IMUPacketSymbol@IMUData@@_K@1@AEBUpiecewise_construct_t@1@$$QEAV?$tuple@$$QEAW4IMUPacketSymbol@IMUData@@@1@$$QEAV?$tuple@$$V@1@@Z
	??$construct@UCloudPoint@@AEBU1@@?$_Default_allocator_traits@V?$allocator@UCloudPoint@@@std@@@std@@SAXAEAV?$allocator@UCloudPoint@@@1@QEAUCloudPoint@@AEBU3@@Z
	??$construct@UCommand@?$WorkerThread@V?$Optional@VCallbackWorkItem@sensors@libeYs3D@@@base@libeYs3D@@@base@libeYs3D@@U1234@@?$_Default_allocator_traits@V?$allocator@UCommand@?$WorkerThread@V?$Optional@VCallbackWorkItem@sensors@libeYs3D@@@base@libeYs3D@@@base@libeYs3D@@@std@@@std@@SAXAEAV?$allocator@UCommand@?$WorkerThread@V?$Optional@VCallbackWorkItem@sensors@libeYs3D@@@base@libeYs3D@@@base@libeYs3D@@@1@QEAUCommand@?$WorkerThread@V?$Optional@VCallbackWorkItem@sensors@libeYs3D@@@base@libeYs3D@@@base@libeYs3D@@$$QEAU3456@@Z
	??$construct@UCommand@?$WorkerThread@V?$Optional@VCallbackWorkItem@video@libeYs3D@@@base@libeYs3D@@@base@libeYs3D@@U1234@@?$_Default_allocator_traits@V?$allocator@UCommand@?$WorkerThread@V?$Optional@VCallbackWorkItem@video@libeYs3D@@@base@libeYs3D@@@base@libeYs3D@@@std@@@std@@SAXAEAV?$allocator@UCommand@?$WorkerThread@V?$Optional@VCallbackWorkItem@video@libeYs3D@@@base@libeYs3D@@@base@libeYs3D@@@1@QEAUCommand@?$WorkerThread@V?$Optional@VCallbackWorkItem@video@libeYs3D@@@base@libeYs3D@@@base@libeYs3D@@$$QEAU3456@@Z
	??$construct@UCommand@?$WorkerThread@V?$Optional@VDACalculateWorkItem@video@libeYs3D@@@base@libeYs3D@@@base@libeYs3D@@U1234@@?$_Default_allocator_traits@V?$allocator@UCommand@?$WorkerThread@V?$Optional@VDACalculateWorkItem@video@libeYs3D@@@base@libeYs3D@@@base@libeYs3D@@@std@@@std@@SAXAEAV?$allocator@UCommand@?$WorkerThread@V?$Optional@VDACalculateWorkItem@video@libeYs3D@@@base@libeYs3D@@@base@libeYs3D@@@1@QEAUCommand@?$WorkerThread@V?$Optional@VDACalculateWorkItem@video@libeYs3D@@@base@libeYs3D@@@base@libeYs3D@@$$QEAU3456@@Z
	??$construct@UMODE_CONFIG@ModeConfig@@AEAU12@@?$_Default_allocator_traits@V?$allocator@UMODE_CONFIG@ModeConfig@@@std@@@std@@SAXAEAV?$allocator@UMODE_CONFIG@ModeConfig@@@1@QEAUMODE_CONFIG@ModeConfig@@AEAU34@@Z
	??$construct@UMODE_CONFIG@ModeConfig@@AEBU12@@?$_Default_allocator_traits@V?$allocator@UMODE_CONFIG@ModeConfig@@@std@@@std@@SAXAEAV?$allocator@UMODE_CONFIG@ModeConfig@@@1@QEAUMODE_CONFIG@ModeConfig@@AEBU34@@Z
	??$construct@UMODE_CONFIG@ModeConfig@@U12@@?$_Default_allocator_traits@V?$allocator@UMODE_CONFIG@ModeConfig@@@std@@@std@@SAXAEAV?$allocator@UMODE_CONFIG@ModeConfig@@@1@QEAUMODE_CONFIG@ModeConfig@@$$QEAU34@@Z
	??$construct@USensorData@sensors@libeYs3D@@$$V@?$_Default_allocator_traits@V?$allocator@USensorData@sensors@libeYs3D@@@std@@@std@@SAXAEAV?$allocator@USensorData@sensors@libeYs3D@@@1@QEAUSensorData@sensors@libeYs3D@@@Z
	??$construct@USensorData@sensors@libeYs3D@@U123@@?$_Default_allocator_traits@V?$allocator@USensorData@sensors@libeYs3D@@@std@@@std@@SAXAEAV?$allocator@USensorData@sensors@libeYs3D@@@1@QEAUSensorData@sensors@libeYs3D@@$$QEAU345@@Z
	??$construct@U_Container_proxy@std@@U12@@?$_Default_allocator_traits@V?$allocator@U_Container_proxy@std@@@std@@@std@@SAXAEAV?$allocator@U_Container_proxy@std@@@1@QEAU_Container_proxy@1@$$QEAU31@@Z
	??$construct@UtagAPC_STREAM_INFO@@AEBU1@@?$_Default_allocator_traits@V?$allocator@UtagAPC_STREAM_INFO@@@std@@@std@@SAXAEAV?$allocator@UtagAPC_STREAM_INFO@@@1@QEAUtagAPC_STREAM_INFO@@AEBU3@@Z
	??$construct@V?$Optional@V?$WorkerThread@V?$Optional@VCallbackWorkItem@sensors@libeYs3D@@@base@libeYs3D@@@base@libeYs3D@@@base@libeYs3D@@$$V@?$_Default_allocator_traits@V?$allocator@V?$Optional@V?$WorkerThread@V?$Optional@VCallbackWorkItem@sensors@libeYs3D@@@base@libeYs3D@@@base@libeYs3D@@@base@libeYs3D@@@std@@@std@@SAXAEAV?$allocator@V?$Optional@V?$WorkerThread@V?$Optional@VCallbackWorkItem@sensors@libeYs3D@@@base@libeYs3D@@@base@libeYs3D@@@base@libeYs3D@@@1@QEAV?$Optional@V?$WorkerThread@V?$Optional@VCallbackWorkItem@sensors@libeYs3D@@@base@libeYs3D@@@base@libeYs3D@@@base@libeYs3D@@@Z
	??$construct@V?$Optional@V?$WorkerThread@V?$Optional@VCallbackWorkItem@video@libeYs3D@@@base@libeYs3D@@@base@libeYs3D@@@base@libeYs3D@@$$V@?$_Default_allocator_traits@V?$allocator@V?$Optional@V?$WorkerThread@V?$Optional@VCallbackWorkItem@video@libeYs3D@@@base@libeYs3D@@@base@libeYs3D@@@base@libeYs3D@@@std@@@std@@SAXAEAV?$allocator@V?$Optional@V?$WorkerThread@V?$Optional@VCallbackWorkItem@video@libeYs3D@@@base@libeYs3D@@@base@libeYs3D@@@base@libeYs3D@@@1@QEAV?$Optional@V?$WorkerThread@V?$Optional@VCallbackWorkItem@video@libeYs3D@@@base@libeYs3D@@@base@libeYs3D@@@base@libeYs3D@@@Z
	??$construct@V?$Optional@V?$WorkerThread@V?$Optional@VDACalculateWorkItem@video@libeYs3D@@@base@libeYs3D@@@base@libeYs3D@@@base@libeYs3D@@$$V@?$_Default_allocator_traits@V?$allocator@V?$Optional@V?$WorkerThread@V?$Optional@VDACalculateWorkItem@video@libeYs3D@@@base@libeYs3D@@@base@libeYs3D@@@base@libeYs3D@@@std@@@std@@SAXAEAV?$allocator@V?$Optional@V?$WorkerThread@V?$Optional@VDACalculateWorkItem@video@libeYs3D@@@base@libeYs3D@@@base@libeYs3D@@@base@libeYs3D@@@1@QEAV?$Optional@V?$WorkerThread@V?$Optional@VDACalculateWorkItem@video@libeYs3D@@@base@libeYs3D@@@base@libeYs3D@@@base@libeYs3D@@@Z
	??$construct@V?$basic_string@DU?$char_traits@D@std@@V?$allocator@D@2@@std@@AEAV12@@?$_Default_allocator_traits@V?$allocator@V?$basic_string@DU?$char_traits@D@std@@V?$allocator@D@2@@std@@@std@@@std@@SAXAEAV?$allocator@V?$basic_string@DU?$char_traits@D@std@@V?$allocator@D@2@@std@@@1@QEAV?$basic_string@DU?$char_traits@D@std@@V?$allocator@D@2@@1@AEAV31@@Z
	??$construct@V?$basic_string@DU?$char_traits@D@std@@V?$allocator@D@2@@std@@AEBV12@@?$_Default_allocator_traits@V?$allocator@V?$basic_string@DU?$char_traits@D@std@@V?$allocator@D@2@@std@@@std@@@std@@SAXAEAV?$allocator@V?$basic_string@DU?$char_traits@D@std@@V?$allocator@D@2@@std@@@1@QEAV?$basic_string@DU?$char_traits@D@std@@V?$allocator@D@2@@1@AEBV31@@Z
	??$construct@V?$basic_string@DU?$char_traits@D@std@@V?$allocator@D@2@@std@@V12@@?$_Default_allocator_traits@V?$allocator@V?$basic_string@DU?$char_traits@D@std@@V?$allocator@D@2@@std@@@std@@@std@@SAXAEAV?$allocator@V?$basic_string@DU?$char_traits@D@std@@V?$allocator@D@2@@std@@@1@QEAV?$basic_string@DU?$char_traits@D@std@@V?$allocator@D@2@@1@$$QEAV31@@Z
	??$construct@V?$vector@FV?$allocator@F@std@@@std@@$$V@?$_Default_allocator_traits@V?$allocator@U?$_List_node@V?$vector@FV?$allocator@F@std@@@std@@PEAX@std@@@std@@@std@@SAXAEAV?$allocator@U?$_List_node@V?$vector@FV?$allocator@F@std@@@std@@PEAX@std@@@1@QEAV?$vector@FV?$allocator@F@std@@@1@@Z
	??$destroy@PEAD@?$_Default_allocator_traits@V?$allocator@D@std@@@std@@SAXAEAV?$allocator@D@1@QEAPEAD@Z
	??$destroy@PEAU?$_List_node@V?$vector@FV?$allocator@F@std@@@std@@PEAX@std@@@?$_Default_allocator_traits@V?$allocator@U?$_List_node@V?$vector@FV?$allocator@F@std@@@std@@PEAX@std@@@std@@@std@@SAXAEAV?$allocator@U?$_List_node@V?$vector@FV?$allocator@F@std@@@std@@PEAX@std@@@1@QEAPEAU?$_List_node@V?$vector@FV?$allocator@F@std@@@std@@PEAX@1@@Z
	??$destroy@PEAU?$_Tree_node@U?$pair@$$CBHH@std@@PEAX@std@@@?$_Default_allocator_traits@V?$allocator@U?$_Tree_node@U?$pair@$$CBHH@std@@PEAX@std@@@std@@@std@@SAXAEAV?$allocator@U?$_Tree_node@U?$pair@$$CBHH@std@@PEAX@std@@@1@QEAPEAU?$_Tree_node@U?$pair@$$CBHH@std@@PEAX@1@@Z
	??$destroy@PEAU?$_Tree_node@U?$pair@$$CBHUPID_TABLE@ModeConfig@@@std@@PEAX@std@@@?$_Default_allocator_traits@V?$allocator@U?$_Tree_node@U?$pair@$$CBHUPID_TABLE@ModeConfig@@@std@@PEAX@std@@@std@@@std@@SAXAEAV?$allocator@U?$_Tree_node@U?$pair@$$CBHUPID_TABLE@ModeConfig@@@std@@PEAX@std@@@1@QEAPEAU?$_Tree_node@U?$pair@$$CBHUPID_TABLE@ModeConfig@@@std@@PEAX@1@@Z
	??$destroy@PEAU?$_Tree_node@U?$pair@$$CBU?$pair@GG@std@@V?$vector@V?$basic_string@DU?$char_traits@D@std@@V?$allocator@D@2@@std@@V?$allocator@V?$basic_string@DU?$char_traits@D@std@@V?$allocator@D@2@@std@@@2@@2@@std@@PEAX@std@@@?$_Default_allocator_traits@V?$allocator@U?$_Tree_node@U?$pair@$$CBU?$pair@GG@std@@V?$vector@V?$basic_string@DU?$char_traits@D@std@@V?$allocator@D@2@@std@@V?$allocator@V?$basic_string@DU?$char_traits@D@std@@V?$allocator@D@2@@std@@@2@@2@@std@@PEAX@std@@@std@@@std@@SAXAEAV?$allocator@U?$_Tree_node@U?$pair@$$CBU?$pair@GG@std@@V?$vector@V?$basic_string@DU?$char_traits@D@std@@V?$allocator@D@2@@std@@V?$allocator@V?$basic_string@DU?$char_traits@D@std@@V?$allocator@D@2@@std@@@2@@2@@std@@PEAX@std@@@1@QEAPEAU?$_Tree_node@U?$pair@$$CBU?$pair@GG@std@@V?$vector@V?$basic_string@DU?$char_traits@D@std@@V?$allocator@D@2@@std@@V?$allocator@V?$basic_string@DU?$char_traits@D@std@@V?$allocator@D@2@@std@@@2@@2@@std@@PEAX@1@@Z
	??$destroy@PEAU?$_Tree_node@U?$pair@$$CBUDeviceSellectInfo@libeYs3D@@V?$shared_ptr@VCameraDevice@devices@libeYs3D@@@std@@@std@@PEAX@std@@@?$_Default_allocator_traits@V?$allocator@U?$_Tree_node@U?$pair@$$CBUDeviceSellectInfo@libeYs3D@@V?$shared_ptr@VCameraDevice@devices@libeYs3D@@@std@@@std@@PEAX@std@@@std@@@std@@SAXAEAV?$allocator@U?$_Tree_node@U?$pair@$$CBUDeviceSellectInfo@libeYs3D@@V?$shared_ptr@VCameraDevice@devices@libeYs3D@@@std@@@std@@PEAX@std@@@1@QEAPEAU?$_Tree_node@U?$pair@$$CBUDeviceSellectInfo@libeYs3D@@V?$shared_ptr@VCameraDevice@devices@libeYs3D@@@std@@@std@@PEAX@1@@Z
	??$destroy@PEAU?$_Tree_node@U?$pair@$$CBW4IMUPacketSymbol@IMUData@@_K@std@@PEAX@std@@@?$_Default_allocator_traits@V?$allocator@U?$_Tree_node@U?$pair@$$CBW4IMUPacketSymbol@IMUData@@_K@std@@PEAX@std@@@std@@@std@@SAXAEAV?$allocator@U?$_Tree_node@U?$pair@$$CBW4IMUPacketSymbol@IMUData@@_K@std@@PEAX@std@@@1@QEAPEAU?$_Tree_node@U?$pair@$$CBW4IMUPacketSymbol@IMUData@@_K@std@@PEAX@1@@Z
	??$destroy@U?$pair@$$CBHH@std@@@?$_Default_allocator_traits@V?$allocator@U?$_Tree_node@U?$pair@$$CBHH@std@@PEAX@std@@@std@@@std@@SAXAEAV?$allocator@U?$_Tree_node@U?$pair@$$CBHH@std@@PEAX@std@@@1@QEAU?$pair@$$CBHH@1@@Z
	??$destroy@U?$pair@$$CBHUPID_TABLE@ModeConfig@@@std@@@?$_Default_allocator_traits@V?$allocator@U?$_Tree_node@U?$pair@$$CBHUPID_TABLE@ModeConfig@@@std@@PEAX@std@@@std@@@std@@SAXAEAV?$allocator@U?$_Tree_node@U?$pair@$$CBHUPID_TABLE@ModeConfig@@@std@@PEAX@std@@@1@QEAU?$pair@$$CBHUPID_TABLE@ModeConfig@@@1@@Z
	??$destroy@U?$pair@$$CBU?$pair@GG@std@@V?$vector@V?$basic_string@DU?$char_traits@D@std@@V?$allocator@D@2@@std@@V?$allocator@V?$basic_string@DU?$char_traits@D@std@@V?$allocator@D@2@@std@@@2@@2@@std@@@?$_Default_allocator_traits@V?$allocator@U?$_Tree_node@U?$pair@$$CBU?$pair@GG@std@@V?$vector@V?$basic_string@DU?$char_traits@D@std@@V?$allocator@D@2@@std@@V?$allocator@V?$basic_string@DU?$char_traits@D@std@@V?$allocator@D@2@@std@@@2@@2@@std@@PEAX@std@@@std@@@std@@SAXAEAV?$allocator@U?$_Tree_node@U?$pair@$$CBU?$pair@GG@std@@V?$vector@V?$basic_string@DU?$char_traits@D@std@@V?$allocator@D@2@@std@@V?$allocator@V?$basic_string@DU?$char_traits@D@std@@V?$allocator@D@2@@std@@@2@@2@@std@@PEAX@std@@@1@QEAU?$pair@$$CBU?$pair@GG@std@@V?$vector@V?$basic_string@DU?$char_traits@D@std@@V?$allocator@D@2@@std@@V?$allocator@V?$basic_string@DU?$char_traits@D@std@@V?$allocator@D@2@@std@@@2@@2@@1@@Z
	??$destroy@U?$pair@$$CBUDeviceSellectInfo@libeYs3D@@V?$shared_ptr@VCameraDevice@devices@libeYs3D@@@std@@@std@@@?$_Default_allocator_traits@V?$allocator@U?$_Tree_node@U?$pair@$$CBUDeviceSellectInfo@libeYs3D@@V?$shared_ptr@VCameraDevice@devices@libeYs3D@@@std@@@std@@PEAX@std@@@std@@@std@@SAXAEAV?$allocator@U?$_Tree_node@U?$pair@$$CBUDeviceSellectInfo@libeYs3D@@V?$shared_ptr@VCameraDevice@devices@libeYs3D@@@std@@@std@@PEAX@std@@@1@QEAU?$pair@$$CBUDeviceSellectInfo@libeYs3D@@V?$shared_ptr@VCameraDevice@devices@libeYs3D@@@std@@@1@@Z
	??$destroy@U?$pair@$$CBW4IMUPacketSymbol@IMUData@@_K@std@@@?$_Default_allocator_traits@V?$allocator@U?$_Tree_node@U?$pair@$$CBW4IMUPacketSymbol@IMUData@@_K@std@@PEAX@std@@@std@@@std@@SAXAEAV?$allocator@U?$_Tree_node@U?$pair@$$CBW4IMUPacketSymbol@IMUData@@_K@std@@PEAX@std@@@1@QEAU?$pair@$$CBW4IMUPacketSymbol@IMUData@@_K@1@@Z
	??$destroy@UCommand@?$WorkerThread@V?$Optional@VCallbackWorkItem@sensors@libeYs3D@@@base@libeYs3D@@@base@libeYs3D@@@?$_Default_allocator_traits@V?$allocator@UCommand@?$WorkerThread@V?$Optional@VCallbackWorkItem@sensors@libeYs3D@@@base@libeYs3D@@@base@libeYs3D@@@std@@@std@@SAXAEAV?$allocator@UCommand@?$WorkerThread@V?$Optional@VCallbackWorkItem@sensors@libeYs3D@@@base@libeYs3D@@@base@libeYs3D@@@1@QEAUCommand@?$WorkerThread@V?$Optional@VCallbackWorkItem@sensors@libeYs3D@@@base@libeYs3D@@@base@libeYs3D@@@Z
	??$destroy@UCommand@?$WorkerThread@V?$Optional@VCallbackWorkItem@video@libeYs3D@@@base@libeYs3D@@@base@libeYs3D@@@?$_Default_allocator_traits@V?$allocator@UCommand@?$WorkerThread@V?$Optional@VCallbackWorkItem@video@libeYs3D@@@base@libeYs3D@@@base@libeYs3D@@@std@@@std@@SAXAEAV?$allocator@UCommand@?$WorkerThread@V?$Optional@VCallbackWorkItem@video@libeYs3D@@@base@libeYs3D@@@base@libeYs3D@@@1@QEAUCommand@?$WorkerThread@V?$Optional@VCallbackWorkItem@video@libeYs3D@@@base@libeYs3D@@@base@libeYs3D@@@Z
	??$destroy@UCommand@?$WorkerThread@V?$Optional@VDACalculateWorkItem@video@libeYs3D@@@base@libeYs3D@@@base@libeYs3D@@@?$_Default_allocator_traits@V?$allocator@UCommand@?$WorkerThread@V?$Optional@VDACalculateWorkItem@video@libeYs3D@@@base@libeYs3D@@@base@libeYs3D@@@std@@@std@@SAXAEAV?$allocator@UCommand@?$WorkerThread@V?$Optional@VDACalculateWorkItem@video@libeYs3D@@@base@libeYs3D@@@base@libeYs3D@@@1@QEAUCommand@?$WorkerThread@V?$Optional@VDACalculateWorkItem@video@libeYs3D@@@base@libeYs3D@@@base@libeYs3D@@@Z
	??$destroy@UMODE_CONFIG@ModeConfig@@@?$_Default_allocator_traits@V?$allocator@UMODE_CONFIG@ModeConfig@@@std@@@std@@SAXAEAV?$allocator@UMODE_CONFIG@ModeConfig@@@1@QEAUMODE_CONFIG@ModeConfig@@@Z
	??$destroy@U_Container_proxy@std@@@?$_Default_allocator_traits@V?$allocator@U_Container_proxy@std@@@std@@@std@@SAXAEAV?$allocator@U_Container_proxy@std@@@1@QEAU_Container_proxy@1@@Z
	??$destroy@V?$Optional@V?$WorkerThread@V?$Optional@VCallbackWorkItem@sensors@libeYs3D@@@base@libeYs3D@@@base@libeYs3D@@@base@libeYs3D@@@?$_Default_allocator_traits@V?$allocator@V?$Optional@V?$WorkerThread@V?$Optional@VCallbackWorkItem@sensors@libeYs3D@@@base@libeYs3D@@@base@libeYs3D@@@base@libeYs3D@@@std@@@std@@SAXAEAV?$allocator@V?$Optional@V?$WorkerThread@V?$Optional@VCallbackWorkItem@sensors@libeYs3D@@@base@libeYs3D@@@base@libeYs3D@@@base@libeYs3D@@@1@QEAV?$Optional@V?$WorkerThread@V?$Optional@VCallbackWorkItem@sensors@libeYs3D@@@base@libeYs3D@@@base@libeYs3D@@@base@libeYs3D@@@Z
	??$destroy@V?$Optional@V?$WorkerThread@V?$Optional@VCallbackWorkItem@video@libeYs3D@@@base@libeYs3D@@@base@libeYs3D@@@base@libeYs3D@@@?$_Default_allocator_traits@V?$allocator@V?$Optional@V?$WorkerThread@V?$Optional@VCallbackWorkItem@video@libeYs3D@@@base@libeYs3D@@@base@libeYs3D@@@base@libeYs3D@@@std@@@std@@SAXAEAV?$allocator@V?$Optional@V?$WorkerThread@V?$Optional@VCallbackWorkItem@video@libeYs3D@@@base@libeYs3D@@@base@libeYs3D@@@base@libeYs3D@@@1@QEAV?$Optional@V?$WorkerThread@V?$Optional@VCallbackWorkItem@video@libeYs3D@@@base@libeYs3D@@@base@libeYs3D@@@base@libeYs3D@@@Z
	??$destroy@V?$Optional@V?$WorkerThread@V?$Optional@VDACalculateWorkItem@video@libeYs3D@@@base@libeYs3D@@@base@libeYs3D@@@base@libeYs3D@@@?$_Default_allocator_traits@V?$allocator@V?$Optional@V?$WorkerThread@V?$Optional@VDACalculateWorkItem@video@libeYs3D@@@base@libeYs3D@@@base@libeYs3D@@@base@libeYs3D@@@std@@@std@@SAXAEAV?$allocator@V?$Optional@V?$WorkerThread@V?$Optional@VDACalculateWorkItem@video@libeYs3D@@@base@libeYs3D@@@base@libeYs3D@@@base@libeYs3D@@@1@QEAV?$Optional@V?$WorkerThread@V?$Optional@VDACalculateWorkItem@video@libeYs3D@@@base@libeYs3D@@@base@libeYs3D@@@base@libeYs3D@@@Z
	??$destroy@V?$basic_string@DU?$char_traits@D@std@@V?$allocator@D@2@@std@@@?$_Default_allocator_traits@V?$allocator@V?$basic_string@DU?$char_traits@D@std@@V?$allocator@D@2@@std@@@std@@@std@@SAXAEAV?$allocator@V?$basic_string@DU?$char_traits@D@std@@V?$allocator@D@2@@std@@@1@QEAV?$basic_string@DU?$char_traits@D@std@@V?$allocator@D@2@@1@@Z
	??$destroy@V?$vector@FV?$allocator@F@std@@@std@@@?$_Default_allocator_traits@V?$allocator@U?$_List_node@V?$vector@FV?$allocator@F@std@@@std@@PEAX@std@@@std@@@std@@SAXAEAV?$allocator@U?$_List_node@V?$vector@FV?$allocator@F@std@@@std@@PEAX@std@@@1@QEAV?$vector@FV?$allocator@F@std@@@1@@Z
	??$distance@PEAE@std@@YA_JPEAE0@Z
	??$distance@PEAM@std@@YA_JPEAM0@Z
	??$distance@PEAUCloudPoint@@@std@@YA_JPEAUCloudPoint@@0@Z
	??$distance@PEBW4IMU_DATA_FORMAT@IMUDevice@devices@libeYs3D@@@std@@YA_JPEBW4IMU_DATA_FORMAT@IMUDevice@devices@libeYs3D@@0@Z
	??$distance@V?$_Tree_const_iterator@V?$_Tree_val@U?$_Tree_simple_types@U?$pair@$$CBU?$pair@GG@std@@V?$vector@V?$basic_string@DU?$char_traits@D@std@@V?$allocator@D@2@@std@@V?$allocator@V?$basic_string@DU?$char_traits@D@std@@V?$allocator@D@2@@std@@@2@@2@@std@@@std@@@std@@@std@@@std@@YA_JV?$_Tree_const_iterator@V?$_Tree_val@U?$_Tree_simple_types@U?$pair@$$CBU?$pair@GG@std@@V?$vector@V?$basic_string@DU?$char_traits@D@std@@V?$allocator@D@2@@std@@V?$allocator@V?$basic_string@DU?$char_traits@D@std@@V?$allocator@D@2@@std@@@2@@2@@std@@@std@@@std@@@0@0@Z
	??$emplace@U?$pair@HH@std@@@?$_Tree@V?$_Tmap_traits@HHU?$less@H@std@@V?$allocator@U?$pair@$$CBHH@std@@@2@$0A@@std@@@std@@QEAA?AU?$pair@V?$_Tree_iterator@V?$_Tree_val@U?$_Tree_simple_types@U?$pair@$$CBHH@std@@@std@@@std@@@std@@_N@1@$$QEAU?$pair@HH@1@@Z
	??$emplace@V<lambda_4cde73e63763cb313bd212247f8ddbb0>@@@?$Optional@V?$WorkerThread@V?$Optional@VDACalculateWorkItem@video@libeYs3D@@@base@libeYs3D@@@base@libeYs3D@@@base@libeYs3D@@QEAAX$$QEAV<lambda_4cde73e63763cb313bd212247f8ddbb0>@@@Z
	??$emplace@V<lambda_530843cc44829e3530ea01af34e42038>@@@?$Optional@V?$WorkerThread@V?$Optional@VCallbackWorkItem@sensors@libeYs3D@@@base@libeYs3D@@@base@libeYs3D@@@base@libeYs3D@@QEAAX$$QEAV<lambda_530843cc44829e3530ea01af34e42038>@@@Z
	??$emplace@V<lambda_9f92d7825455e143dbf3293131d714f3>@@@?$Optional@V?$WorkerThread@V?$Optional@VCallbackWorkItem@video@libeYs3D@@@base@libeYs3D@@@base@libeYs3D@@@base@libeYs3D@@QEAAX$$QEAV<lambda_9f92d7825455e143dbf3293131d714f3>@@@Z
	??$emplace_back@AEBUCloudPoint@@@?$vector@UCloudPoint@@V?$allocator@UCloudPoint@@@std@@@std@@QEAAXAEBUCloudPoint@@@Z
	??$emplace_back@AEBUMODE_CONFIG@ModeConfig@@@?$vector@UMODE_CONFIG@ModeConfig@@V?$allocator@UMODE_CONFIG@ModeConfig@@@std@@@std@@QEAAXAEBUMODE_CONFIG@ModeConfig@@@Z
	??$emplace_back@AEBV?$basic_string@DU?$char_traits@D@std@@V?$allocator@D@2@@std@@@?$vector@V?$basic_string@DU?$char_traits@D@std@@V?$allocator@D@2@@std@@V?$allocator@V?$basic_string@DU?$char_traits@D@std@@V?$allocator@D@2@@std@@@2@@std@@QEAAXAEBV?$basic_string@DU?$char_traits@D@std@@V?$allocator@D@2@@1@@Z
	??$emplace_back@H@?$vector@HV?$allocator@H@std@@@std@@QEAAX$$QEAH@Z
	??$emplace_back@UCommand@?$WorkerThread@V?$Optional@VCallbackWorkItem@sensors@libeYs3D@@@base@libeYs3D@@@base@libeYs3D@@@?$vector@UCommand@?$WorkerThread@V?$Optional@VCallbackWorkItem@sensors@libeYs3D@@@base@libeYs3D@@@base@libeYs3D@@V?$allocator@UCommand@?$WorkerThread@V?$Optional@VCallbackWorkItem@sensors@libeYs3D@@@base@libeYs3D@@@base@libeYs3D@@@std@@@std@@QEAAX$$QEAUCommand@?$WorkerThread@V?$Optional@VCallbackWorkItem@sensors@libeYs3D@@@base@libeYs3D@@@base@libeYs3D@@@Z
	??$emplace_back@UCommand@?$WorkerThread@V?$Optional@VCallbackWorkItem@video@libeYs3D@@@base@libeYs3D@@@base@libeYs3D@@@?$vector@UCommand@?$WorkerThread@V?$Optional@VCallbackWorkItem@video@libeYs3D@@@base@libeYs3D@@@base@libeYs3D@@V?$allocator@UCommand@?$WorkerThread@V?$Optional@VCallbackWorkItem@video@libeYs3D@@@base@libeYs3D@@@base@libeYs3D@@@std@@@std@@QEAAX$$QEAUCommand@?$WorkerThread@V?$Optional@VCallbackWorkItem@video@libeYs3D@@@base@libeYs3D@@@base@libeYs3D@@@Z
	??$emplace_back@UCommand@?$WorkerThread@V?$Optional@VDACalculateWorkItem@video@libeYs3D@@@base@libeYs3D@@@base@libeYs3D@@@?$vector@UCommand@?$WorkerThread@V?$Optional@VDACalculateWorkItem@video@libeYs3D@@@base@libeYs3D@@@base@libeYs3D@@V?$allocator@UCommand@?$WorkerThread@V?$Optional@VDACalculateWorkItem@video@libeYs3D@@@base@libeYs3D@@@base@libeYs3D@@@std@@@std@@QEAAX$$QEAUCommand@?$WorkerThread@V?$Optional@VDACalculateWorkItem@video@libeYs3D@@@base@libeYs3D@@@base@libeYs3D@@@Z
	??$emplace_back@UMODE_CONFIG@ModeConfig@@@?$vector@UMODE_CONFIG@ModeConfig@@V?$allocator@UMODE_CONFIG@ModeConfig@@@std@@@std@@QEAAX$$QEAUMODE_CONFIG@ModeConfig@@@Z
	??$emplace_hint@AEBU?$pair@$$CBW4IMUPacketSymbol@IMUData@@_K@std@@@?$_Tree@V?$_Tmap_traits@W4IMUPacketSymbol@IMUData@@_KU?$less@W4IMUPacketSymbol@IMUData@@@std@@V?$allocator@U?$pair@$$CBW4IMUPacketSymbol@IMUData@@_K@std@@@4@$0A@@std@@@std@@QEAA?AV?$_Tree_iterator@V?$_Tree_val@U?$_Tree_simple_types@U?$pair@$$CBW4IMUPacketSymbol@IMUData@@_K@std@@@std@@@std@@@1@V?$_Tree_const_iterator@V?$_Tree_val@U?$_Tree_simple_types@U?$pair@$$CBW4IMUPacketSymbol@IMUData@@_K@std@@@std@@@std@@@1@AEBU?$pair@$$CBW4IMUPacketSymbol@IMUData@@_K@1@@Z
	??$emplace_hint@AEBUpiecewise_construct_t@std@@V?$tuple@$$QEAW4IMUPacketSymbol@IMUData@@@2@V?$tuple@$$V@2@@?$_Tree@V?$_Tmap_traits@W4IMUPacketSymbol@IMUData@@_KU?$less@W4IMUPacketSymbol@IMUData@@@std@@V?$allocator@U?$pair@$$CBW4IMUPacketSymbol@IMUData@@_K@std@@@4@$0A@@std@@@std@@QEAA?AV?$_Tree_iterator@V?$_Tree_val@U?$_Tree_simple_types@U?$pair@$$CBW4IMUPacketSymbol@IMUData@@_K@std@@@std@@@std@@@1@V?$_Tree_const_iterator@V?$_Tree_val@U?$_Tree_simple_types@U?$pair@$$CBW4IMUPacketSymbol@IMUData@@_K@std@@@std@@@std@@@1@AEBUpiecewise_construct_t@1@$$QEAV?$tuple@$$QEAW4IMUPacketSymbol@IMUData@@@1@$$QEAV?$tuple@$$V@1@@Z
	??$emplace_hint@AEBUpiecewise_construct_t@std@@V?$tuple@AEBH@2@V?$tuple@$$V@2@@?$_Tree@V?$_Tmap_traits@HUPID_TABLE@ModeConfig@@U?$less@H@std@@V?$allocator@U?$pair@$$CBHUPID_TABLE@ModeConfig@@@std@@@4@$0A@@std@@@std@@QEAA?AV?$_Tree_iterator@V?$_Tree_val@U?$_Tree_simple_types@U?$pair@$$CBHUPID_TABLE@ModeConfig@@@std@@@std@@@std@@@1@V?$_Tree_const_iterator@V?$_Tree_val@U?$_Tree_simple_types@U?$pair@$$CBHUPID_TABLE@ModeConfig@@@std@@@std@@@std@@@1@AEBUpiecewise_construct_t@1@$$QEAV?$tuple@AEBH@1@$$QEAV?$tuple@$$V@1@@Z
	??$emplace_hint@AEBUpiecewise_construct_t@std@@V?$tuple@AEBU?$pair@GG@std@@@2@V?$tuple@$$V@2@@?$_Tree@V?$_Tmap_traits@U?$pair@GG@std@@V?$vector@V?$basic_string@DU?$char_traits@D@std@@V?$allocator@D@2@@std@@V?$allocator@V?$basic_string@DU?$char_traits@D@std@@V?$allocator@D@2@@std@@@2@@2@U?$less@U?$pair@GG@std@@@2@V?$allocator@U?$pair@$$CBU?$pair@GG@std@@V?$vector@V?$basic_string@DU?$char_traits@D@std@@V?$allocator@D@2@@std@@V?$allocator@V?$basic_string@DU?$char_traits@D@std@@V?$allocator@D@2@@std@@@2@@2@@std@@@2@$0A@@std@@@std@@QEAA?AV?$_Tree_iterator@V?$_Tree_val@U?$_Tree_simple_types@U?$pair@$$CBU?$pair@GG@std@@V?$vector@V?$basic_string@DU?$char_traits@D@std@@V?$allocator@D@2@@std@@V?$allocator@V?$basic_string@DU?$char_traits@D@std@@V?$allocator@D@2@@std@@@2@@2@@std@@@std@@@std@@@1@V?$_Tree_const_iterator@V?$_Tree_val@U?$_Tree_simple_types@U?$pair@$$CBU?$pair@GG@std@@V?$vector@V?$basic_string@DU?$char_traits@D@std@@V?$allocator@D@2@@std@@V?$allocator@V?$basic_string@DU?$char_traits@D@std@@V?$allocator@D@2@@std@@@2@@2@@std@@@std@@@std@@@1@AEBUpiecewise_construct_t@1@$$QEAV?$tuple@AEBU?$pair@GG@std@@@1@$$QEAV?$tuple@$$V@1@@Z
	??$emplace_hint@AEBUpiecewise_construct_t@std@@V?$tuple@AEBUDeviceSellectInfo@libeYs3D@@@2@V?$tuple@$$V@2@@?$_Tree@V?$_Tmap_traits@UDeviceSellectInfo@libeYs3D@@V?$shared_ptr@VCameraDevice@devices@libeYs3D@@@std@@U?$less@UDeviceSellectInfo@libeYs3D@@@4@V?$allocator@U?$pair@$$CBUDeviceSellectInfo@libeYs3D@@V?$shared_ptr@VCameraDevice@devices@libeYs3D@@@std@@@std@@@4@$0A@@std@@@std@@QEAA?AV?$_Tree_iterator@V?$_Tree_val@U?$_Tree_simple_types@U?$pair@$$CBUDeviceSellectInfo@libeYs3D@@V?$shared_ptr@VCameraDevice@devices@libeYs3D@@@std@@@std@@@std@@@std@@@1@V?$_Tree_const_iterator@V?$_Tree_val@U?$_Tree_simple_types@U?$pair@$$CBUDeviceSellectInfo@libeYs3D@@V?$shared_ptr@VCameraDevice@devices@libeYs3D@@@std@@@std@@@std@@@std@@@1@AEBUpiecewise_construct_t@1@$$QEAV?$tuple@AEBUDeviceSellectInfo@libeYs3D@@@1@$$QEAV?$tuple@$$V@1@@Z
	??$end@E$0BAAA@@std@@YAPEAEAEAY0BAAA@E@Z
	??$enqueueImpl@V?$Optional@VCallbackWorkItem@sensors@libeYs3D@@@base@libeYs3D@@@?$WorkerThread@V?$Optional@VCallbackWorkItem@sensors@libeYs3D@@@base@libeYs3D@@@base@libeYs3D@@AEAAX$$QEAV?$Optional@VCallbackWorkItem@sensors@libeYs3D@@@12@@Z
	??$enqueueImpl@V?$Optional@VCallbackWorkItem@video@libeYs3D@@@base@libeYs3D@@@?$WorkerThread@V?$Optional@VCallbackWorkItem@video@libeYs3D@@@base@libeYs3D@@@base@libeYs3D@@AEAAX$$QEAV?$Optional@VCallbackWorkItem@video@libeYs3D@@@12@@Z
	??$enqueueImpl@V?$Optional@VDACalculateWorkItem@video@libeYs3D@@@base@libeYs3D@@@?$WorkerThread@V?$Optional@VDACalculateWorkItem@video@libeYs3D@@@base@libeYs3D@@@base@libeYs3D@@AEAAX$$QEAV?$Optional@VDACalculateWorkItem@video@libeYs3D@@@12@@Z
	??$erase@V?$_Tree_iterator@V?$_Tree_val@U?$_Tree_simple_types@U?$pair@$$CBUDeviceSellectInfo@libeYs3D@@V?$shared_ptr@VCameraDevice@devices@libeYs3D@@@std@@@std@@@std@@@std@@@std@@X@?$_Tree@V?$_Tmap_traits@UDeviceSellectInfo@libeYs3D@@V?$shared_ptr@VCameraDevice@devices@libeYs3D@@@std@@U?$less@UDeviceSellectInfo@libeYs3D@@@4@V?$allocator@U?$pair@$$CBUDeviceSellectInfo@libeYs3D@@V?$shared_ptr@VCameraDevice@devices@libeYs3D@@@std@@@std@@@4@$0A@@std@@@std@@QEAA?AV?$_Tree_iterator@V?$_Tree_val@U?$_Tree_simple_types@U?$pair@$$CBUDeviceSellectInfo@libeYs3D@@V?$shared_ptr@VCameraDevice@devices@libeYs3D@@@std@@@std@@@std@@@std@@@1@V21@@Z
	??$forward@$$QEAPEAVFrame@video@libeYs3D@@@std@@YA$$QEAPEAVFrame@video@libeYs3D@@AEAPEAV123@@Z
	??$forward@$$QEAPEBUSensorData@sensors@libeYs3D@@@std@@YA$$QEAPEBUSensorData@sensors@libeYs3D@@AEAPEBU123@@Z
	??$forward@$$QEAPEBUSensorDataSet@sensors@libeYs3D@@@std@@YA$$QEAPEBUSensorDataSet@sensors@libeYs3D@@AEAPEBU123@@Z
	??$forward@$$QEAPEBVFrame@video@libeYs3D@@@std@@YA$$QEAPEBVFrame@video@libeYs3D@@AEAPEBV123@@Z
	??$forward@$$QEAPEBVPCFrame@video@libeYs3D@@@std@@YA$$QEAPEBVPCFrame@video@libeYs3D@@AEAPEBV123@@Z
	??$forward@$$QEAV?$Optional@VCallbackWorkItem@sensors@libeYs3D@@@base@libeYs3D@@@std@@YA$$QEAV?$Optional@VCallbackWorkItem@sensors@libeYs3D@@@base@libeYs3D@@AEAV123@@Z
	??$forward@$$QEAV?$Optional@VCallbackWorkItem@video@libeYs3D@@@base@libeYs3D@@@std@@YA$$QEAV?$Optional@VCallbackWorkItem@video@libeYs3D@@@base@libeYs3D@@AEAV123@@Z
	??$forward@$$QEAV?$Optional@VDACalculateWorkItem@video@libeYs3D@@@base@libeYs3D@@@std@@YA$$QEAV?$Optional@VDACalculateWorkItem@video@libeYs3D@@@base@libeYs3D@@AEAV123@@Z
	??$forward@$$QEAVCallbackWorkItem@sensors@libeYs3D@@@std@@YA$$QEAVCallbackWorkItem@sensors@libeYs3D@@AEAV123@@Z
	??$forward@$$QEAVCallbackWorkItem@video@libeYs3D@@@std@@YA$$QEAVCallbackWorkItem@video@libeYs3D@@AEAV123@@Z
	??$forward@$$QEAVDACalculateWorkItem@video@libeYs3D@@@std@@YA$$QEAVDACalculateWorkItem@video@libeYs3D@@AEAV123@@Z
	??$forward@$$QEAW4IMUPacketSymbol@IMUData@@@std@@YA$$QEAW4IMUPacketSymbol@IMUData@@AEAW412@@Z
	??$forward@AEAG@std@@YAAEAGAEAG@Z
	??$forward@AEAH@std@@YAAEAHAEAH@Z
	??$forward@AEAP8DepthFrameProducer@video@libeYs3D@@EAAXPEAVFrame@23@@Z@std@@YAAEAP8DepthFrameProducer@video@libeYs3D@@EAAXPEAVFrame@23@@ZAEAP8123@EAAX0@Z@Z
	??$forward@AEAP8FrameProducer@video@libeYs3D@@EAA_NPEBUSensorDataSet@sensors@3@@Z@std@@YAAEAP8FrameProducer@video@libeYs3D@@EAA_NPEBUSensorDataSet@sensors@3@@ZAEAP8123@EAA_N0@Z@Z
	??$forward@AEAP8FrameProducer@video@libeYs3D@@EAA_NPEBVFrame@23@@Z@std@@YAAEAP8FrameProducer@video@libeYs3D@@EAA_NPEBVFrame@23@@ZAEAP8123@EAA_N0@Z@Z
	??$forward@AEAP8FrameSetPipeline@devices@libeYs3D@@EAA_NPEBVFrame@video@3@@Z@std@@YAAEAP8FrameSetPipeline@devices@libeYs3D@@EAA_NPEBVFrame@video@3@@ZAEAP8123@EAA_N0@Z@Z
	??$forward@AEAP8FrameSetPipeline@devices@libeYs3D@@EAA_NPEBVPCFrame@video@3@@Z@std@@YAAEAP8FrameSetPipeline@devices@libeYs3D@@EAA_NPEBVPCFrame@video@3@@ZAEAP8123@EAA_N0@Z@Z
	??$forward@AEAP8PCFrameProducer@video@libeYs3D@@EAA_NPEBVFrame@23@@Z@std@@YAAEAP8PCFrameProducer@video@libeYs3D@@EAA_NPEBVFrame@23@@ZAEAP8123@EAA_N0@Z@Z
	??$forward@AEAP8Pipeline@devices@libeYs3D@@EAA_NPEBUSensorData@sensors@3@@Z@std@@YAAEAP8Pipeline@devices@libeYs3D@@EAA_NPEBUSensorData@sensors@3@@ZAEAP8123@EAA_N0@Z@Z
	??$forward@AEAP8Pipeline@devices@libeYs3D@@EAA_NPEBVFrame@video@3@@Z@std@@YAAEAP8Pipeline@devices@libeYs3D@@EAA_NPEBVFrame@video@3@@ZAEAP8123@EAA_N0@Z@Z
	??$forward@AEAP8Pipeline@devices@libeYs3D@@EAA_NPEBVPCFrame@video@3@@Z@std@@YAAEAP8Pipeline@devices@libeYs3D@@EAA_NPEBVPCFrame@video@3@@ZAEAP8123@EAA_N0@Z@Z
	??$forward@AEAP8SensorDataProducer@sensors@libeYs3D@@EAA_NPEBUSensorDataSet@23@@Z@std@@YAAEAP8SensorDataProducer@sensors@libeYs3D@@EAA_NPEBUSensorDataSet@23@@ZAEAP8123@EAA_N0@Z@Z
	??$forward@AEAPEAM@std@@YAAEAPEAMAEAPEAM@Z
	??$forward@AEAPEAU?$_List_node@V?$vector@FV?$allocator@F@std@@@std@@PEAX@std@@@std@@YAAEAPEAU?$_List_node@V?$vector@FV?$allocator@F@std@@@std@@PEAX@0@AEAPEAU10@@Z
	??$forward@AEAPEAU?$_Tree_node@U?$pair@$$CBHH@std@@PEAX@std@@@std@@YAAEAPEAU?$_Tree_node@U?$pair@$$CBHH@std@@PEAX@0@AEAPEAU10@@Z
	??$forward@AEAPEAU?$_Tree_node@U?$pair@$$CBHUPID_TABLE@ModeConfig@@@std@@PEAX@std@@@std@@YAAEAPEAU?$_Tree_node@U?$pair@$$CBHUPID_TABLE@ModeConfig@@@std@@PEAX@0@AEAPEAU10@@Z
	??$forward@AEAPEAU?$_Tree_node@U?$pair@$$CBU?$pair@GG@std@@V?$vector@V?$basic_string@DU?$char_traits@D@std@@V?$allocator@D@2@@std@@V?$allocator@V?$basic_string@DU?$char_traits@D@std@@V?$allocator@D@2@@std@@@2@@2@@std@@PEAX@std@@@std@@YAAEAPEAU?$_Tree_node@U?$pair@$$CBU?$pair@GG@std@@V?$vector@V?$basic_string@DU?$char_traits@D@std@@V?$allocator@D@2@@std@@V?$allocator@V?$basic_string@DU?$char_traits@D@std@@V?$allocator@D@2@@std@@@2@@2@@std@@PEAX@0@AEAPEAU10@@Z
	??$forward@AEAPEAU?$_Tree_node@U?$pair@$$CBUDeviceSellectInfo@libeYs3D@@V?$shared_ptr@VCameraDevice@devices@libeYs3D@@@std@@@std@@PEAX@std@@@std@@YAAEAPEAU?$_Tree_node@U?$pair@$$CBUDeviceSellectInfo@libeYs3D@@V?$shared_ptr@VCameraDevice@devices@libeYs3D@@@std@@@std@@PEAX@0@AEAPEAU10@@Z
	??$forward@AEAPEAU?$_Tree_node@U?$pair@$$CBW4IMUPacketSymbol@IMUData@@_K@std@@PEAX@std@@@std@@YAAEAPEAU?$_Tree_node@U?$pair@$$CBW4IMUPacketSymbol@IMUData@@_K@std@@PEAX@0@AEAPEAU10@@Z
	??$forward@AEAPEAVDepthFrameProducer@video@libeYs3D@@@std@@YAAEAPEAVDepthFrameProducer@video@libeYs3D@@AEAPEAV123@@Z
	??$forward@AEAPEAVFrameProducer@video@libeYs3D@@@std@@YAAEAPEAVFrameProducer@video@libeYs3D@@AEAPEAV123@@Z
	??$forward@AEAPEAVFrameSetPipeline@devices@libeYs3D@@@std@@YAAEAPEAVFrameSetPipeline@devices@libeYs3D@@AEAPEAV123@@Z
	??$forward@AEAPEAVModeConfigOptions@@@std@@YAAEAPEAVModeConfigOptions@@AEAPEAV1@@Z
	??$forward@AEAPEAVPCFrameProducer@video@libeYs3D@@@std@@YAAEAPEAVPCFrameProducer@video@libeYs3D@@AEAPEAV123@@Z
	??$forward@AEAPEAVPCProducer@video@libeYs3D@@@std@@YAAEAPEAVPCProducer@video@libeYs3D@@AEAPEAV123@@Z
	??$forward@AEAPEAVPipeline@devices@libeYs3D@@@std@@YAAEAPEAVPipeline@devices@libeYs3D@@AEAPEAV123@@Z
	??$forward@AEAPEAVSensorDataProducer@sensors@libeYs3D@@@std@@YAAEAPEAVSensorDataProducer@sensors@libeYs3D@@AEAPEAV123@@Z
	??$forward@AEAPEAV_Facet_base@std@@@std@@YAAEAPEAV_Facet_base@0@AEAPEAV10@@Z
	??$forward@AEAU?$pair@$$CBHH@std@@@std@@YAAEAU?$pair@$$CBHH@0@AEAU10@@Z
	??$forward@AEAU?$pair@$$CBHUPID_TABLE@ModeConfig@@@std@@@std@@YAAEAU?$pair@$$CBHUPID_TABLE@ModeConfig@@@0@AEAU10@@Z
	??$forward@AEAU?$pair@$$CBU?$pair@GG@std@@V?$vector@V?$basic_string@DU?$char_traits@D@std@@V?$allocator@D@2@@std@@V?$allocator@V?$basic_string@DU?$char_traits@D@std@@V?$allocator@D@2@@std@@@2@@2@@std@@@std@@YAAEAU?$pair@$$CBU?$pair@GG@std@@V?$vector@V?$basic_string@DU?$char_traits@D@std@@V?$allocator@D@2@@std@@V?$allocator@V?$basic_string@DU?$char_traits@D@std@@V?$allocator@D@2@@std@@@2@@2@@0@AEAU10@@Z
	??$forward@AEAU?$pair@$$CBUDeviceSellectInfo@libeYs3D@@V?$shared_ptr@VCameraDevice@devices@libeYs3D@@@std@@@std@@@std@@YAAEAU?$pair@$$CBUDeviceSellectInfo@libeYs3D@@V?$shared_ptr@VCameraDevice@devices@libeYs3D@@@std@@@0@AEAU10@@Z
	??$forward@AEAU?$pair@$$CBW4IMUPacketSymbol@IMUData@@_K@std@@@std@@YAAEAU?$pair@$$CBW4IMUPacketSymbol@IMUData@@_K@0@AEAU10@@Z
	??$forward@AEAUMODE_CONFIG@ModeConfig@@@std@@YAAEAUMODE_CONFIG@ModeConfig@@AEAU12@@Z
	??$forward@AEAV<lambda_488c629a0a7c1ecc954ac8047e960599>@@@std@@YAAEAV<lambda_488c629a0a7c1ecc954ac8047e960599>@@AEAV1@@Z
	??$forward@AEAV<lambda_4cde73e63763cb313bd212247f8ddbb0>@@@std@@YAAEAV<lambda_4cde73e63763cb313bd212247f8ddbb0>@@AEAV1@@Z
	??$forward@AEAV<lambda_530843cc44829e3530ea01af34e42038>@@@std@@YAAEAV<lambda_530843cc44829e3530ea01af34e42038>@@AEAV1@@Z
	??$forward@AEAV<lambda_69d578ede27bd906c7e1bc689c004001>@@@std@@YAAEAV<lambda_69d578ede27bd906c7e1bc689c004001>@@AEAV1@@Z
	??$forward@AEAV<lambda_9f92d7825455e143dbf3293131d714f3>@@@std@@YAAEAV<lambda_9f92d7825455e143dbf3293131d714f3>@@AEAV1@@Z
	??$forward@AEAV<lambda_fd68a9891d2d9d887c20652be0ece82a>@@@std@@YAAEAV<lambda_fd68a9891d2d9d887c20652be0ece82a>@@AEAV1@@Z
	??$forward@AEAV?$_Binder@U_Unforced@std@@P8DepthFrameProducer@video@libeYs3D@@EAAXPEAVFrame@45@@ZPEAV345@AEBU?$_Ph@$00@2@@std@@@std@@YAAEAV?$_Binder@U_Unforced@std@@P8DepthFrameProducer@video@libeYs3D@@EAAXPEAVFrame@45@@ZPEAV345@AEBU?$_Ph@$00@2@@0@AEAV10@@Z
	??$forward@AEAV?$_Binder@U_Unforced@std@@P8FrameProducer@video@libeYs3D@@EAA_NPEBUSensorDataSet@sensors@5@@ZPEAV345@AEBU?$_Ph@$00@2@@std@@@std@@YAAEAV?$_Binder@U_Unforced@std@@P8FrameProducer@video@libeYs3D@@EAA_NPEBUSensorDataSet@sensors@5@@ZPEAV345@AEBU?$_Ph@$00@2@@0@AEAV10@@Z
	??$forward@AEAV?$_Binder@U_Unforced@std@@P8FrameProducer@video@libeYs3D@@EAA_NPEBVFrame@45@@ZPEAV345@AEBU?$_Ph@$00@2@@std@@@std@@YAAEAV?$_Binder@U_Unforced@std@@P8FrameProducer@video@libeYs3D@@EAA_NPEBVFrame@45@@ZPEAV345@AEBU?$_Ph@$00@2@@0@AEAV10@@Z
	??$forward@AEAV?$_Binder@U_Unforced@std@@P8FrameSetPipeline@devices@libeYs3D@@EAA_NPEBVFrame@video@5@@ZPEAV345@AEBU?$_Ph@$00@2@@std@@@std@@YAAEAV?$_Binder@U_Unforced@std@@P8FrameSetPipeline@devices@libeYs3D@@EAA_NPEBVFrame@video@5@@ZPEAV345@AEBU?$_Ph@$00@2@@0@AEAV10@@Z
	??$forward@AEAV?$_Binder@U_Unforced@std@@P8FrameSetPipeline@devices@libeYs3D@@EAA_NPEBVPCFrame@video@5@@ZPEAV345@AEBU?$_Ph@$00@2@@std@@@std@@YAAEAV?$_Binder@U_Unforced@std@@P8FrameSetPipeline@devices@libeYs3D@@EAA_NPEBVPCFrame@video@5@@ZPEAV345@AEBU?$_Ph@$00@2@@0@AEAV10@@Z
	??$forward@AEAV?$_Binder@U_Unforced@std@@P8PCFrameProducer@video@libeYs3D@@EAA_NPEBVFrame@45@@ZPEAV345@AEBU?$_Ph@$00@2@@std@@@std@@YAAEAV?$_Binder@U_Unforced@std@@P8PCFrameProducer@video@libeYs3D@@EAA_NPEBVFrame@45@@ZPEAV345@AEBU?$_Ph@$00@2@@0@AEAV10@@Z
	??$forward@AEAV?$_Binder@U_Unforced@std@@P8Pipeline@devices@libeYs3D@@EAA_NPEBUSensorData@sensors@5@@ZPEAV345@AEBU?$_Ph@$00@2@@std@@@std@@YAAEAV?$_Binder@U_Unforced@std@@P8Pipeline@devices@libeYs3D@@EAA_NPEBUSensorData@sensors@5@@ZPEAV345@AEBU?$_Ph@$00@2@@0@AEAV10@@Z
	??$forward@AEAV?$_Binder@U_Unforced@std@@P8Pipeline@devices@libeYs3D@@EAA_NPEBVFrame@video@5@@ZPEAV345@AEBU?$_Ph@$00@2@@std@@@std@@YAAEAV?$_Binder@U_Unforced@std@@P8Pipeline@devices@libeYs3D@@EAA_NPEBVFrame@video@5@@ZPEAV345@AEBU?$_Ph@$00@2@@0@AEAV10@@Z
	??$forward@AEAV?$_Binder@U_Unforced@std@@P8Pipeline@devices@libeYs3D@@EAA_NPEBVPCFrame@video@5@@ZPEAV345@AEBU?$_Ph@$00@2@@std@@@std@@YAAEAV?$_Binder@U_Unforced@std@@P8Pipeline@devices@libeYs3D@@EAA_NPEBVPCFrame@video@5@@ZPEAV345@AEBU?$_Ph@$00@2@@0@AEAV10@@Z
	??$forward@AEAV?$_Binder@U_Unforced@std@@P8SensorDataProducer@sensors@libeYs3D@@EAA_NPEBUSensorDataSet@45@@ZPEAV345@AEBU?$_Ph@$00@2@@std@@@std@@YAAEAV?$_Binder@U_Unforced@std@@P8SensorDataProducer@sensors@libeYs3D@@EAA_NPEBUSensorDataSet@45@@ZPEAV345@AEBU?$_Ph@$00@2@@0@AEAV10@@Z
	??$forward@AEAV?$_Tree_const_iterator@V?$_Tree_val@U?$_Tree_simple_types@U?$pair@$$CBU?$pair@GG@std@@V?$vector@V?$basic_string@DU?$char_traits@D@std@@V?$allocator@D@2@@std@@V?$allocator@V?$basic_string@DU?$char_traits@D@std@@V?$allocator@D@2@@std@@@2@@2@@std@@@std@@@std@@@std@@@std@@YAAEAV?$_Tree_const_iterator@V?$_Tree_val@U?$_Tree_simple_types@U?$pair@$$CBU?$pair@GG@std@@V?$vector@V?$basic_string@DU?$char_traits@D@std@@V?$allocator@D@2@@std@@V?$allocator@V?$basic_string@DU?$char_traits@D@std@@V?$allocator@D@2@@std@@@2@@2@@std@@@std@@@std@@@0@AEAV10@@Z
	??$forward@AEAV?$_Tree_iterator@V?$_Tree_val@U?$_Tree_simple_types@U?$pair@$$CBHH@std@@@std@@@std@@@std@@@std@@YAAEAV?$_Tree_iterator@V?$_Tree_val@U?$_Tree_simple_types@U?$pair@$$CBHH@std@@@std@@@std@@@0@AEAV10@@Z
	??$forward@AEAV?$_Tree_iterator@V?$_Tree_val@U?$_Tree_simple_types@U?$pair@$$CBHUPID_TABLE@ModeConfig@@@std@@@std@@@std@@@std@@@std@@YAAEAV?$_Tree_iterator@V?$_Tree_val@U?$_Tree_simple_types@U?$pair@$$CBHUPID_TABLE@ModeConfig@@@std@@@std@@@std@@@0@AEAV10@@Z
	??$forward@AEAV?$_Tree_iterator@V?$_Tree_val@U?$_Tree_simple_types@U?$pair@$$CBU?$pair@GG@std@@V?$vector@V?$basic_string@DU?$char_traits@D@std@@V?$allocator@D@2@@std@@V?$allocator@V?$basic_string@DU?$char_traits@D@std@@V?$allocator@D@2@@std@@@2@@2@@std@@@std@@@std@@@std@@@std@@YAAEAV?$_Tree_iterator@V?$_Tree_val@U?$_Tree_simple_types@U?$pair@$$CBU?$pair@GG@std@@V?$vector@V?$basic_string@DU?$char_traits@D@std@@V?$allocator@D@2@@std@@V?$allocator@V?$basic_string@DU?$char_traits@D@std@@V?$allocator@D@2@@std@@@2@@2@@std@@@std@@@std@@@0@AEAV10@@Z
	??$forward@AEAV?$_Tree_iterator@V?$_Tree_val@U?$_Tree_simple_types@U?$pair@$$CBUDeviceSellectInfo@libeYs3D@@V?$shared_ptr@VCameraDevice@devices@libeYs3D@@@std@@@std@@@std@@@std@@@std@@@std@@YAAEAV?$_Tree_iterator@V?$_Tree_val@U?$_Tree_simple_types@U?$pair@$$CBUDeviceSellectInfo@libeYs3D@@V?$shared_ptr@VCameraDevice@devices@libeYs3D@@@std@@@std@@@std@@@std@@@0@AEAV10@@Z
	??$forward@AEAV?$_Tree_iterator@V?$_Tree_val@U?$_Tree_simple_types@U?$pair@$$CBW4IMUPacketSymbol@IMUData@@_K@std@@@std@@@std@@@std@@@std@@YAAEAV?$_Tree_iterator@V?$_Tree_val@U?$_Tree_simple_types@U?$pair@$$CBW4IMUPacketSymbol@IMUData@@_K@std@@@std@@@std@@@0@AEAV10@@Z
	??$forward@AEAV?$basic_string@DU?$char_traits@D@std@@V?$allocator@D@2@@std@@@std@@YAAEAV?$basic_string@DU?$char_traits@D@std@@V?$allocator@D@2@@0@AEAV10@@Z
	??$forward@AEBF@std@@YAAEBFAEBF@Z
	??$forward@AEBG@std@@YAAEBGAEBG@Z
	??$forward@AEBH@std@@YAAEBHAEBH@Z
	??$forward@AEBM@std@@YAAEBMAEBM@Z
	??$forward@AEBQEAD@std@@YAAEBQEADAEBQEAD@Z
	??$forward@AEBU?$_Ph@$00@std@@@std@@YAAEBU?$_Ph@$00@0@AEBU10@@Z
	??$forward@AEBU?$less@H@std@@@std@@YAAEBU?$less@H@0@AEBU10@@Z
	??$forward@AEBU?$less@U?$pair@GG@std@@@std@@@std@@YAAEBU?$less@U?$pair@GG@std@@@0@AEBU10@@Z
	??$forward@AEBU?$less@UDeviceSellectInfo@libeYs3D@@@std@@@std@@YAAEBU?$less@UDeviceSellectInfo@libeYs3D@@@0@AEBU10@@Z
	??$forward@AEBU?$less@W4IMUPacketSymbol@IMUData@@@std@@@std@@YAAEBU?$less@W4IMUPacketSymbol@IMUData@@@0@AEBU10@@Z
	??$forward@AEBU?$pair@$$CBW4IMUPacketSymbol@IMUData@@_K@std@@@std@@YAAEBU?$pair@$$CBW4IMUPacketSymbol@IMUData@@_K@0@AEBU10@@Z
	??$forward@AEBU?$pair@GG@std@@@std@@YAAEBU?$pair@GG@0@AEBU10@@Z
	??$forward@AEBUCloudPoint@@@std@@YAAEBUCloudPoint@@AEBU1@@Z
	??$forward@AEBUDeviceSellectInfo@libeYs3D@@@std@@YAAEBUDeviceSellectInfo@libeYs3D@@AEBU12@@Z
	??$forward@AEBUMODE_CONFIG@ModeConfig@@@std@@YAAEBUMODE_CONFIG@ModeConfig@@AEBU12@@Z
	??$forward@AEBUpiecewise_construct_t@std@@@std@@YAAEBUpiecewise_construct_t@0@AEBU10@@Z
	??$forward@AEBUtagAPC_STREAM_INFO@@@std@@YAAEBUtagAPC_STREAM_INFO@@AEBU1@@Z
	??$forward@AEBV<lambda_488c629a0a7c1ecc954ac8047e960599>@@@std@@YAAEBV<lambda_488c629a0a7c1ecc954ac8047e960599>@@AEBV1@@Z
	??$forward@AEBV<lambda_4cde73e63763cb313bd212247f8ddbb0>@@@std@@YAAEBV<lambda_4cde73e63763cb313bd212247f8ddbb0>@@AEBV1@@Z
	??$forward@AEBV<lambda_530843cc44829e3530ea01af34e42038>@@@std@@YAAEBV<lambda_530843cc44829e3530ea01af34e42038>@@AEBV1@@Z
	??$forward@AEBV<lambda_69d578ede27bd906c7e1bc689c004001>@@@std@@YAAEBV<lambda_69d578ede27bd906c7e1bc689c004001>@@AEBV1@@Z
	??$forward@AEBV<lambda_9f92d7825455e143dbf3293131d714f3>@@@std@@YAAEBV<lambda_9f92d7825455e143dbf3293131d714f3>@@AEBV1@@Z
	??$forward@AEBV<lambda_fd68a9891d2d9d887c20652be0ece82a>@@@std@@YAAEBV<lambda_fd68a9891d2d9d887c20652be0ece82a>@@AEBV1@@Z
	??$forward@AEBV?$_Binder@U_Unforced@std@@P8DepthFrameProducer@video@libeYs3D@@EAAXPEAVFrame@45@@ZPEAV345@AEBU?$_Ph@$00@2@@std@@@std@@YAAEBV?$_Binder@U_Unforced@std@@P8DepthFrameProducer@video@libeYs3D@@EAAXPEAVFrame@45@@ZPEAV345@AEBU?$_Ph@$00@2@@0@AEBV10@@Z
	??$forward@AEBV?$_Binder@U_Unforced@std@@P8FrameProducer@video@libeYs3D@@EAA_NPEBUSensorDataSet@sensors@5@@ZPEAV345@AEBU?$_Ph@$00@2@@std@@@std@@YAAEBV?$_Binder@U_Unforced@std@@P8FrameProducer@video@libeYs3D@@EAA_NPEBUSensorDataSet@sensors@5@@ZPEAV345@AEBU?$_Ph@$00@2@@0@AEBV10@@Z
	??$forward@AEBV?$_Binder@U_Unforced@std@@P8FrameProducer@video@libeYs3D@@EAA_NPEBVFrame@45@@ZPEAV345@AEBU?$_Ph@$00@2@@std@@@std@@YAAEBV?$_Binder@U_Unforced@std@@P8FrameProducer@video@libeYs3D@@EAA_NPEBVFrame@45@@ZPEAV345@AEBU?$_Ph@$00@2@@0@AEBV10@@Z
	??$forward@AEBV?$_Binder@U_Unforced@std@@P8FrameSetPipeline@devices@libeYs3D@@EAA_NPEBVFrame@video@5@@ZPEAV345@AEBU?$_Ph@$00@2@@std@@@std@@YAAEBV?$_Binder@U_Unforced@std@@P8FrameSetPipeline@devices@libeYs3D@@EAA_NPEBVFrame@video@5@@ZPEAV345@AEBU?$_Ph@$00@2@@0@AEBV10@@Z
	??$forward@AEBV?$_Binder@U_Unforced@std@@P8FrameSetPipeline@devices@libeYs3D@@EAA_NPEBVPCFrame@video@5@@ZPEAV345@AEBU?$_Ph@$00@2@@std@@@std@@YAAEBV?$_Binder@U_Unforced@std@@P8FrameSetPipeline@devices@libeYs3D@@EAA_NPEBVPCFrame@video@5@@ZPEAV345@AEBU?$_Ph@$00@2@@0@AEBV10@@Z
	??$forward@AEBV?$_Binder@U_Unforced@std@@P8PCFrameProducer@video@libeYs3D@@EAA_NPEBVFrame@45@@ZPEAV345@AEBU?$_Ph@$00@2@@std@@@std@@YAAEBV?$_Binder@U_Unforced@std@@P8PCFrameProducer@video@libeYs3D@@EAA_NPEBVFrame@45@@ZPEAV345@AEBU?$_Ph@$00@2@@0@AEBV10@@Z
	??$forward@AEBV?$_Binder@U_Unforced@std@@P8Pipeline@devices@libeYs3D@@EAA_NPEBUSensorData@sensors@5@@ZPEAV345@AEBU?$_Ph@$00@2@@std@@@std@@YAAEBV?$_Binder@U_Unforced@std@@P8Pipeline@devices@libeYs3D@@EAA_NPEBUSensorData@sensors@5@@ZPEAV345@AEBU?$_Ph@$00@2@@0@AEBV10@@Z
	??$forward@AEBV?$_Binder@U_Unforced@std@@P8Pipeline@devices@libeYs3D@@EAA_NPEBVFrame@video@5@@ZPEAV345@AEBU?$_Ph@$00@2@@std@@@std@@YAAEBV?$_Binder@U_Unforced@std@@P8Pipeline@devices@libeYs3D@@EAA_NPEBVFrame@video@5@@ZPEAV345@AEBU?$_Ph@$00@2@@0@AEBV10@@Z
	??$forward@AEBV?$_Binder@U_Unforced@std@@P8Pipeline@devices@libeYs3D@@EAA_NPEBVPCFrame@video@5@@ZPEAV345@AEBU?$_Ph@$00@2@@std@@@std@@YAAEBV?$_Binder@U_Unforced@std@@P8Pipeline@devices@libeYs3D@@EAA_NPEBVPCFrame@video@5@@ZPEAV345@AEBU?$_Ph@$00@2@@0@AEBV10@@Z
	??$forward@AEBV?$_Binder@U_Unforced@std@@P8SensorDataProducer@sensors@libeYs3D@@EAA_NPEBUSensorDataSet@45@@ZPEAV345@AEBU?$_Ph@$00@2@@std@@@std@@YAAEBV?$_Binder@U_Unforced@std@@P8SensorDataProducer@sensors@libeYs3D@@EAA_NPEBUSensorDataSet@45@@ZPEAV345@AEBU?$_Ph@$00@2@@0@AEBV10@@Z
	??$forward@AEBV?$allocator@D@std@@@std@@YAAEBV?$allocator@D@0@AEBV10@@Z
	??$forward@AEBV?$allocator@E@std@@@std@@YAAEBV?$allocator@E@0@AEBV10@@Z
	??$forward@AEBV?$allocator@G@std@@@std@@YAAEBV?$allocator@G@0@AEBV10@@Z
	??$forward@AEBV?$allocator@M@std@@@std@@YAAEBV?$allocator@M@0@AEBV10@@Z
	??$forward@AEBV?$allocator@USensorData@sensors@libeYs3D@@@std@@@std@@YAAEBV?$allocator@USensorData@sensors@libeYs3D@@@0@AEBV10@@Z
	??$forward@AEBV?$allocator@V?$Optional@V?$WorkerThread@V?$Optional@VCallbackWorkItem@sensors@libeYs3D@@@base@libeYs3D@@@base@libeYs3D@@@base@libeYs3D@@@std@@@std@@YAAEBV?$allocator@V?$Optional@V?$WorkerThread@V?$Optional@VCallbackWorkItem@sensors@libeYs3D@@@base@libeYs3D@@@base@libeYs3D@@@base@libeYs3D@@@0@AEBV10@@Z
	??$forward@AEBV?$allocator@V?$Optional@V?$WorkerThread@V?$Optional@VCallbackWorkItem@video@libeYs3D@@@base@libeYs3D@@@base@libeYs3D@@@base@libeYs3D@@@std@@@std@@YAAEBV?$allocator@V?$Optional@V?$WorkerThread@V?$Optional@VCallbackWorkItem@video@libeYs3D@@@base@libeYs3D@@@base@libeYs3D@@@base@libeYs3D@@@0@AEBV10@@Z
	??$forward@AEBV?$allocator@V?$Optional@V?$WorkerThread@V?$Optional@VDACalculateWorkItem@video@libeYs3D@@@base@libeYs3D@@@base@libeYs3D@@@base@libeYs3D@@@std@@@std@@YAAEBV?$allocator@V?$Optional@V?$WorkerThread@V?$Optional@VDACalculateWorkItem@video@libeYs3D@@@base@libeYs3D@@@base@libeYs3D@@@base@libeYs3D@@@0@AEBV10@@Z
	??$forward@AEBV?$allocator@V?$vector@FV?$allocator@F@std@@@std@@@std@@@std@@YAAEBV?$allocator@V?$vector@FV?$allocator@F@std@@@std@@@0@AEBV10@@Z
	??$forward@AEBV?$allocator@W4IMU_DATA_FORMAT@IMUDevice@devices@libeYs3D@@@std@@@std@@YAAEBV?$allocator@W4IMU_DATA_FORMAT@IMUDevice@devices@libeYs3D@@@0@AEBV10@@Z
	??$forward@AEBV?$basic_string@DU?$char_traits@D@std@@V?$allocator@D@2@@std@@@std@@YAAEBV?$basic_string@DU?$char_traits@D@std@@V?$allocator@D@2@@0@AEBV10@@Z
	??$forward@H@std@@YA$$QEAHAEAH@Z
	??$forward@P8DepthFrameProducer@video@libeYs3D@@EAAXPEAVFrame@23@@Z@std@@YA$$QEAP8DepthFrameProducer@video@libeYs3D@@EAAXPEAVFrame@23@@ZAEAP8123@EAAX0@Z@Z
	??$forward@P8FrameProducer@video@libeYs3D@@EAA_NPEBUSensorDataSet@sensors@3@@Z@std@@YA$$QEAP8FrameProducer@video@libeYs3D@@EAA_NPEBUSensorDataSet@sensors@3@@ZAEAP8123@EAA_N0@Z@Z
	??$forward@P8FrameProducer@video@libeYs3D@@EAA_NPEBVFrame@23@@Z@std@@YA$$QEAP8FrameProducer@video@libeYs3D@@EAA_NPEBVFrame@23@@ZAEAP8123@EAA_N0@Z@Z
	??$forward@P8FrameSetPipeline@devices@libeYs3D@@EAA_NPEBVFrame@video@3@@Z@std@@YA$$QEAP8FrameSetPipeline@devices@libeYs3D@@EAA_NPEBVFrame@video@3@@ZAEAP8123@EAA_N0@Z@Z
	??$forward@P8FrameSetPipeline@devices@libeYs3D@@EAA_NPEBVPCFrame@video@3@@Z@std@@YA$$QEAP8FrameSetPipeline@devices@libeYs3D@@EAA_NPEBVPCFrame@video@3@@ZAEAP8123@EAA_N0@Z@Z
	??$forward@P8PCFrameProducer@video@libeYs3D@@EAA_NPEBVFrame@23@@Z@std@@YA$$QEAP8PCFrameProducer@video@libeYs3D@@EAA_NPEBVFrame@23@@ZAEAP8123@EAA_N0@Z@Z
	??$forward@P8Pipeline@devices@libeYs3D@@EAA_NPEBUSensorData@sensors@3@@Z@std@@YA$$QEAP8Pipeline@devices@libeYs3D@@EAA_NPEBUSensorData@sensors@3@@ZAEAP8123@EAA_N0@Z@Z
	??$forward@P8Pipeline@devices@libeYs3D@@EAA_NPEBVFrame@video@3@@Z@std@@YA$$QEAP8Pipeline@devices@libeYs3D@@EAA_NPEBVFrame@video@3@@ZAEAP8123@EAA_N0@Z@Z
	??$forward@P8Pipeline@devices@libeYs3D@@EAA_NPEBVPCFrame@video@3@@Z@std@@YA$$QEAP8Pipeline@devices@libeYs3D@@EAA_NPEBVPCFrame@video@3@@ZAEAP8123@EAA_N0@Z@Z
	??$forward@P8SensorDataProducer@sensors@libeYs3D@@EAA_NPEBUSensorDataSet@23@@Z@std@@YA$$QEAP8SensorDataProducer@sensors@libeYs3D@@EAA_NPEBUSensorDataSet@23@@ZAEAP8123@EAA_N0@Z@Z
	??$forward@PEAVDepthFrameProducer@video@libeYs3D@@@std@@YA$$QEAPEAVDepthFrameProducer@video@libeYs3D@@AEAPEAV123@@Z
	??$forward@PEAVFrame@video@libeYs3D@@@std@@YA$$QEAPEAVFrame@video@libeYs3D@@AEAPEAV123@@Z
	??$forward@PEAVFrameProducer@video@libeYs3D@@@std@@YA$$QEAPEAVFrameProducer@video@libeYs3D@@AEAPEAV123@@Z
	??$forward@PEAVFrameSetPipeline@devices@libeYs3D@@@std@@YA$$QEAPEAVFrameSetPipeline@devices@libeYs3D@@AEAPEAV123@@Z
	??$forward@PEAVPCFrameProducer@video@libeYs3D@@@std@@YA$$QEAPEAVPCFrameProducer@video@libeYs3D@@AEAPEAV123@@Z
	??$forward@PEAVPipeline@devices@libeYs3D@@@std@@YA$$QEAPEAVPipeline@devices@libeYs3D@@AEAPEAV123@@Z
	??$forward@PEAVSensorDataProducer@sensors@libeYs3D@@@std@@YA$$QEAPEAVSensorDataProducer@sensors@libeYs3D@@AEAPEAV123@@Z
	??$forward@PEBUSensorData@sensors@libeYs3D@@@std@@YA$$QEAPEBUSensorData@sensors@libeYs3D@@AEAPEBU123@@Z
	??$forward@PEBUSensorDataSet@sensors@libeYs3D@@@std@@YA$$QEAPEBUSensorDataSet@sensors@libeYs3D@@AEAPEBU123@@Z
	??$forward@PEBVFrame@video@libeYs3D@@@std@@YA$$QEAPEBVFrame@video@libeYs3D@@AEAPEBV123@@Z
	??$forward@PEBVPCFrame@video@libeYs3D@@@std@@YA$$QEAPEBVPCFrame@video@libeYs3D@@AEAPEBV123@@Z
	??$forward@U?$default_delete@VFrameProducer@video@libeYs3D@@@std@@@std@@YA$$QEAU?$default_delete@VFrameProducer@video@libeYs3D@@@0@AEAU10@@Z
	??$forward@U?$default_delete@VPCProducer@video@libeYs3D@@@std@@@std@@YA$$QEAU?$default_delete@VPCProducer@video@libeYs3D@@@0@AEAU10@@Z
	??$forward@U?$pair@HH@std@@@std@@YA$$QEAU?$pair@HH@0@AEAU10@@Z
	??$forward@UCommand@?$WorkerThread@V?$Optional@VCallbackWorkItem@sensors@libeYs3D@@@base@libeYs3D@@@base@libeYs3D@@@std@@YA$$QEAUCommand@?$WorkerThread@V?$Optional@VCallbackWorkItem@sensors@libeYs3D@@@base@libeYs3D@@@base@libeYs3D@@AEAU1234@@Z
	??$forward@UCommand@?$WorkerThread@V?$Optional@VCallbackWorkItem@video@libeYs3D@@@base@libeYs3D@@@base@libeYs3D@@@std@@YA$$QEAUCommand@?$WorkerThread@V?$Optional@VCallbackWorkItem@video@libeYs3D@@@base@libeYs3D@@@base@libeYs3D@@AEAU1234@@Z
	??$forward@UCommand@?$WorkerThread@V?$Optional@VDACalculateWorkItem@video@libeYs3D@@@base@libeYs3D@@@base@libeYs3D@@@std@@YA$$QEAUCommand@?$WorkerThread@V?$Optional@VDACalculateWorkItem@video@libeYs3D@@@base@libeYs3D@@@base@libeYs3D@@AEAU1234@@Z
	??$forward@UMODE_CONFIG@ModeConfig@@@std@@YA$$QEAUMODE_CONFIG@ModeConfig@@AEAU12@@Z
	??$forward@USensorData@sensors@libeYs3D@@@std@@YA$$QEAUSensorData@sensors@libeYs3D@@AEAU123@@Z
	??$forward@U_Container_proxy@std@@@std@@YA$$QEAU_Container_proxy@0@AEAU10@@Z
	??$forward@U_Zero_then_variadic_args_t@std@@@std@@YA$$QEAU_Zero_then_variadic_args_t@0@AEAU10@@Z
	??$forward@V<lambda_488c629a0a7c1ecc954ac8047e960599>@@@std@@YA$$QEAV<lambda_488c629a0a7c1ecc954ac8047e960599>@@AEAV1@@Z
	??$forward@V<lambda_4cde73e63763cb313bd212247f8ddbb0>@@@std@@YA$$QEAV<lambda_4cde73e63763cb313bd212247f8ddbb0>@@AEAV1@@Z
	??$forward@V<lambda_530843cc44829e3530ea01af34e42038>@@@std@@YA$$QEAV<lambda_530843cc44829e3530ea01af34e42038>@@AEAV1@@Z
	??$forward@V<lambda_69d578ede27bd906c7e1bc689c004001>@@@std@@YA$$QEAV<lambda_69d578ede27bd906c7e1bc689c004001>@@AEAV1@@Z
	??$forward@V<lambda_9f92d7825455e143dbf3293131d714f3>@@@std@@YA$$QEAV<lambda_9f92d7825455e143dbf3293131d714f3>@@AEAV1@@Z
	??$forward@V<lambda_fd68a9891d2d9d887c20652be0ece82a>@@@std@@YA$$QEAV<lambda_fd68a9891d2d9d887c20652be0ece82a>@@AEAV1@@Z
	??$forward@V?$Optional@VCallbackWorkItem@sensors@libeYs3D@@@base@libeYs3D@@@std@@YA$$QEAV?$Optional@VCallbackWorkItem@sensors@libeYs3D@@@base@libeYs3D@@AEAV123@@Z
	??$forward@V?$Optional@VCallbackWorkItem@video@libeYs3D@@@base@libeYs3D@@@std@@YA$$QEAV?$Optional@VCallbackWorkItem@video@libeYs3D@@@base@libeYs3D@@AEAV123@@Z
	??$forward@V?$Optional@VDACalculateWorkItem@video@libeYs3D@@@base@libeYs3D@@@std@@YA$$QEAV?$Optional@VDACalculateWorkItem@video@libeYs3D@@@base@libeYs3D@@AEAV123@@Z
	??$forward@V?$_Binder@U_Unforced@std@@P8DepthFrameProducer@video@libeYs3D@@EAAXPEAVFrame@45@@ZPEAV345@AEBU?$_Ph@$00@2@@std@@@std@@YA$$QEAV?$_Binder@U_Unforced@std@@P8DepthFrameProducer@video@libeYs3D@@EAAXPEAVFrame@45@@ZPEAV345@AEBU?$_Ph@$00@2@@0@AEAV10@@Z
	??$forward@V?$_Binder@U_Unforced@std@@P8FrameProducer@video@libeYs3D@@EAA_NPEBUSensorDataSet@sensors@5@@ZPEAV345@AEBU?$_Ph@$00@2@@std@@@std@@YA$$QEAV?$_Binder@U_Unforced@std@@P8FrameProducer@video@libeYs3D@@EAA_NPEBUSensorDataSet@sensors@5@@ZPEAV345@AEBU?$_Ph@$00@2@@0@AEAV10@@Z
	??$forward@V?$_Binder@U_Unforced@std@@P8FrameProducer@video@libeYs3D@@EAA_NPEBVFrame@45@@ZPEAV345@AEBU?$_Ph@$00@2@@std@@@std@@YA$$QEAV?$_Binder@U_Unforced@std@@P8FrameProducer@video@libeYs3D@@EAA_NPEBVFrame@45@@ZPEAV345@AEBU?$_Ph@$00@2@@0@AEAV10@@Z
	??$forward@V?$_Binder@U_Unforced@std@@P8FrameSetPipeline@devices@libeYs3D@@EAA_NPEBVFrame@video@5@@ZPEAV345@AEBU?$_Ph@$00@2@@std@@@std@@YA$$QEAV?$_Binder@U_Unforced@std@@P8FrameSetPipeline@devices@libeYs3D@@EAA_NPEBVFrame@video@5@@ZPEAV345@AEBU?$_Ph@$00@2@@0@AEAV10@@Z
	??$forward@V?$_Binder@U_Unforced@std@@P8FrameSetPipeline@devices@libeYs3D@@EAA_NPEBVPCFrame@video@5@@ZPEAV345@AEBU?$_Ph@$00@2@@std@@@std@@YA$$QEAV?$_Binder@U_Unforced@std@@P8FrameSetPipeline@devices@libeYs3D@@EAA_NPEBVPCFrame@video@5@@ZPEAV345@AEBU?$_Ph@$00@2@@0@AEAV10@@Z
	??$forward@V?$_Binder@U_Unforced@std@@P8PCFrameProducer@video@libeYs3D@@EAA_NPEBVFrame@45@@ZPEAV345@AEBU?$_Ph@$00@2@@std@@@std@@YA$$QEAV?$_Binder@U_Unforced@std@@P8PCFrameProducer@video@libeYs3D@@EAA_NPEBVFrame@45@@ZPEAV345@AEBU?$_Ph@$00@2@@0@AEAV10@@Z
	??$forward@V?$_Binder@U_Unforced@std@@P8Pipeline@devices@libeYs3D@@EAA_NPEBUSensorData@sensors@5@@ZPEAV345@AEBU?$_Ph@$00@2@@std@@@std@@YA$$QEAV?$_Binder@U_Unforced@std@@P8Pipeline@devices@libeYs3D@@EAA_NPEBUSensorData@sensors@5@@ZPEAV345@AEBU?$_Ph@$00@2@@0@AEAV10@@Z
	??$forward@V?$_Binder@U_Unforced@std@@P8Pipeline@devices@libeYs3D@@EAA_NPEBVFrame@video@5@@ZPEAV345@AEBU?$_Ph@$00@2@@std@@@std@@YA$$QEAV?$_Binder@U_Unforced@std@@P8Pipeline@devices@libeYs3D@@EAA_NPEBVFrame@video@5@@ZPEAV345@AEBU?$_Ph@$00@2@@0@AEAV10@@Z
	??$forward@V?$_Binder@U_Unforced@std@@P8Pipeline@devices@libeYs3D@@EAA_NPEBVPCFrame@video@5@@ZPEAV345@AEBU?$_Ph@$00@2@@std@@@std@@YA$$QEAV?$_Binder@U_Unforced@std@@P8Pipeline@devices@libeYs3D@@EAA_NPEBVPCFrame@video@5@@ZPEAV345@AEBU?$_Ph@$00@2@@0@AEAV10@@Z
	??$forward@V?$_Binder@U_Unforced@std@@P8SensorDataProducer@sensors@libeYs3D@@EAA_NPEBUSensorDataSet@45@@ZPEAV345@AEBU?$_Ph@$00@2@@std@@@std@@YA$$QEAV?$_Binder@U_Unforced@std@@P8SensorDataProducer@sensors@libeYs3D@@EAA_NPEBUSensorDataSet@45@@ZPEAV345@AEBU?$_Ph@$00@2@@0@AEAV10@@Z
	??$forward@V?$_Tree_iterator@V?$_Tree_val@U?$_Tree_simple_types@U?$pair@$$CBHH@std@@@std@@@std@@@std@@@std@@YA$$QEAV?$_Tree_iterator@V?$_Tree_val@U?$_Tree_simple_types@U?$pair@$$CBHH@std@@@std@@@std@@@0@AEAV10@@Z
	??$forward@V?$_Tree_iterator@V?$_Tree_val@U?$_Tree_simple_types@U?$pair@$$CBHUPID_TABLE@ModeConfig@@@std@@@std@@@std@@@std@@@std@@YA$$QEAV?$_Tree_iterator@V?$_Tree_val@U?$_Tree_simple_types@U?$pair@$$CBHUPID_TABLE@ModeConfig@@@std@@@std@@@std@@@0@AEAV10@@Z
	??$forward@V?$_Tree_iterator@V?$_Tree_val@U?$_Tree_simple_types@U?$pair@$$CBU?$pair@GG@std@@V?$vector@V?$basic_string@DU?$char_traits@D@std@@V?$allocator@D@2@@std@@V?$allocator@V?$basic_string@DU?$char_traits@D@std@@V?$allocator@D@2@@std@@@2@@2@@std@@@std@@@std@@@std@@@std@@YA$$QEAV?$_Tree_iterator@V?$_Tree_val@U?$_Tree_simple_types@U?$pair@$$CBU?$pair@GG@std@@V?$vector@V?$basic_string@DU?$char_traits@D@std@@V?$allocator@D@2@@std@@V?$allocator@V?$basic_string@DU?$char_traits@D@std@@V?$allocator@D@2@@std@@@2@@2@@std@@@std@@@std@@@0@AEAV10@@Z
	??$forward@V?$_Tree_iterator@V?$_Tree_val@U?$_Tree_simple_types@U?$pair@$$CBUDeviceSellectInfo@libeYs3D@@V?$shared_ptr@VCameraDevice@devices@libeYs3D@@@std@@@std@@@std@@@std@@@std@@@std@@YA$$QEAV?$_Tree_iterator@V?$_Tree_val@U?$_Tree_simple_types@U?$pair@$$CBUDeviceSellectInfo@libeYs3D@@V?$shared_ptr@VCameraDevice@devices@libeYs3D@@@std@@@std@@@std@@@std@@@0@AEAV10@@Z
	??$forward@V?$_Tree_iterator@V?$_Tree_val@U?$_Tree_simple_types@U?$pair@$$CBW4IMUPacketSymbol@IMUData@@_K@std@@@std@@@std@@@std@@@std@@YA$$QEAV?$_Tree_iterator@V?$_Tree_val@U?$_Tree_simple_types@U?$pair@$$CBW4IMUPacketSymbol@IMUData@@_K@std@@@std@@@std@@@0@AEAV10@@Z
	??$forward@V?$allocator@D@std@@@std@@YA$$QEAV?$allocator@D@0@AEAV10@@Z
	??$forward@V?$allocator@E@std@@@std@@YA$$QEAV?$allocator@E@0@AEAV10@@Z
	??$forward@V?$allocator@G@std@@@std@@YA$$QEAV?$allocator@G@0@AEAV10@@Z
	??$forward@V?$allocator@H@std@@@std@@YA$$QEAV?$allocator@H@0@AEAV10@@Z
	??$forward@V?$allocator@M@std@@@std@@YA$$QEAV?$allocator@M@0@AEAV10@@Z
	??$forward@V?$allocator@UMODE_CONFIG@ModeConfig@@@std@@@std@@YA$$QEAV?$allocator@UMODE_CONFIG@ModeConfig@@@0@AEAV10@@Z
	??$forward@V?$allocator@USensorData@sensors@libeYs3D@@@std@@@std@@YA$$QEAV?$allocator@USensorData@sensors@libeYs3D@@@0@AEAV10@@Z
	??$forward@V?$allocator@V?$basic_string@DU?$char_traits@D@std@@V?$allocator@D@2@@std@@@std@@@std@@YA$$QEAV?$allocator@V?$basic_string@DU?$char_traits@D@std@@V?$allocator@D@2@@std@@@0@AEAV10@@Z
	??$forward@V?$basic_string@DU?$char_traits@D@std@@V?$allocator@D@2@@std@@@std@@YA$$QEAV?$basic_string@DU?$char_traits@D@std@@V?$allocator@D@2@@0@AEAV10@@Z
	??$forward@V?$tuple@$$QEAW4IMUPacketSymbol@IMUData@@@std@@@std@@YA$$QEAV?$tuple@$$QEAW4IMUPacketSymbol@IMUData@@@0@AEAV10@@Z
	??$forward@V?$tuple@$$V@std@@@std@@YA$$QEAV?$tuple@$$V@0@AEAV10@@Z
	??$forward@V?$tuple@AEBH@std@@@std@@YA$$QEAV?$tuple@AEBH@0@AEAV10@@Z
	??$forward@V?$tuple@AEBU?$pair@GG@std@@@std@@@std@@YA$$QEAV?$tuple@AEBU?$pair@GG@std@@@0@AEAV10@@Z
	??$forward@V?$tuple@AEBUDeviceSellectInfo@libeYs3D@@@std@@@std@@YA$$QEAV?$tuple@AEBUDeviceSellectInfo@libeYs3D@@@0@AEAV10@@Z
	??$forward@VCallbackWorkItem@sensors@libeYs3D@@@std@@YA$$QEAVCallbackWorkItem@sensors@libeYs3D@@AEAV123@@Z
	??$forward@VCallbackWorkItem@video@libeYs3D@@@std@@YA$$QEAVCallbackWorkItem@video@libeYs3D@@AEAV123@@Z
	??$forward@VDACalculateWorkItem@video@libeYs3D@@@std@@YA$$QEAVDACalculateWorkItem@video@libeYs3D@@AEAV123@@Z
	??$forward@W4IMUPacketSymbol@IMUData@@@std@@YA$$QEAW4IMUPacketSymbol@IMUData@@AEAW412@@Z
	??$forward@_N@std@@YA$$QEA_NAEA_N@Z
	??$forward_as_tuple@$$V@std@@YA?AV?$tuple@$$V@0@XZ
	??$forward_as_tuple@AEBH@std@@YA?AV?$tuple@AEBH@0@AEBH@Z
	??$forward_as_tuple@AEBU?$pair@GG@std@@@std@@YA?AV?$tuple@AEBU?$pair@GG@std@@@0@AEBU?$pair@GG@0@@Z
	??$forward_as_tuple@AEBUDeviceSellectInfo@libeYs3D@@@std@@YA?AV?$tuple@AEBUDeviceSellectInfo@libeYs3D@@@0@AEBUDeviceSellectInfo@libeYs3D@@@Z
	??$forward_as_tuple@PEAVFrame@video@libeYs3D@@@std@@YA?AV?$tuple@$$QEAPEAVFrame@video@libeYs3D@@@0@$$QEAPEAVFrame@video@libeYs3D@@@Z
	??$forward_as_tuple@PEBUSensorData@sensors@libeYs3D@@@std@@YA?AV?$tuple@$$QEAPEBUSensorData@sensors@libeYs3D@@@0@$$QEAPEBUSensorData@sensors@libeYs3D@@@Z
	??$forward_as_tuple@PEBUSensorDataSet@sensors@libeYs3D@@@std@@YA?AV?$tuple@$$QEAPEBUSensorDataSet@sensors@libeYs3D@@@0@$$QEAPEBUSensorDataSet@sensors@libeYs3D@@@Z
	??$forward_as_tuple@PEBVFrame@video@libeYs3D@@@std@@YA?AV?$tuple@$$QEAPEBVFrame@video@libeYs3D@@@0@$$QEAPEBVFrame@video@libeYs3D@@@Z
	??$forward_as_tuple@PEBVPCFrame@video@libeYs3D@@@std@@YA?AV?$tuple@$$QEAPEBVPCFrame@video@libeYs3D@@@0@$$QEAPEBVPCFrame@video@libeYs3D@@@Z
	??$forward_as_tuple@W4IMUPacketSymbol@IMUData@@@std@@YA?AV?$tuple@$$QEAW4IMUPacketSymbol@IMUData@@@0@$$QEAW4IMUPacketSymbol@IMUData@@@Z
	??$get@$00PEAVDepthFrameProducer@video@libeYs3D@@U?$_Ph@$00@std@@@std@@YAAEAU?$_Ph@$00@0@AEAV?$tuple@PEAVDepthFrameProducer@video@libeYs3D@@U?$_Ph@$00@std@@@0@@Z
	??$get@$00PEAVFrameProducer@video@libeYs3D@@U?$_Ph@$00@std@@@std@@YAAEAU?$_Ph@$00@0@AEAV?$tuple@PEAVFrameProducer@video@libeYs3D@@U?$_Ph@$00@std@@@0@@Z
	??$get@$00PEAVFrameSetPipeline@devices@libeYs3D@@U?$_Ph@$00@std@@@std@@YAAEAU?$_Ph@$00@0@AEAV?$tuple@PEAVFrameSetPipeline@devices@libeYs3D@@U?$_Ph@$00@std@@@0@@Z
	??$get@$00PEAVPCFrameProducer@video@libeYs3D@@U?$_Ph@$00@std@@@std@@YAAEAU?$_Ph@$00@0@AEAV?$tuple@PEAVPCFrameProducer@video@libeYs3D@@U?$_Ph@$00@std@@@0@@Z
	??$get@$00PEAVPipeline@devices@libeYs3D@@U?$_Ph@$00@std@@@std@@YAAEAU?$_Ph@$00@0@AEAV?$tuple@PEAVPipeline@devices@libeYs3D@@U?$_Ph@$00@std@@@0@@Z
	??$get@$00PEAVSensorDataProducer@sensors@libeYs3D@@U?$_Ph@$00@std@@@std@@YAAEAU?$_Ph@$00@0@AEAV?$tuple@PEAVSensorDataProducer@sensors@libeYs3D@@U?$_Ph@$00@std@@@0@@Z
	??$get@$0A@$$QEAPEAVFrame@video@libeYs3D@@@std@@YA$$QEAPEAVFrame@video@libeYs3D@@$$QEAV?$tuple@$$QEAPEAVFrame@video@libeYs3D@@@0@@Z
	??$get@$0A@$$QEAPEBUSensorData@sensors@libeYs3D@@@std@@YA$$QEAPEBUSensorData@sensors@libeYs3D@@$$QEAV?$tuple@$$QEAPEBUSensorData@sensors@libeYs3D@@@0@@Z
	??$get@$0A@$$QEAPEBUSensorDataSet@sensors@libeYs3D@@@std@@YA$$QEAPEBUSensorDataSet@sensors@libeYs3D@@$$QEAV?$tuple@$$QEAPEBUSensorDataSet@sensors@libeYs3D@@@0@@Z
	??$get@$0A@$$QEAPEBVFrame@video@libeYs3D@@@std@@YA$$QEAPEBVFrame@video@libeYs3D@@$$QEAV?$tuple@$$QEAPEBVFrame@video@libeYs3D@@@0@@Z
	??$get@$0A@$$QEAPEBVPCFrame@video@libeYs3D@@@std@@YA$$QEAPEBVPCFrame@video@libeYs3D@@$$QEAV?$tuple@$$QEAPEBVPCFrame@video@libeYs3D@@@0@@Z
	??$get@$0A@$$QEAW4IMUPacketSymbol@IMUData@@@std@@YA$$QEAW4IMUPacketSymbol@IMUData@@$$QEAV?$tuple@$$QEAW4IMUPacketSymbol@IMUData@@@0@@Z
	??$get@$0A@AEBH@std@@YAAEBH$$QEAV?$tuple@AEBH@0@@Z
	??$get@$0A@AEBU?$pair@GG@std@@@std@@YAAEBU?$pair@GG@0@$$QEAV?$tuple@AEBU?$pair@GG@std@@@0@@Z
	??$get@$0A@AEBUDeviceSellectInfo@libeYs3D@@@std@@YAAEBUDeviceSellectInfo@libeYs3D@@$$QEAV?$tuple@AEBUDeviceSellectInfo@libeYs3D@@@0@@Z
	??$get@$0A@PEAVDepthFrameProducer@video@libeYs3D@@U?$_Ph@$00@std@@@std@@YAAEAPEAVDepthFrameProducer@video@libeYs3D@@AEAV?$tuple@PEAVDepthFrameProducer@video@libeYs3D@@U?$_Ph@$00@std@@@0@@Z
	??$get@$0A@PEAVFrameProducer@video@libeYs3D@@U?$_Ph@$00@std@@@std@@YAAEAPEAVFrameProducer@video@libeYs3D@@AEAV?$tuple@PEAVFrameProducer@video@libeYs3D@@U?$_Ph@$00@std@@@0@@Z
	??$get@$0A@PEAVFrameSetPipeline@devices@libeYs3D@@U?$_Ph@$00@std@@@std@@YAAEAPEAVFrameSetPipeline@devices@libeYs3D@@AEAV?$tuple@PEAVFrameSetPipeline@devices@libeYs3D@@U?$_Ph@$00@std@@@0@@Z
	??$get@$0A@PEAVPCFrameProducer@video@libeYs3D@@U?$_Ph@$00@std@@@std@@YAAEAPEAVPCFrameProducer@video@libeYs3D@@AEAV?$tuple@PEAVPCFrameProducer@video@libeYs3D@@U?$_Ph@$00@std@@@0@@Z
	??$get@$0A@PEAVPipeline@devices@libeYs3D@@U?$_Ph@$00@std@@@std@@YAAEAPEAVPipeline@devices@libeYs3D@@AEAV?$tuple@PEAVPipeline@devices@libeYs3D@@U?$_Ph@$00@std@@@0@@Z
	??$get@$0A@PEAVSensorDataProducer@sensors@libeYs3D@@U?$_Ph@$00@std@@@std@@YAAEAPEAVSensorDataProducer@sensors@libeYs3D@@AEAV?$tuple@PEAVSensorDataProducer@sensors@libeYs3D@@U?$_Ph@$00@std@@@0@@Z
	??$getline@DU?$char_traits@D@std@@V?$allocator@D@2@@std@@YAAEAV?$basic_istream@DU?$char_traits@D@std@@@0@$$QEAV10@AEAV?$basic_string@DU?$char_traits@D@std@@V?$allocator@D@2@@0@D@Z
	??$getline@DU?$char_traits@D@std@@V?$allocator@D@2@@std@@YAAEAV?$basic_istream@DU?$char_traits@D@std@@@0@AEAV10@AEAV?$basic_string@DU?$char_traits@D@std@@V?$allocator@D@2@@0@D@Z
	??$insert@PEAEX@?$vector@EV?$allocator@E@std@@@std@@QEAA?AV?$_Vector_iterator@V?$_Vector_val@U?$_Simple_types@E@std@@@std@@@1@V?$_Vector_const_iterator@V?$_Vector_val@U?$_Simple_types@E@std@@@std@@@1@PEAE1@Z
	??$insert@PEBU?$pair@$$CBW4IMUPacketSymbol@IMUData@@_K@std@@@?$_Tree@V?$_Tmap_traits@W4IMUPacketSymbol@IMUData@@_KU?$less@W4IMUPacketSymbol@IMUData@@@std@@V?$allocator@U?$pair@$$CBW4IMUPacketSymbol@IMUData@@_K@std@@@4@$0A@@std@@@std@@QEAAXPEBU?$pair@$$CBW4IMUPacketSymbol@IMUData@@_K@1@0@Z
	??$insert@U?$pair@HH@std@@X@?$map@HHU?$less@H@std@@V?$allocator@U?$pair@$$CBHH@std@@@2@@std@@QEAA?AU?$pair@V?$_Tree_iterator@V?$_Tree_val@U?$_Tree_simple_types@U?$pair@$$CBHH@std@@@std@@@std@@@std@@_N@1@$$QEAU?$pair@HH@1@@Z
	??$invoke@AEAP8DepthFrameProducer@video@libeYs3D@@EAAXPEAVFrame@23@@ZAEAPEAV123@PEAV423@@std@@YAXAEAP8DepthFrameProducer@video@libeYs3D@@EAAXPEAVFrame@23@@ZAEAPEAV123@$$QEAPEAV423@@Z
	??$invoke@AEAP8FrameProducer@video@libeYs3D@@EAA_NPEBUSensorDataSet@sensors@3@@ZAEAPEAV123@PEBU453@@std@@YA_NAEAP8FrameProducer@video@libeYs3D@@EAA_NPEBUSensorDataSet@sensors@3@@ZAEAPEAV123@$$QEAPEBU453@@Z
	??$invoke@AEAP8FrameProducer@video@libeYs3D@@EAA_NPEBVFrame@23@@ZAEAPEAV123@PEBV423@@std@@YA_NAEAP8FrameProducer@video@libeYs3D@@EAA_NPEBVFrame@23@@ZAEAPEAV123@$$QEAPEBV423@@Z
	??$invoke@AEAP8FrameSetPipeline@devices@libeYs3D@@EAA_NPEBVFrame@video@3@@ZAEAPEAV123@PEBV453@@std@@YA_NAEAP8FrameSetPipeline@devices@libeYs3D@@EAA_NPEBVFrame@video@3@@ZAEAPEAV123@$$QEAPEBV453@@Z
	??$invoke@AEAP8FrameSetPipeline@devices@libeYs3D@@EAA_NPEBVPCFrame@video@3@@ZAEAPEAV123@PEBV453@@std@@YA_NAEAP8FrameSetPipeline@devices@libeYs3D@@EAA_NPEBVPCFrame@video@3@@ZAEAPEAV123@$$QEAPEBV453@@Z
	??$invoke@AEAP8PCFrameProducer@video@libeYs3D@@EAA_NPEBVFrame@23@@ZAEAPEAV123@PEBV423@@std@@YA_NAEAP8PCFrameProducer@video@libeYs3D@@EAA_NPEBVFrame@23@@ZAEAPEAV123@$$QEAPEBV423@@Z
	??$invoke@AEAP8Pipeline@devices@libeYs3D@@EAA_NPEBUSensorData@sensors@3@@ZAEAPEAV123@PEBU453@@std@@YA_NAEAP8Pipeline@devices@libeYs3D@@EAA_NPEBUSensorData@sensors@3@@ZAEAPEAV123@$$QEAPEBU453@@Z
	??$invoke@AEAP8Pipeline@devices@libeYs3D@@EAA_NPEBVFrame@video@3@@ZAEAPEAV123@PEBV453@@std@@YA_NAEAP8Pipeline@devices@libeYs3D@@EAA_NPEBVFrame@video@3@@ZAEAPEAV123@$$QEAPEBV453@@Z
	??$invoke@AEAP8Pipeline@devices@libeYs3D@@EAA_NPEBVPCFrame@video@3@@ZAEAPEAV123@PEBV453@@std@@YA_NAEAP8Pipeline@devices@libeYs3D@@EAA_NPEBVPCFrame@video@3@@ZAEAPEAV123@$$QEAPEBV453@@Z
	??$invoke@AEAP8SensorDataProducer@sensors@libeYs3D@@EAA_NPEBUSensorDataSet@23@@ZAEAPEAV123@PEBU423@@std@@YA_NAEAP8SensorDataProducer@sensors@libeYs3D@@EAA_NPEBUSensorDataSet@23@@ZAEAPEAV123@$$QEAPEBU423@@Z
	??$invoke@AEAV<lambda_488c629a0a7c1ecc954ac8047e960599>@@$$V@std@@YA_JAEAV<lambda_488c629a0a7c1ecc954ac8047e960599>@@@Z
	??$invoke@AEAV<lambda_4cde73e63763cb313bd212247f8ddbb0>@@V?$Optional@VDACalculateWorkItem@video@libeYs3D@@@base@libeYs3D@@@std@@YA?AW4WorkerProcessingResult@base@libeYs3D@@AEAV<lambda_4cde73e63763cb313bd212247f8ddbb0>@@$$QEAV?$Optional@VDACalculateWorkItem@video@libeYs3D@@@23@@Z
	??$invoke@AEAV<lambda_530843cc44829e3530ea01af34e42038>@@V?$Optional@VCallbackWorkItem@sensors@libeYs3D@@@base@libeYs3D@@@std@@YA?AW4WorkerProcessingResult@base@libeYs3D@@AEAV<lambda_530843cc44829e3530ea01af34e42038>@@$$QEAV?$Optional@VCallbackWorkItem@sensors@libeYs3D@@@23@@Z
	??$invoke@AEAV<lambda_69d578ede27bd906c7e1bc689c004001>@@$$V@std@@YA_JAEAV<lambda_69d578ede27bd906c7e1bc689c004001>@@@Z
	??$invoke@AEAV<lambda_9f92d7825455e143dbf3293131d714f3>@@V?$Optional@VCallbackWorkItem@video@libeYs3D@@@base@libeYs3D@@@std@@YA?AW4WorkerProcessingResult@base@libeYs3D@@AEAV<lambda_9f92d7825455e143dbf3293131d714f3>@@$$QEAV?$Optional@VCallbackWorkItem@video@libeYs3D@@@23@@Z
	??$invoke@AEAV<lambda_fd68a9891d2d9d887c20652be0ece82a>@@$$V@std@@YA_JAEAV<lambda_fd68a9891d2d9d887c20652be0ece82a>@@@Z
	??$invoke@AEAV?$_Binder@U_Unforced@std@@P8DepthFrameProducer@video@libeYs3D@@EAAXPEAVFrame@45@@ZPEAV345@AEBU?$_Ph@$00@2@@std@@PEAVFrame@video@libeYs3D@@@std@@YAXAEAV?$_Binder@U_Unforced@std@@P8DepthFrameProducer@video@libeYs3D@@EAAXPEAVFrame@45@@ZPEAV345@AEBU?$_Ph@$00@2@@0@$$QEAPEAVFrame@video@libeYs3D@@@Z
	??$invoke@AEAV?$_Binder@U_Unforced@std@@P8FrameProducer@video@libeYs3D@@EAA_NPEBUSensorDataSet@sensors@5@@ZPEAV345@AEBU?$_Ph@$00@2@@std@@PEBUSensorDataSet@sensors@libeYs3D@@@std@@YA_NAEAV?$_Binder@U_Unforced@std@@P8FrameProducer@video@libeYs3D@@EAA_NPEBUSensorDataSet@sensors@5@@ZPEAV345@AEBU?$_Ph@$00@2@@0@$$QEAPEBUSensorDataSet@sensors@libeYs3D@@@Z
	??$invoke@AEAV?$_Binder@U_Unforced@std@@P8FrameProducer@video@libeYs3D@@EAA_NPEBVFrame@45@@ZPEAV345@AEBU?$_Ph@$00@2@@std@@PEBVFrame@video@libeYs3D@@@std@@YA_NAEAV?$_Binder@U_Unforced@std@@P8FrameProducer@video@libeYs3D@@EAA_NPEBVFrame@45@@ZPEAV345@AEBU?$_Ph@$00@2@@0@$$QEAPEBVFrame@video@libeYs3D@@@Z
	??$invoke@AEAV?$_Binder@U_Unforced@std@@P8FrameSetPipeline@devices@libeYs3D@@EAA_NPEBVFrame@video@5@@ZPEAV345@AEBU?$_Ph@$00@2@@std@@PEBVFrame@video@libeYs3D@@@std@@YA_NAEAV?$_Binder@U_Unforced@std@@P8FrameSetPipeline@devices@libeYs3D@@EAA_NPEBVFrame@video@5@@ZPEAV345@AEBU?$_Ph@$00@2@@0@$$QEAPEBVFrame@video@libeYs3D@@@Z
	??$invoke@AEAV?$_Binder@U_Unforced@std@@P8FrameSetPipeline@devices@libeYs3D@@EAA_NPEBVPCFrame@video@5@@ZPEAV345@AEBU?$_Ph@$00@2@@std@@PEBVPCFrame@video@libeYs3D@@@std@@YA_NAEAV?$_Binder@U_Unforced@std@@P8FrameSetPipeline@devices@libeYs3D@@EAA_NPEBVPCFrame@video@5@@ZPEAV345@AEBU?$_Ph@$00@2@@0@$$QEAPEBVPCFrame@video@libeYs3D@@@Z
	??$invoke@AEAV?$_Binder@U_Unforced@std@@P8PCFrameProducer@video@libeYs3D@@EAA_NPEBVFrame@45@@ZPEAV345@AEBU?$_Ph@$00@2@@std@@PEBVFrame@video@libeYs3D@@@std@@YA_NAEAV?$_Binder@U_Unforced@std@@P8PCFrameProducer@video@libeYs3D@@EAA_NPEBVFrame@45@@ZPEAV345@AEBU?$_Ph@$00@2@@0@$$QEAPEBVFrame@video@libeYs3D@@@Z
	??$invoke@AEAV?$_Binder@U_Unforced@std@@P8Pipeline@devices@libeYs3D@@EAA_NPEBUSensorData@sensors@5@@ZPEAV345@AEBU?$_Ph@$00@2@@std@@PEBUSensorData@sensors@libeYs3D@@@std@@YA_NAEAV?$_Binder@U_Unforced@std@@P8Pipeline@devices@libeYs3D@@EAA_NPEBUSensorData@sensors@5@@ZPEAV345@AEBU?$_Ph@$00@2@@0@$$QEAPEBUSensorData@sensors@libeYs3D@@@Z
	??$invoke@AEAV?$_Binder@U_Unforced@std@@P8Pipeline@devices@libeYs3D@@EAA_NPEBVFrame@video@5@@ZPEAV345@AEBU?$_Ph@$00@2@@std@@PEBVFrame@video@libeYs3D@@@std@@YA_NAEAV?$_Binder@U_Unforced@std@@P8Pipeline@devices@libeYs3D@@EAA_NPEBVFrame@video@5@@ZPEAV345@AEBU?$_Ph@$00@2@@0@$$QEAPEBVFrame@video@libeYs3D@@@Z
	??$invoke@AEAV?$_Binder@U_Unforced@std@@P8Pipeline@devices@libeYs3D@@EAA_NPEBVPCFrame@video@5@@ZPEAV345@AEBU?$_Ph@$00@2@@std@@PEBVPCFrame@video@libeYs3D@@@std@@YA_NAEAV?$_Binder@U_Unforced@std@@P8Pipeline@devices@libeYs3D@@EAA_NPEBVPCFrame@video@5@@ZPEAV345@AEBU?$_Ph@$00@2@@0@$$QEAPEBVPCFrame@video@libeYs3D@@@Z
	??$invoke@AEAV?$_Binder@U_Unforced@std@@P8SensorDataProducer@sensors@libeYs3D@@EAA_NPEBUSensorDataSet@45@@ZPEAV345@AEBU?$_Ph@$00@2@@std@@PEBUSensorDataSet@sensors@libeYs3D@@@std@@YA_NAEAV?$_Binder@U_Unforced@std@@P8SensorDataProducer@sensors@libeYs3D@@EAA_NPEBUSensorDataSet@45@@ZPEAV345@AEBU?$_Ph@$00@2@@0@$$QEAPEBUSensorDataSet@sensors@libeYs3D@@@Z
	??$iter_swap@PEAMPEAM@std@@YAXPEAM0@Z
	??$max@G@std@@YAAEBGAEBG0@Z
	??$max@_J@std@@YAAEB_JAEB_J0@Z
	??$min@G@std@@YAAEBGAEBG0@Z
	??$move@AEAD@std@@YA$$QEADAEAD@Z
	??$move@AEAH@std@@YA$$QEAHAEAH@Z
	??$move@AEAM@std@@YA$$QEAMAEAM@Z
	??$move@AEAPEAUCommand@?$WorkerThread@V?$Optional@VCallbackWorkItem@sensors@libeYs3D@@@base@libeYs3D@@@base@libeYs3D@@@std@@YA$$QEAPEAUCommand@?$WorkerThread@V?$Optional@VCallbackWorkItem@sensors@libeYs3D@@@base@libeYs3D@@@base@libeYs3D@@AEAPEAU1234@@Z
	??$move@AEAPEAUCommand@?$WorkerThread@V?$Optional@VCallbackWorkItem@video@libeYs3D@@@base@libeYs3D@@@base@libeYs3D@@@std@@YA$$QEAPEAUCommand@?$WorkerThread@V?$Optional@VCallbackWorkItem@video@libeYs3D@@@base@libeYs3D@@@base@libeYs3D@@AEAPEAU1234@@Z
	??$move@AEAPEAUCommand@?$WorkerThread@V?$Optional@VDACalculateWorkItem@video@libeYs3D@@@base@libeYs3D@@@base@libeYs3D@@@std@@YA$$QEAPEAUCommand@?$WorkerThread@V?$Optional@VDACalculateWorkItem@video@libeYs3D@@@base@libeYs3D@@@base@libeYs3D@@AEAPEAU1234@@Z
	??$move@AEAPEAVCameraDevice@devices@libeYs3D@@@std@@YA$$QEAPEAVCameraDevice@devices@libeYs3D@@AEAPEAV123@@Z
	??$move@AEAPEAVEYS3DSystem@libeYs3D@@@std@@YA$$QEAPEAVEYS3DSystem@libeYs3D@@AEAPEAV12@@Z
	??$move@AEAPEAVFrameSetPipeline@devices@libeYs3D@@@std@@YA$$QEAPEAVFrameSetPipeline@devices@libeYs3D@@AEAPEAV123@@Z
	??$move@AEAPEAVPipeline@devices@libeYs3D@@@std@@YA$$QEAPEAVPipeline@devices@libeYs3D@@AEAPEAV123@@Z
	??$move@AEAPEAV_Ref_count_base@std@@@std@@YA$$QEAPEAV_Ref_count_base@0@AEAPEAV10@@Z
	??$move@AEAUCommand@?$WorkerThread@V?$Optional@VCallbackWorkItem@sensors@libeYs3D@@@base@libeYs3D@@@base@libeYs3D@@@std@@YA$$QEAUCommand@?$WorkerThread@V?$Optional@VCallbackWorkItem@sensors@libeYs3D@@@base@libeYs3D@@@base@libeYs3D@@AEAU1234@@Z
	??$move@AEAUCommand@?$WorkerThread@V?$Optional@VCallbackWorkItem@video@libeYs3D@@@base@libeYs3D@@@base@libeYs3D@@@std@@YA$$QEAUCommand@?$WorkerThread@V?$Optional@VCallbackWorkItem@video@libeYs3D@@@base@libeYs3D@@@base@libeYs3D@@AEAU1234@@Z
	??$move@AEAUCommand@?$WorkerThread@V?$Optional@VDACalculateWorkItem@video@libeYs3D@@@base@libeYs3D@@@base@libeYs3D@@@std@@YA$$QEAUCommand@?$WorkerThread@V?$Optional@VDACalculateWorkItem@video@libeYs3D@@@base@libeYs3D@@@base@libeYs3D@@AEAU1234@@Z
	??$move@AEAUMODE_CONFIG@ModeConfig@@@std@@YA$$QEAUMODE_CONFIG@ModeConfig@@AEAU12@@Z
	??$move@AEAUSensorData@sensors@libeYs3D@@@std@@YA$$QEAUSensorData@sensors@libeYs3D@@AEAU123@@Z
	??$move@AEAUSensorDataSet@sensors@libeYs3D@@@std@@YA$$QEAUSensorDataSet@sensors@libeYs3D@@AEAU123@@Z
	??$move@AEAV<lambda_488c629a0a7c1ecc954ac8047e960599>@@@std@@YA$$QEAV<lambda_488c629a0a7c1ecc954ac8047e960599>@@AEAV1@@Z
	??$move@AEAV<lambda_4cde73e63763cb313bd212247f8ddbb0>@@@std@@YA$$QEAV<lambda_4cde73e63763cb313bd212247f8ddbb0>@@AEAV1@@Z
	??$move@AEAV<lambda_530843cc44829e3530ea01af34e42038>@@@std@@YA$$QEAV<lambda_530843cc44829e3530ea01af34e42038>@@AEAV1@@Z
	??$move@AEAV<lambda_644b0c6f6f426dfd6f91480300661176>@@@std@@YA$$QEAV<lambda_644b0c6f6f426dfd6f91480300661176>@@AEAV1@@Z
	??$move@AEAV<lambda_69d578ede27bd906c7e1bc689c004001>@@@std@@YA$$QEAV<lambda_69d578ede27bd906c7e1bc689c004001>@@AEAV1@@Z
	??$move@AEAV<lambda_9f92d7825455e143dbf3293131d714f3>@@@std@@YA$$QEAV<lambda_9f92d7825455e143dbf3293131d714f3>@@AEAV1@@Z
	??$move@AEAV<lambda_c26ef134520f1d4904a3b959b66e0c10>@@@std@@YA$$QEAV<lambda_c26ef134520f1d4904a3b959b66e0c10>@@AEAV1@@Z
	??$move@AEAV<lambda_dbbb479bfc9ffc0a9f130fbf77aabe71>@@@std@@YA$$QEAV<lambda_dbbb479bfc9ffc0a9f130fbf77aabe71>@@AEAV1@@Z
	??$move@AEAV<lambda_fd68a9891d2d9d887c20652be0ece82a>@@@std@@YA$$QEAV<lambda_fd68a9891d2d9d887c20652be0ece82a>@@AEAV1@@Z
	??$move@AEAV?$Optional@VCallbackWorkItem@sensors@libeYs3D@@@base@libeYs3D@@@std@@YA$$QEAV?$Optional@VCallbackWorkItem@sensors@libeYs3D@@@base@libeYs3D@@AEAV123@@Z
	??$move@AEAV?$Optional@VCallbackWorkItem@video@libeYs3D@@@base@libeYs3D@@@std@@YA$$QEAV?$Optional@VCallbackWorkItem@video@libeYs3D@@@base@libeYs3D@@AEAV123@@Z
	??$move@AEAV?$Optional@VDACalculateWorkItem@video@libeYs3D@@@base@libeYs3D@@@std@@YA$$QEAV?$Optional@VDACalculateWorkItem@video@libeYs3D@@@base@libeYs3D@@AEAV123@@Z
	??$move@AEAV?$_Binder@U_Unforced@std@@P8DepthFrameProducer@video@libeYs3D@@EAAXPEAVFrame@45@@ZPEAV345@AEBU?$_Ph@$00@2@@std@@@std@@YA$$QEAV?$_Binder@U_Unforced@std@@P8DepthFrameProducer@video@libeYs3D@@EAAXPEAVFrame@45@@ZPEAV345@AEBU?$_Ph@$00@2@@0@AEAV10@@Z
	??$move@AEAV?$_Binder@U_Unforced@std@@P8FrameProducer@video@libeYs3D@@EAA_NPEBUSensorDataSet@sensors@5@@ZPEAV345@AEBU?$_Ph@$00@2@@std@@@std@@YA$$QEAV?$_Binder@U_Unforced@std@@P8FrameProducer@video@libeYs3D@@EAA_NPEBUSensorDataSet@sensors@5@@ZPEAV345@AEBU?$_Ph@$00@2@@0@AEAV10@@Z
	??$move@AEAV?$_Binder@U_Unforced@std@@P8FrameProducer@video@libeYs3D@@EAA_NPEBVFrame@45@@ZPEAV345@AEBU?$_Ph@$00@2@@std@@@std@@YA$$QEAV?$_Binder@U_Unforced@std@@P8FrameProducer@video@libeYs3D@@EAA_NPEBVFrame@45@@ZPEAV345@AEBU?$_Ph@$00@2@@0@AEAV10@@Z
	??$move@AEAV?$_Binder@U_Unforced@std@@P8FrameSetPipeline@devices@libeYs3D@@EAA_NPEBVFrame@video@5@@ZPEAV345@AEBU?$_Ph@$00@2@@std@@@std@@YA$$QEAV?$_Binder@U_Unforced@std@@P8FrameSetPipeline@devices@libeYs3D@@EAA_NPEBVFrame@video@5@@ZPEAV345@AEBU?$_Ph@$00@2@@0@AEAV10@@Z
	??$move@AEAV?$_Binder@U_Unforced@std@@P8FrameSetPipeline@devices@libeYs3D@@EAA_NPEBVPCFrame@video@5@@ZPEAV345@AEBU?$_Ph@$00@2@@std@@@std@@YA$$QEAV?$_Binder@U_Unforced@std@@P8FrameSetPipeline@devices@libeYs3D@@EAA_NPEBVPCFrame@video@5@@ZPEAV345@AEBU?$_Ph@$00@2@@0@AEAV10@@Z
	??$move@AEAV?$_Binder@U_Unforced@std@@P8PCFrameProducer@video@libeYs3D@@EAA_NPEBVFrame@45@@ZPEAV345@AEBU?$_Ph@$00@2@@std@@@std@@YA$$QEAV?$_Binder@U_Unforced@std@@P8PCFrameProducer@video@libeYs3D@@EAA_NPEBVFrame@45@@ZPEAV345@AEBU?$_Ph@$00@2@@0@AEAV10@@Z
	??$move@AEAV?$_Binder@U_Unforced@std@@P8Pipeline@devices@libeYs3D@@EAA_NPEBUSensorData@sensors@5@@ZPEAV345@AEBU?$_Ph@$00@2@@std@@@std@@YA$$QEAV?$_Binder@U_Unforced@std@@P8Pipeline@devices@libeYs3D@@EAA_NPEBUSensorData@sensors@5@@ZPEAV345@AEBU?$_Ph@$00@2@@0@AEAV10@@Z
	??$move@AEAV?$_Binder@U_Unforced@std@@P8Pipeline@devices@libeYs3D@@EAA_NPEBVFrame@video@5@@ZPEAV345@AEBU?$_Ph@$00@2@@std@@@std@@YA$$QEAV?$_Binder@U_Unforced@std@@P8Pipeline@devices@libeYs3D@@EAA_NPEBVFrame@video@5@@ZPEAV345@AEBU?$_Ph@$00@2@@0@AEAV10@@Z
	??$move@AEAV?$_Binder@U_Unforced@std@@P8Pipeline@devices@libeYs3D@@EAA_NPEBVPCFrame@video@5@@ZPEAV345@AEBU?$_Ph@$00@2@@std@@@std@@YA$$QEAV?$_Binder@U_Unforced@std@@P8Pipeline@devices@libeYs3D@@EAA_NPEBVPCFrame@video@5@@ZPEAV345@AEBU?$_Ph@$00@2@@0@AEAV10@@Z
	??$move@AEAV?$_Binder@U_Unforced@std@@P8SensorDataProducer@sensors@libeYs3D@@EAA_NPEBUSensorDataSet@45@@ZPEAV345@AEBU?$_Ph@$00@2@@std@@@std@@YA$$QEAV?$_Binder@U_Unforced@std@@P8SensorDataProducer@sensors@libeYs3D@@EAA_NPEBUSensorDataSet@45@@ZPEAV345@AEBU?$_Ph@$00@2@@0@AEAV10@@Z
	??$move@AEAV?$_Func_class@XPEAVFrame@video@libeYs3D@@@std@@@std@@YA$$QEAV?$_Func_class@XPEAVFrame@video@libeYs3D@@@0@AEAV10@@Z
	??$move@AEAV?$_Func_class@_NPEBUSensorData@sensors@libeYs3D@@@std@@@std@@YA$$QEAV?$_Func_class@_NPEBUSensorData@sensors@libeYs3D@@@0@AEAV10@@Z
	??$move@AEAV?$_Func_class@_NPEBUSensorDataSet@sensors@libeYs3D@@@std@@@std@@YA$$QEAV?$_Func_class@_NPEBUSensorDataSet@sensors@libeYs3D@@@0@AEAV10@@Z
	??$move@AEAV?$_Func_class@_NPEBVFrame@video@libeYs3D@@@std@@@std@@YA$$QEAV?$_Func_class@_NPEBVFrame@video@libeYs3D@@@0@AEAV10@@Z
	??$move@AEAV?$_Func_class@_NPEBVPCFrame@video@libeYs3D@@@std@@@std@@YA$$QEAV?$_Func_class@_NPEBVPCFrame@video@libeYs3D@@@0@AEAV10@@Z
	??$move@AEAV?$allocator@D@std@@@std@@YA$$QEAV?$allocator@D@0@AEAV10@@Z
	??$move@AEAV?$allocator@E@std@@@std@@YA$$QEAV?$allocator@E@0@AEAV10@@Z
	??$move@AEAV?$allocator@G@std@@@std@@YA$$QEAV?$allocator@G@0@AEAV10@@Z
	??$move@AEAV?$allocator@H@std@@@std@@YA$$QEAV?$allocator@H@0@AEAV10@@Z
	??$move@AEAV?$allocator@M@std@@@std@@YA$$QEAV?$allocator@M@0@AEAV10@@Z
	??$move@AEAV?$allocator@USensorData@sensors@libeYs3D@@@std@@@std@@YA$$QEAV?$allocator@USensorData@sensors@libeYs3D@@@0@AEAV10@@Z
	??$move@AEAV?$allocator@V?$Optional@V?$WorkerThread@V?$Optional@VCallbackWorkItem@sensors@libeYs3D@@@base@libeYs3D@@@base@libeYs3D@@@base@libeYs3D@@@std@@@std@@YA$$QEAV?$allocator@V?$Optional@V?$WorkerThread@V?$Optional@VCallbackWorkItem@sensors@libeYs3D@@@base@libeYs3D@@@base@libeYs3D@@@base@libeYs3D@@@0@AEAV10@@Z
	??$move@AEAV?$allocator@V?$Optional@V?$WorkerThread@V?$Optional@VCallbackWorkItem@video@libeYs3D@@@base@libeYs3D@@@base@libeYs3D@@@base@libeYs3D@@@std@@@std@@YA$$QEAV?$allocator@V?$Optional@V?$WorkerThread@V?$Optional@VCallbackWorkItem@video@libeYs3D@@@base@libeYs3D@@@base@libeYs3D@@@base@libeYs3D@@@0@AEAV10@@Z
	??$move@AEAV?$allocator@V?$Optional@V?$WorkerThread@V?$Optional@VDACalculateWorkItem@video@libeYs3D@@@base@libeYs3D@@@base@libeYs3D@@@base@libeYs3D@@@std@@@std@@YA$$QEAV?$allocator@V?$Optional@V?$WorkerThread@V?$Optional@VDACalculateWorkItem@video@libeYs3D@@@base@libeYs3D@@@base@libeYs3D@@@base@libeYs3D@@@0@AEAV10@@Z
	??$move@AEAV?$allocator@V?$basic_string@DU?$char_traits@D@std@@V?$allocator@D@2@@std@@@std@@@std@@YA$$QEAV?$allocator@V?$basic_string@DU?$char_traits@D@std@@V?$allocator@D@2@@std@@@0@AEAV10@@Z
	??$move@AEAV?$basic_istream@DU?$char_traits@D@std@@@std@@@std@@YA$$QEAV?$basic_istream@DU?$char_traits@D@std@@@0@AEAV10@@Z
	??$move@AEAV?$basic_string@DU?$char_traits@D@std@@V?$allocator@D@2@@std@@@std@@YA$$QEAV?$basic_string@DU?$char_traits@D@std@@V?$allocator@D@2@@0@AEAV10@@Z
	??$move@AEAV?$function@$$A6A?AW4WorkerProcessingResult@base@libeYs3D@@$$QEAV?$Optional@VCallbackWorkItem@sensors@libeYs3D@@@23@@Z@std@@@std@@YA$$QEAV?$function@$$A6A?AW4WorkerProcessingResult@base@libeYs3D@@$$QEAV?$Optional@VCallbackWorkItem@sensors@libeYs3D@@@23@@Z@0@AEAV10@@Z
	??$move@AEAV?$function@$$A6A?AW4WorkerProcessingResult@base@libeYs3D@@$$QEAV?$Optional@VCallbackWorkItem@video@libeYs3D@@@23@@Z@std@@@std@@YA$$QEAV?$function@$$A6A?AW4WorkerProcessingResult@base@libeYs3D@@$$QEAV?$Optional@VCallbackWorkItem@video@libeYs3D@@@23@@Z@0@AEAV10@@Z
	??$move@AEAV?$function@$$A6A?AW4WorkerProcessingResult@base@libeYs3D@@$$QEAV?$Optional@VDACalculateWorkItem@video@libeYs3D@@@23@@Z@std@@@std@@YA$$QEAV?$function@$$A6A?AW4WorkerProcessingResult@base@libeYs3D@@$$QEAV?$Optional@VDACalculateWorkItem@video@libeYs3D@@@23@@Z@0@AEAV10@@Z
	??$move@AEAV?$function@$$A6AX$$QEAVCallbackWorkItem@sensors@libeYs3D@@@Z@std@@@std@@YA$$QEAV?$function@$$A6AX$$QEAVCallbackWorkItem@sensors@libeYs3D@@@Z@0@AEAV10@@Z
	??$move@AEAV?$function@$$A6AX$$QEAVCallbackWorkItem@video@libeYs3D@@@Z@std@@@std@@YA$$QEAV?$function@$$A6AX$$QEAVCallbackWorkItem@video@libeYs3D@@@Z@0@AEAV10@@Z
	??$move@AEAV?$function@$$A6AX$$QEAVDACalculateWorkItem@video@libeYs3D@@@Z@std@@@std@@YA$$QEAV?$function@$$A6AX$$QEAVDACalculateWorkItem@video@libeYs3D@@@Z@0@AEAV10@@Z
	??$move@AEAV?$function@$$A6A_JXZ@std@@@std@@YA$$QEAV?$function@$$A6A_JXZ@0@AEAV10@@Z
	??$move@AEAV?$function@$$A6A_NPEBUSensorData@sensors@libeYs3D@@@Z@std@@@std@@YA$$QEAV?$function@$$A6A_NPEBUSensorData@sensors@libeYs3D@@@Z@0@AEAV10@@Z
	??$move@AEAV?$function@$$A6A_NPEBUSensorDataSet@sensors@libeYs3D@@@Z@std@@@std@@YA$$QEAV?$function@$$A6A_NPEBUSensorDataSet@sensors@libeYs3D@@@Z@0@AEAV10@@Z
	??$move@AEAV?$function@$$A6A_NPEBVFrame@video@libeYs3D@@@Z@std@@@std@@YA$$QEAV?$function@$$A6A_NPEBVFrame@video@libeYs3D@@@Z@0@AEAV10@@Z
	??$move@AEAV?$function@$$A6A_NPEBVPCFrame@video@libeYs3D@@@Z@std@@@std@@YA$$QEAV?$function@$$A6A_NPEBVPCFrame@video@libeYs3D@@@Z@0@AEAV10@@Z
	??$move@AEAV?$shared_ptr@VFrameSetPipeline@devices@libeYs3D@@@std@@@std@@YA$$QEAV?$shared_ptr@VFrameSetPipeline@devices@libeYs3D@@@0@AEAV10@@Z
	??$move@AEAV?$shared_ptr@VPipeline@devices@libeYs3D@@@std@@@std@@YA$$QEAV?$shared_ptr@VPipeline@devices@libeYs3D@@@0@AEAV10@@Z
	??$move@AEAV?$tuple@$$QEAPEAVFrame@video@libeYs3D@@@std@@@std@@YA$$QEAV?$tuple@$$QEAPEAVFrame@video@libeYs3D@@@0@AEAV10@@Z
	??$move@AEAV?$tuple@$$QEAPEBUSensorData@sensors@libeYs3D@@@std@@@std@@YA$$QEAV?$tuple@$$QEAPEBUSensorData@sensors@libeYs3D@@@0@AEAV10@@Z
	??$move@AEAV?$tuple@$$QEAPEBUSensorDataSet@sensors@libeYs3D@@@std@@@std@@YA$$QEAV?$tuple@$$QEAPEBUSensorDataSet@sensors@libeYs3D@@@0@AEAV10@@Z
	??$move@AEAV?$tuple@$$QEAPEBVFrame@video@libeYs3D@@@std@@@std@@YA$$QEAV?$tuple@$$QEAPEBVFrame@video@libeYs3D@@@0@AEAV10@@Z
	??$move@AEAV?$tuple@$$QEAPEBVPCFrame@video@libeYs3D@@@std@@@std@@YA$$QEAV?$tuple@$$QEAPEBVPCFrame@video@libeYs3D@@@0@AEAV10@@Z
	??$move@AEAV?$tuple@$$QEAW4IMUPacketSymbol@IMUData@@@std@@@std@@YA$$QEAV?$tuple@$$QEAW4IMUPacketSymbol@IMUData@@@0@AEAV10@@Z
	??$move@AEAV?$tuple@AEBH@std@@@std@@YA$$QEAV?$tuple@AEBH@0@AEAV10@@Z
	??$move@AEAV?$tuple@AEBU?$pair@GG@std@@@std@@@std@@YA$$QEAV?$tuple@AEBU?$pair@GG@std@@@0@AEAV10@@Z
	??$move@AEAV?$tuple@AEBUDeviceSellectInfo@libeYs3D@@@std@@@std@@YA$$QEAV?$tuple@AEBUDeviceSellectInfo@libeYs3D@@@0@AEAV10@@Z
	??$move@AEAV?$unique_ptr@VFrameProducer@video@libeYs3D@@U?$default_delete@VFrameProducer@video@libeYs3D@@@std@@@std@@@std@@YA$$QEAV?$unique_ptr@VFrameProducer@video@libeYs3D@@U?$default_delete@VFrameProducer@video@libeYs3D@@@std@@@0@AEAV10@@Z
	??$move@AEAV?$unique_ptr@VPCProducer@video@libeYs3D@@U?$default_delete@VPCProducer@video@libeYs3D@@@std@@@std@@@std@@YA$$QEAV?$unique_ptr@VPCProducer@video@libeYs3D@@U?$default_delete@VPCProducer@video@libeYs3D@@@std@@@0@AEAV10@@Z
	??$move@AEAV?$vector@EV?$allocator@E@std@@@std@@@std@@YA$$QEAV?$vector@EV?$allocator@E@std@@@0@AEAV10@@Z
	??$move@AEAV?$vector@GV?$allocator@G@std@@@std@@@std@@YA$$QEAV?$vector@GV?$allocator@G@std@@@0@AEAV10@@Z
	??$move@AEAV?$vector@HV?$allocator@H@std@@@std@@@std@@YA$$QEAV?$vector@HV?$allocator@H@std@@@0@AEAV10@@Z
	??$move@AEAV?$vector@MV?$allocator@M@std@@@std@@@std@@YA$$QEAV?$vector@MV?$allocator@M@std@@@0@AEAV10@@Z
	??$move@AEAV?$vector@USensorData@sensors@libeYs3D@@V?$allocator@USensorData@sensors@libeYs3D@@@std@@@std@@@std@@YA$$QEAV?$vector@USensorData@sensors@libeYs3D@@V?$allocator@USensorData@sensors@libeYs3D@@@std@@@0@AEAV10@@Z
	??$move@AEAV?$vector@V?$Optional@V?$WorkerThread@V?$Optional@VCallbackWorkItem@sensors@libeYs3D@@@base@libeYs3D@@@base@libeYs3D@@@base@libeYs3D@@V?$allocator@V?$Optional@V?$WorkerThread@V?$Optional@VCallbackWorkItem@sensors@libeYs3D@@@base@libeYs3D@@@base@libeYs3D@@@base@libeYs3D@@@std@@@std@@@std@@YA$$QEAV?$vector@V?$Optional@V?$WorkerThread@V?$Optional@VCallbackWorkItem@sensors@libeYs3D@@@base@libeYs3D@@@base@libeYs3D@@@base@libeYs3D@@V?$allocator@V?$Optional@V?$WorkerThread@V?$Optional@VCallbackWorkItem@sensors@libeYs3D@@@base@libeYs3D@@@base@libeYs3D@@@base@libeYs3D@@@std@@@0@AEAV10@@Z
	??$move@AEAV?$vector@V?$Optional@V?$WorkerThread@V?$Optional@VCallbackWorkItem@video@libeYs3D@@@base@libeYs3D@@@base@libeYs3D@@@base@libeYs3D@@V?$allocator@V?$Optional@V?$WorkerThread@V?$Optional@VCallbackWorkItem@video@libeYs3D@@@base@libeYs3D@@@base@libeYs3D@@@base@libeYs3D@@@std@@@std@@@std@@YA$$QEAV?$vector@V?$Optional@V?$WorkerThread@V?$Optional@VCallbackWorkItem@video@libeYs3D@@@base@libeYs3D@@@base@libeYs3D@@@base@libeYs3D@@V?$allocator@V?$Optional@V?$WorkerThread@V?$Optional@VCallbackWorkItem@video@libeYs3D@@@base@libeYs3D@@@base@libeYs3D@@@base@libeYs3D@@@std@@@0@AEAV10@@Z
	??$move@AEAV?$vector@V?$Optional@V?$WorkerThread@V?$Optional@VDACalculateWorkItem@video@libeYs3D@@@base@libeYs3D@@@base@libeYs3D@@@base@libeYs3D@@V?$allocator@V?$Optional@V?$WorkerThread@V?$Optional@VDACalculateWorkItem@video@libeYs3D@@@base@libeYs3D@@@base@libeYs3D@@@base@libeYs3D@@@std@@@std@@@std@@YA$$QEAV?$vector@V?$Optional@V?$WorkerThread@V?$Optional@VDACalculateWorkItem@video@libeYs3D@@@base@libeYs3D@@@base@libeYs3D@@@base@libeYs3D@@V?$allocator@V?$Optional@V?$WorkerThread@V?$Optional@VDACalculateWorkItem@video@libeYs3D@@@base@libeYs3D@@@base@libeYs3D@@@base@libeYs3D@@@std@@@0@AEAV10@@Z
	??$move@AEAV?$vector@V?$basic_string@DU?$char_traits@D@std@@V?$allocator@D@2@@std@@V?$allocator@V?$basic_string@DU?$char_traits@D@std@@V?$allocator@D@2@@std@@@2@@std@@@std@@YA$$QEAV?$vector@V?$basic_string@DU?$char_traits@D@std@@V?$allocator@D@2@@std@@V?$allocator@V?$basic_string@DU?$char_traits@D@std@@V?$allocator@D@2@@std@@@2@@0@AEAV10@@Z
	??$move@AEAVCallbackWorkItem@sensors@libeYs3D@@@std@@YA$$QEAVCallbackWorkItem@sensors@libeYs3D@@AEAV123@@Z
	??$move@AEAVCallbackWorkItem@video@libeYs3D@@@std@@YA$$QEAVCallbackWorkItem@video@libeYs3D@@AEAV123@@Z
	??$move@AEAVDACalculateWorkItem@video@libeYs3D@@@std@@YA$$QEAVDACalculateWorkItem@video@libeYs3D@@AEAV123@@Z
	??$move@AEAVFrame@video@libeYs3D@@@std@@YA$$QEAVFrame@video@libeYs3D@@AEAV123@@Z
	??$move@AEAVPCFrame@video@libeYs3D@@@std@@YA$$QEAVPCFrame@video@libeYs3D@@AEAV123@@Z
	??$move@AEAW4IMUPacketSymbol@IMUData@@@std@@YA$$QEAW4IMUPacketSymbol@IMUData@@AEAW412@@Z
	??$next@PEAE@std@@YAPEAEPEAE_J@Z
	??$next@PEAM@std@@YAPEAMPEAM_J@Z
	??$next@PEAUCloudPoint@@@std@@YAPEAUCloudPoint@@PEAU1@_J@Z
	??$pow@HHX@@YANHH@Z
	??$reset@VCameraDevice@devices@libeYs3D@@@?$shared_ptr@VCameraDevice@devices@libeYs3D@@@std@@QEAAXPEAVCameraDevice@devices@libeYs3D@@@Z
	??$reset@VEYS3DSystem@libeYs3D@@@?$shared_ptr@VEYS3DSystem@libeYs3D@@@std@@QEAAXPEAVEYS3DSystem@libeYs3D@@@Z
	??$reset@VFrameSetPipeline@devices@libeYs3D@@@?$shared_ptr@VFrameSetPipeline@devices@libeYs3D@@@std@@QEAAXPEAVFrameSetPipeline@devices@libeYs3D@@@Z
	??$reset@VPipeline@devices@libeYs3D@@@?$shared_ptr@VPipeline@devices@libeYs3D@@@std@@QEAAXPEAVPipeline@devices@libeYs3D@@@Z
	??$sort@V?$_Vector_iterator@V?$_Vector_val@U?$_Simple_types@M@std@@@std@@@std@@@std@@YAXV?$_Vector_iterator@V?$_Vector_val@U?$_Simple_types@M@std@@@std@@@0@0@Z
	??$sort@V?$_Vector_iterator@V?$_Vector_val@U?$_Simple_types@M@std@@@std@@@std@@U?$less@X@2@@std@@YAXV?$_Vector_iterator@V?$_Vector_val@U?$_Simple_types@M@std@@@std@@@0@0U?$less@X@0@@Z
	??$swap@DX@std@@YAXAEAD0@Z
	??$swap@MX@std@@YAXAEAM0@Z
	??$swap@PEAUCommand@?$WorkerThread@V?$Optional@VCallbackWorkItem@sensors@libeYs3D@@@base@libeYs3D@@@base@libeYs3D@@X@std@@YAXAEAPEAUCommand@?$WorkerThread@V?$Optional@VCallbackWorkItem@sensors@libeYs3D@@@base@libeYs3D@@@base@libeYs3D@@0@Z
	??$swap@PEAUCommand@?$WorkerThread@V?$Optional@VCallbackWorkItem@video@libeYs3D@@@base@libeYs3D@@@base@libeYs3D@@X@std@@YAXAEAPEAUCommand@?$WorkerThread@V?$Optional@VCallbackWorkItem@video@libeYs3D@@@base@libeYs3D@@@base@libeYs3D@@0@Z
	??$swap@PEAUCommand@?$WorkerThread@V?$Optional@VDACalculateWorkItem@video@libeYs3D@@@base@libeYs3D@@@base@libeYs3D@@X@std@@YAXAEAPEAUCommand@?$WorkerThread@V?$Optional@VDACalculateWorkItem@video@libeYs3D@@@base@libeYs3D@@@base@libeYs3D@@0@Z
	??$swap@PEAVCameraDevice@devices@libeYs3D@@X@std@@YAXAEAPEAVCameraDevice@devices@libeYs3D@@0@Z
	??$swap@PEAVEYS3DSystem@libeYs3D@@X@std@@YAXAEAPEAVEYS3DSystem@libeYs3D@@0@Z
	??$swap@PEAVFrameSetPipeline@devices@libeYs3D@@X@std@@YAXAEAPEAVFrameSetPipeline@devices@libeYs3D@@0@Z
	??$swap@PEAVPipeline@devices@libeYs3D@@X@std@@YAXAEAPEAVPipeline@devices@libeYs3D@@0@Z
	??$swap@PEAV_Ref_count_base@std@@X@std@@YAXAEAPEAV_Ref_count_base@0@0@Z
	??$try_emplace@$$V@?$map@HUPID_TABLE@ModeConfig@@U?$less@H@std@@V?$allocator@U?$pair@$$CBHUPID_TABLE@ModeConfig@@@std@@@4@@std@@QEAA?AU?$pair@V?$_Tree_iterator@V?$_Tree_val@U?$_Tree_simple_types@U?$pair@$$CBHUPID_TABLE@ModeConfig@@@std@@@std@@@std@@@std@@_N@1@AEBH@Z
	??$try_emplace@$$V@?$map@U?$pair@GG@std@@V?$vector@V?$basic_string@DU?$char_traits@D@std@@V?$allocator@D@2@@std@@V?$allocator@V?$basic_string@DU?$char_traits@D@std@@V?$allocator@D@2@@std@@@2@@2@U?$less@U?$pair@GG@std@@@2@V?$allocator@U?$pair@$$CBU?$pair@GG@std@@V?$vector@V?$basic_string@DU?$char_traits@D@std@@V?$allocator@D@2@@std@@V?$allocator@V?$basic_string@DU?$char_traits@D@std@@V?$allocator@D@2@@std@@@2@@2@@std@@@2@@std@@QEAA?AU?$pair@V?$_Tree_iterator@V?$_Tree_val@U?$_Tree_simple_types@U?$pair@$$CBU?$pair@GG@std@@V?$vector@V?$basic_string@DU?$char_traits@D@std@@V?$allocator@D@2@@std@@V?$allocator@V?$basic_string@DU?$char_traits@D@std@@V?$allocator@D@2@@std@@@2@@2@@std@@@std@@@std@@@std@@_N@1@AEBU?$pair@GG@1@@Z
	??$try_emplace@$$V@?$map@UDeviceSellectInfo@libeYs3D@@V?$shared_ptr@VCameraDevice@devices@libeYs3D@@@std@@U?$less@UDeviceSellectInfo@libeYs3D@@@4@V?$allocator@U?$pair@$$CBUDeviceSellectInfo@libeYs3D@@V?$shared_ptr@VCameraDevice@devices@libeYs3D@@@std@@@std@@@4@@std@@QEAA?AU?$pair@V?$_Tree_iterator@V?$_Tree_val@U?$_Tree_simple_types@U?$pair@$$CBUDeviceSellectInfo@libeYs3D@@V?$shared_ptr@VCameraDevice@devices@libeYs3D@@@std@@@std@@@std@@@std@@@std@@_N@1@AEBUDeviceSellectInfo@libeYs3D@@@Z
	??$try_emplace@$$V@?$map@W4IMUPacketSymbol@IMUData@@_KU?$less@W4IMUPacketSymbol@IMUData@@@std@@V?$allocator@U?$pair@$$CBW4IMUPacketSymbol@IMUData@@_K@std@@@4@@std@@QEAA?AU?$pair@V?$_Tree_iterator@V?$_Tree_val@U?$_Tree_simple_types@U?$pair@$$CBW4IMUPacketSymbol@IMUData@@_K@std@@@std@@@std@@@std@@_N@1@$$QEAW4IMUPacketSymbol@IMUData@@@Z
	??$use_facet@V?$codecvt@DDU_Mbstatet@@@std@@@std@@YAAEBV?$codecvt@DDU_Mbstatet@@@0@AEBVlocale@0@@Z
	??0<lambda_1b1d21d4d0a625f2ca46306f492426c3>@@QEAA@QEAV?$vector@GV?$allocator@G@std@@@std@@AEBG@Z
	??0<lambda_24780451169aff7b21d8dc81a5c8ea5e>@@QEAA@QEAV?$vector@UtagAPC_STREAM_INFO@@V?$allocator@UtagAPC_STREAM_INFO@@@std@@@std@@AEBUtagAPC_STREAM_INFO@@@Z
	??0<lambda_2b51424039c320f102fd798e073c89b2>@@QEAA@QEAV?$vector@EV?$allocator@E@std@@@std@@@Z
	??0<lambda_488c629a0a7c1ecc954ac8047e960599>@@QEAA@$$QEAV<lambda_644b0c6f6f426dfd6f91480300661176>@@@Z
	??0<lambda_4cde73e63763cb313bd212247f8ddbb0>@@QEAA@QEAV?$ThreadPool@VDACalculateWorkItem@video@libeYs3D@@@base@libeYs3D@@@Z
	??0<lambda_530843cc44829e3530ea01af34e42038>@@QEAA@QEAV?$ThreadPool@VCallbackWorkItem@sensors@libeYs3D@@@base@libeYs3D@@@Z
	??0<lambda_5d91c21a7dab2480088f44d5291e9dfa>@@QEAA@QEAV?$vector@GV?$allocator@G@std@@@std@@@Z
	??0<lambda_644b0c6f6f426dfd6f91480300661176>@@QEAA@QEAV?$WorkerThread@V?$Optional@VDACalculateWorkItem@video@libeYs3D@@@base@libeYs3D@@@base@libeYs3D@@@Z
	??0<lambda_69d578ede27bd906c7e1bc689c004001>@@QEAA@$$QEAV<lambda_dbbb479bfc9ffc0a9f130fbf77aabe71>@@@Z
	??0<lambda_74be05070710ffacd29b9292ee44c745>@@QEAA@QEAV?$vector@FV?$allocator@F@std@@@std@@AEBF@Z
	??0<lambda_91e74e7942ac848116ee9e34f55e92a4>@@QEAA@QEAV?$vector@USensorData@sensors@libeYs3D@@V?$allocator@USensorData@sensors@libeYs3D@@@std@@@std@@@Z
	??0<lambda_9f92d7825455e143dbf3293131d714f3>@@QEAA@QEAV?$ThreadPool@VCallbackWorkItem@video@libeYs3D@@@base@libeYs3D@@@Z
	??0<lambda_a0fd67340d08d33487be225a22701bdb>@@QEAA@QEAV?$vector@MV?$allocator@M@std@@@std@@@Z
	??0<lambda_c26ef134520f1d4904a3b959b66e0c10>@@QEAA@QEAV?$WorkerThread@V?$Optional@VCallbackWorkItem@sensors@libeYs3D@@@base@libeYs3D@@@base@libeYs3D@@@Z
	??0<lambda_dbbb479bfc9ffc0a9f130fbf77aabe71>@@QEAA@QEAV?$WorkerThread@V?$Optional@VCallbackWorkItem@video@libeYs3D@@@base@libeYs3D@@@base@libeYs3D@@@Z
	??0<lambda_fd68a9891d2d9d887c20652be0ece82a>@@QEAA@$$QEAV<lambda_c26ef134520f1d4904a3b959b66e0c10>@@@Z
	??0?$CircularQueue@USensorData@sensors@libeYs3D@@$0BAA@@Pipeline@devices@libeYs3D@@QEAA@PEBD@Z
	??0?$CircularQueue@VFrame@video@libeYs3D@@$0EA@@FrameSetPipeline@devices@libeYs3D@@QEAA@XZ
	??0?$CircularQueue@VFrame@video@libeYs3D@@$0EA@@Pipeline@devices@libeYs3D@@QEAA@PEBD@Z
	??0?$CircularQueue@VPCFrame@video@libeYs3D@@$0CA@@FrameSetPipeline@devices@libeYs3D@@QEAA@XZ
	??0?$CircularQueue@VPCFrame@video@libeYs3D@@$0CA@@Pipeline@devices@libeYs3D@@QEAA@PEBD@Z
	??0?$MessageChannel@H$00@base@libeYs3D@@QEAA@XZ
	??0?$MessageChannel@H$01@base@libeYs3D@@QEAA@XZ
	??0?$MessageChannel@H$02@base@libeYs3D@@QEAA@XZ
	??0?$MessageChannel@H$03@base@libeYs3D@@QEAA@XZ
	??0?$MessageChannel@USensorData@sensors@libeYs3D@@$0EA@@base@libeYs3D@@QEAA@XZ
	??0?$MessageChannel@USensorDataSet@sensors@libeYs3D@@$07@base@libeYs3D@@QEAA@XZ
	??0?$MessageChannel@USensorDataSet@sensors@libeYs3D@@$0BA@@base@libeYs3D@@QEAA@XZ
	??0?$MessageChannel@VFrame@video@libeYs3D@@$0BA@@base@libeYs3D@@QEAA@XZ
	??0?$MessageChannel@VPCFrame@video@libeYs3D@@$0BA@@base@libeYs3D@@QEAA@XZ
	??0?$Optional@H@base@libeYs3D@@QEAA@$$QEAH@Z
	??0?$Optional@H@base@libeYs3D@@QEAA@$$QEAV012@@Z
	??0?$Optional@H@base@libeYs3D@@QEAA@XZ
	??0?$Optional@USensorData@sensors@libeYs3D@@@base@libeYs3D@@QEAA@$$QEAUSensorData@sensors@2@@Z
	??0?$Optional@USensorData@sensors@libeYs3D@@@base@libeYs3D@@QEAA@$$QEAV012@@Z
	??0?$Optional@USensorData@sensors@libeYs3D@@@base@libeYs3D@@QEAA@XZ
	??0?$Optional@USensorDataSet@sensors@libeYs3D@@@base@libeYs3D@@QEAA@$$QEAUSensorDataSet@sensors@2@@Z
	??0?$Optional@USensorDataSet@sensors@libeYs3D@@@base@libeYs3D@@QEAA@$$QEAV012@@Z
	??0?$Optional@USensorDataSet@sensors@libeYs3D@@@base@libeYs3D@@QEAA@XZ
	??0?$Optional@V?$WorkerThread@V?$Optional@VCallbackWorkItem@sensors@libeYs3D@@@base@libeYs3D@@@base@libeYs3D@@@base@libeYs3D@@QEAA@XZ
	??0?$Optional@V?$WorkerThread@V?$Optional@VCallbackWorkItem@video@libeYs3D@@@base@libeYs3D@@@base@libeYs3D@@@base@libeYs3D@@QEAA@XZ
	??0?$Optional@V?$WorkerThread@V?$Optional@VDACalculateWorkItem@video@libeYs3D@@@base@libeYs3D@@@base@libeYs3D@@@base@libeYs3D@@QEAA@XZ
	??0?$Optional@VCallbackWorkItem@sensors@libeYs3D@@@base@libeYs3D@@QEAA@$$QEAV012@@Z
	??0?$Optional@VCallbackWorkItem@sensors@libeYs3D@@@base@libeYs3D@@QEAA@UNulloptT@12@@Z
	??0?$Optional@VCallbackWorkItem@video@libeYs3D@@@base@libeYs3D@@QEAA@$$QEAV012@@Z
	??0?$Optional@VCallbackWorkItem@video@libeYs3D@@@base@libeYs3D@@QEAA@$$QEAVCallbackWorkItem@video@2@@Z
	??0?$Optional@VCallbackWorkItem@video@libeYs3D@@@base@libeYs3D@@QEAA@UNulloptT@12@@Z
	??0?$Optional@VDACalculateWorkItem@video@libeYs3D@@@base@libeYs3D@@QEAA@$$QEAV012@@Z
	??0?$Optional@VDACalculateWorkItem@video@libeYs3D@@@base@libeYs3D@@QEAA@$$QEAVDACalculateWorkItem@video@2@@Z
	??0?$Optional@VDACalculateWorkItem@video@libeYs3D@@@base@libeYs3D@@QEAA@UNulloptT@12@@Z
	??0?$Optional@VFrame@video@libeYs3D@@@base@libeYs3D@@QEAA@$$QEAV012@@Z
	??0?$Optional@VFrame@video@libeYs3D@@@base@libeYs3D@@QEAA@$$QEAVFrame@video@2@@Z
	??0?$Optional@VFrame@video@libeYs3D@@@base@libeYs3D@@QEAA@XZ
	??0?$Optional@VPCFrame@video@libeYs3D@@@base@libeYs3D@@QEAA@$$QEAV012@@Z
	??0?$Optional@VPCFrame@video@libeYs3D@@@base@libeYs3D@@QEAA@$$QEAVPCFrame@video@2@@Z
	??0?$Optional@VPCFrame@video@libeYs3D@@@base@libeYs3D@@QEAA@XZ
	??0?$Optional@_K@base@libeYs3D@@QEAA@AEB_K@Z
	??0?$OptionalStorageBase@$03$03@details@base@libeYs3D@@QEAA@XZ
	??0?$OptionalStorageBase@$07$07@details@base@libeYs3D@@QEAA@XZ
	??0?$OptionalStorageBase@$0BFI@$07@details@base@libeYs3D@@QEAA@XZ
	??0?$OptionalStorageBase@$0EA@$07@details@base@libeYs3D@@QEAA@XZ
	??0?$OptionalStorageBase@$0EI@$07@details@base@libeYs3D@@QEAA@XZ
	??0?$OptionalStorageBase@$0JE@$03@details@base@libeYs3D@@QEAA@XZ
	??0?$OptionalStorageBase@$0NI@$07@details@base@libeYs3D@@QEAA@XZ
	??0?$OptionalStorageBase@$0OA@$07@details@base@libeYs3D@@QEAA@XZ
	??0?$ThreadPool@VCallbackWorkItem@sensors@libeYs3D@@@base@libeYs3D@@QEAA@H$$QEAV?$function@$$A6AX$$QEAVCallbackWorkItem@sensors@libeYs3D@@@Z@std@@@Z
	??0?$ThreadPool@VCallbackWorkItem@video@libeYs3D@@@base@libeYs3D@@QEAA@H$$QEAV?$function@$$A6AX$$QEAVCallbackWorkItem@video@libeYs3D@@@Z@std@@@Z
	??0?$ThreadPool@VDACalculateWorkItem@video@libeYs3D@@@base@libeYs3D@@QEAA@H$$QEAV?$function@$$A6AX$$QEAVDACalculateWorkItem@video@libeYs3D@@@Z@std@@@Z
	??0?$WorkerThread@V?$Optional@VCallbackWorkItem@sensors@libeYs3D@@@base@libeYs3D@@@base@libeYs3D@@QEAA@$$QEAV?$function@$$A6A?AW4WorkerProcessingResult@base@libeYs3D@@$$QEAV?$Optional@VCallbackWorkItem@sensors@libeYs3D@@@23@@Z@std@@@Z
	??0?$WorkerThread@V?$Optional@VCallbackWorkItem@video@libeYs3D@@@base@libeYs3D@@@base@libeYs3D@@QEAA@$$QEAV?$function@$$A6A?AW4WorkerProcessingResult@base@libeYs3D@@$$QEAV?$Optional@VCallbackWorkItem@video@libeYs3D@@@23@@Z@std@@@Z
	??0?$WorkerThread@V?$Optional@VDACalculateWorkItem@video@libeYs3D@@@base@libeYs3D@@@base@libeYs3D@@QEAA@$$QEAV?$function@$$A6A?AW4WorkerProcessingResult@base@libeYs3D@@$$QEAV?$Optional@VDACalculateWorkItem@video@libeYs3D@@@23@@Z@std@@@Z
	??0?$_Binder@U_Unforced@std@@P8DepthFrameProducer@video@libeYs3D@@EAAXPEAVFrame@45@@ZPEAV345@AEBU?$_Ph@$00@2@@std@@QEAA@$$QEAP8DepthFrameProducer@video@libeYs3D@@EAAXPEAVFrame@34@@Z$$QEAPEAV234@AEBU?$_Ph@$00@1@@Z
	??0?$_Binder@U_Unforced@std@@P8DepthFrameProducer@video@libeYs3D@@EAAXPEAVFrame@45@@ZPEAV345@AEBU?$_Ph@$00@2@@std@@QEAA@$$QEAV01@@Z
	??0?$_Binder@U_Unforced@std@@P8DepthFrameProducer@video@libeYs3D@@EAAXPEAVFrame@45@@ZPEAV345@AEBU?$_Ph@$00@2@@std@@QEAA@AEBV01@@Z
	??0?$_Binder@U_Unforced@std@@P8FrameProducer@video@libeYs3D@@EAA_NPEBUSensorDataSet@sensors@5@@ZPEAV345@AEBU?$_Ph@$00@2@@std@@QEAA@$$QEAP8FrameProducer@video@libeYs3D@@EAA_NPEBUSensorDataSet@sensors@4@@Z$$QEAPEAV234@AEBU?$_Ph@$00@1@@Z
	??0?$_Binder@U_Unforced@std@@P8FrameProducer@video@libeYs3D@@EAA_NPEBUSensorDataSet@sensors@5@@ZPEAV345@AEBU?$_Ph@$00@2@@std@@QEAA@$$QEAV01@@Z
	??0?$_Binder@U_Unforced@std@@P8FrameProducer@video@libeYs3D@@EAA_NPEBUSensorDataSet@sensors@5@@ZPEAV345@AEBU?$_Ph@$00@2@@std@@QEAA@AEBV01@@Z
	??0?$_Binder@U_Unforced@std@@P8FrameProducer@video@libeYs3D@@EAA_NPEBVFrame@45@@ZPEAV345@AEBU?$_Ph@$00@2@@std@@QEAA@$$QEAP8FrameProducer@video@libeYs3D@@EAA_NPEBVFrame@34@@Z$$QEAPEAV234@AEBU?$_Ph@$00@1@@Z
	??0?$_Binder@U_Unforced@std@@P8FrameProducer@video@libeYs3D@@EAA_NPEBVFrame@45@@ZPEAV345@AEBU?$_Ph@$00@2@@std@@QEAA@$$QEAV01@@Z
	??0?$_Binder@U_Unforced@std@@P8FrameProducer@video@libeYs3D@@EAA_NPEBVFrame@45@@ZPEAV345@AEBU?$_Ph@$00@2@@std@@QEAA@AEBV01@@Z
	??0?$_Binder@U_Unforced@std@@P8FrameSetPipeline@devices@libeYs3D@@EAA_NPEBVFrame@video@5@@ZPEAV345@AEBU?$_Ph@$00@2@@std@@QEAA@$$QEAP8FrameSetPipeline@devices@libeYs3D@@EAA_NPEBVFrame@video@4@@Z$$QEAPEAV234@AEBU?$_Ph@$00@1@@Z
	??0?$_Binder@U_Unforced@std@@P8FrameSetPipeline@devices@libeYs3D@@EAA_NPEBVFrame@video@5@@ZPEAV345@AEBU?$_Ph@$00@2@@std@@QEAA@$$QEAV01@@Z
	??0?$_Binder@U_Unforced@std@@P8FrameSetPipeline@devices@libeYs3D@@EAA_NPEBVFrame@video@5@@ZPEAV345@AEBU?$_Ph@$00@2@@std@@QEAA@AEBV01@@Z
	??0?$_Binder@U_Unforced@std@@P8FrameSetPipeline@devices@libeYs3D@@EAA_NPEBVPCFrame@video@5@@ZPEAV345@AEBU?$_Ph@$00@2@@std@@QEAA@$$QEAP8FrameSetPipeline@devices@libeYs3D@@EAA_NPEBVPCFrame@video@4@@Z$$QEAPEAV234@AEBU?$_Ph@$00@1@@Z
	??0?$_Binder@U_Unforced@std@@P8FrameSetPipeline@devices@libeYs3D@@EAA_NPEBVPCFrame@video@5@@ZPEAV345@AEBU?$_Ph@$00@2@@std@@QEAA@$$QEAV01@@Z
	??0?$_Binder@U_Unforced@std@@P8FrameSetPipeline@devices@libeYs3D@@EAA_NPEBVPCFrame@video@5@@ZPEAV345@AEBU?$_Ph@$00@2@@std@@QEAA@AEBV01@@Z
	??0?$_Binder@U_Unforced@std@@P8PCFrameProducer@video@libeYs3D@@EAA_NPEBVFrame@45@@ZPEAV345@AEBU?$_Ph@$00@2@@std@@QEAA@$$QEAP8PCFrameProducer@video@libeYs3D@@EAA_NPEBVFrame@34@@Z$$QEAPEAV234@AEBU?$_Ph@$00@1@@Z
	??0?$_Binder@U_Unforced@std@@P8PCFrameProducer@video@libeYs3D@@EAA_NPEBVFrame@45@@ZPEAV345@AEBU?$_Ph@$00@2@@std@@QEAA@$$QEAV01@@Z
	??0?$_Binder@U_Unforced@std@@P8PCFrameProducer@video@libeYs3D@@EAA_NPEBVFrame@45@@ZPEAV345@AEBU?$_Ph@$00@2@@std@@QEAA@AEBV01@@Z
	??0?$_Binder@U_Unforced@std@@P8Pipeline@devices@libeYs3D@@EAA_NPEBUSensorData@sensors@5@@ZPEAV345@AEBU?$_Ph@$00@2@@std@@QEAA@$$QEAP8Pipeline@devices@libeYs3D@@EAA_NPEBUSensorData@sensors@4@@Z$$QEAPEAV234@AEBU?$_Ph@$00@1@@Z
	??0?$_Binder@U_Unforced@std@@P8Pipeline@devices@libeYs3D@@EAA_NPEBUSensorData@sensors@5@@ZPEAV345@AEBU?$_Ph@$00@2@@std@@QEAA@$$QEAV01@@Z
	??0?$_Binder@U_Unforced@std@@P8Pipeline@devices@libeYs3D@@EAA_NPEBUSensorData@sensors@5@@ZPEAV345@AEBU?$_Ph@$00@2@@std@@QEAA@AEBV01@@Z
	??0?$_Binder@U_Unforced@std@@P8Pipeline@devices@libeYs3D@@EAA_NPEBVFrame@video@5@@ZPEAV345@AEBU?$_Ph@$00@2@@std@@QEAA@$$QEAP8Pipeline@devices@libeYs3D@@EAA_NPEBVFrame@video@4@@Z$$QEAPEAV234@AEBU?$_Ph@$00@1@@Z
	??0?$_Binder@U_Unforced@std@@P8Pipeline@devices@libeYs3D@@EAA_NPEBVFrame@video@5@@ZPEAV345@AEBU?$_Ph@$00@2@@std@@QEAA@$$QEAV01@@Z
	??0?$_Binder@U_Unforced@std@@P8Pipeline@devices@libeYs3D@@EAA_NPEBVFrame@video@5@@ZPEAV345@AEBU?$_Ph@$00@2@@std@@QEAA@AEBV01@@Z
	??0?$_Binder@U_Unforced@std@@P8Pipeline@devices@libeYs3D@@EAA_NPEBVPCFrame@video@5@@ZPEAV345@AEBU?$_Ph@$00@2@@std@@QEAA@$$QEAP8Pipeline@devices@libeYs3D@@EAA_NPEBVPCFrame@video@4@@Z$$QEAPEAV234@AEBU?$_Ph@$00@1@@Z
	??0?$_Binder@U_Unforced@std@@P8Pipeline@devices@libeYs3D@@EAA_NPEBVPCFrame@video@5@@ZPEAV345@AEBU?$_Ph@$00@2@@std@@QEAA@$$QEAV01@@Z
	??0?$_Binder@U_Unforced@std@@P8Pipeline@devices@libeYs3D@@EAA_NPEBVPCFrame@video@5@@ZPEAV345@AEBU?$_Ph@$00@2@@std@@QEAA@AEBV01@@Z
	??0?$_Binder@U_Unforced@std@@P8SensorDataProducer@sensors@libeYs3D@@EAA_NPEBUSensorDataSet@45@@ZPEAV345@AEBU?$_Ph@$00@2@@std@@QEAA@$$QEAP8SensorDataProducer@sensors@libeYs3D@@EAA_NPEBUSensorDataSet@34@@Z$$QEAPEAV234@AEBU?$_Ph@$00@1@@Z
	??0?$_Binder@U_Unforced@std@@P8SensorDataProducer@sensors@libeYs3D@@EAA_NPEBUSensorDataSet@45@@ZPEAV345@AEBU?$_Ph@$00@2@@std@@QEAA@$$QEAV01@@Z
	??0?$_Binder@U_Unforced@std@@P8SensorDataProducer@sensors@libeYs3D@@EAA_NPEBUSensorDataSet@45@@ZPEAV345@AEBU?$_Ph@$00@2@@std@@QEAA@AEBV01@@Z
	??0?$_Compressed_pair@P8DepthFrameProducer@video@libeYs3D@@EAAXPEAVFrame@23@@ZV?$tuple@PEAVDepthFrameProducer@video@libeYs3D@@U?$_Ph@$00@std@@@std@@$0A@@std@@QEAA@$$QEAV01@@Z
	??0?$_Compressed_pair@P8DepthFrameProducer@video@libeYs3D@@EAAXPEAVFrame@23@@ZV?$tuple@PEAVDepthFrameProducer@video@libeYs3D@@U?$_Ph@$00@std@@@std@@$0A@@std@@QEAA@AEBV01@@Z
	??0?$_Compressed_pair@P8FrameProducer@video@libeYs3D@@EAA_NPEBUSensorDataSet@sensors@3@@ZV?$tuple@PEAVFrameProducer@video@libeYs3D@@U?$_Ph@$00@std@@@std@@$0A@@std@@QEAA@$$QEAV01@@Z
	??0?$_Compressed_pair@P8FrameProducer@video@libeYs3D@@EAA_NPEBUSensorDataSet@sensors@3@@ZV?$tuple@PEAVFrameProducer@video@libeYs3D@@U?$_Ph@$00@std@@@std@@$0A@@std@@QEAA@AEBV01@@Z
	??0?$_Compressed_pair@P8FrameProducer@video@libeYs3D@@EAA_NPEBVFrame@23@@ZV?$tuple@PEAVFrameProducer@video@libeYs3D@@U?$_Ph@$00@std@@@std@@$0A@@std@@QEAA@$$QEAV01@@Z
	??0?$_Compressed_pair@P8FrameProducer@video@libeYs3D@@EAA_NPEBVFrame@23@@ZV?$tuple@PEAVFrameProducer@video@libeYs3D@@U?$_Ph@$00@std@@@std@@$0A@@std@@QEAA@AEBV01@@Z
	??0?$_Compressed_pair@P8FrameSetPipeline@devices@libeYs3D@@EAA_NPEBVFrame@video@3@@ZV?$tuple@PEAVFrameSetPipeline@devices@libeYs3D@@U?$_Ph@$00@std@@@std@@$0A@@std@@QEAA@$$QEAV01@@Z
	??0?$_Compressed_pair@P8FrameSetPipeline@devices@libeYs3D@@EAA_NPEBVFrame@video@3@@ZV?$tuple@PEAVFrameSetPipeline@devices@libeYs3D@@U?$_Ph@$00@std@@@std@@$0A@@std@@QEAA@AEBV01@@Z
	??0?$_Compressed_pair@P8FrameSetPipeline@devices@libeYs3D@@EAA_NPEBVPCFrame@video@3@@ZV?$tuple@PEAVFrameSetPipeline@devices@libeYs3D@@U?$_Ph@$00@std@@@std@@$0A@@std@@QEAA@$$QEAV01@@Z
	??0?$_Compressed_pair@P8FrameSetPipeline@devices@libeYs3D@@EAA_NPEBVPCFrame@video@3@@ZV?$tuple@PEAVFrameSetPipeline@devices@libeYs3D@@U?$_Ph@$00@std@@@std@@$0A@@std@@QEAA@AEBV01@@Z
	??0?$_Compressed_pair@P8PCFrameProducer@video@libeYs3D@@EAA_NPEBVFrame@23@@ZV?$tuple@PEAVPCFrameProducer@video@libeYs3D@@U?$_Ph@$00@std@@@std@@$0A@@std@@QEAA@$$QEAV01@@Z
	??0?$_Compressed_pair@P8PCFrameProducer@video@libeYs3D@@EAA_NPEBVFrame@23@@ZV?$tuple@PEAVPCFrameProducer@video@libeYs3D@@U?$_Ph@$00@std@@@std@@$0A@@std@@QEAA@AEBV01@@Z
	??0?$_Compressed_pair@P8Pipeline@devices@libeYs3D@@EAA_NPEBUSensorData@sensors@3@@ZV?$tuple@PEAVPipeline@devices@libeYs3D@@U?$_Ph@$00@std@@@std@@$0A@@std@@QEAA@$$QEAV01@@Z
	??0?$_Compressed_pair@P8Pipeline@devices@libeYs3D@@EAA_NPEBUSensorData@sensors@3@@ZV?$tuple@PEAVPipeline@devices@libeYs3D@@U?$_Ph@$00@std@@@std@@$0A@@std@@QEAA@AEBV01@@Z
	??0?$_Compressed_pair@P8Pipeline@devices@libeYs3D@@EAA_NPEBVFrame@video@3@@ZV?$tuple@PEAVPipeline@devices@libeYs3D@@U?$_Ph@$00@std@@@std@@$0A@@std@@QEAA@$$QEAV01@@Z
	??0?$_Compressed_pair@P8Pipeline@devices@libeYs3D@@EAA_NPEBVFrame@video@3@@ZV?$tuple@PEAVPipeline@devices@libeYs3D@@U?$_Ph@$00@std@@@std@@$0A@@std@@QEAA@AEBV01@@Z
	??0?$_Compressed_pair@P8Pipeline@devices@libeYs3D@@EAA_NPEBVPCFrame@video@3@@ZV?$tuple@PEAVPipeline@devices@libeYs3D@@U?$_Ph@$00@std@@@std@@$0A@@std@@QEAA@$$QEAV01@@Z
	??0?$_Compressed_pair@P8Pipeline@devices@libeYs3D@@EAA_NPEBVPCFrame@video@3@@ZV?$tuple@PEAVPipeline@devices@libeYs3D@@U?$_Ph@$00@std@@@std@@$0A@@std@@QEAA@AEBV01@@Z
	??0?$_Compressed_pair@P8SensorDataProducer@sensors@libeYs3D@@EAA_NPEBUSensorDataSet@23@@ZV?$tuple@PEAVSensorDataProducer@sensors@libeYs3D@@U?$_Ph@$00@std@@@std@@$0A@@std@@QEAA@$$QEAV01@@Z
	??0?$_Compressed_pair@P8SensorDataProducer@sensors@libeYs3D@@EAA_NPEBUSensorDataSet@23@@ZV?$tuple@PEAVSensorDataProducer@sensors@libeYs3D@@U?$_Ph@$00@std@@@std@@$0A@@std@@QEAA@AEBV01@@Z
	??0?$_Func_base@W4WorkerProcessingResult@base@libeYs3D@@$$QEAV?$Optional@VCallbackWorkItem@sensors@libeYs3D@@@23@@std@@QEAA@XZ
	??0?$_Func_base@W4WorkerProcessingResult@base@libeYs3D@@$$QEAV?$Optional@VCallbackWorkItem@video@libeYs3D@@@23@@std@@QEAA@XZ
	??0?$_Func_base@W4WorkerProcessingResult@base@libeYs3D@@$$QEAV?$Optional@VDACalculateWorkItem@video@libeYs3D@@@23@@std@@QEAA@XZ
	??0?$_Func_base@X$$QEAVCallbackWorkItem@sensors@libeYs3D@@@std@@QEAA@XZ
	??0?$_Func_base@X$$QEAVCallbackWorkItem@video@libeYs3D@@@std@@QEAA@XZ
	??0?$_Func_base@X$$QEAVDACalculateWorkItem@video@libeYs3D@@@std@@QEAA@XZ
	??0?$_Func_base@XPEAVFrame@video@libeYs3D@@@std@@QEAA@XZ
	??0?$_Func_base@_J$$V@std@@QEAA@XZ
	??0?$_Func_base@_NPEBUSensorData@sensors@libeYs3D@@@std@@QEAA@XZ
	??0?$_Func_base@_NPEBUSensorDataSet@sensors@libeYs3D@@@std@@QEAA@XZ
	??0?$_Func_base@_NPEBVFrame@video@libeYs3D@@@std@@QEAA@XZ
	??0?$_Func_base@_NPEBVPCFrame@video@libeYs3D@@@std@@QEAA@XZ
	??0?$_Func_class@W4WorkerProcessingResult@base@libeYs3D@@$$QEAV?$Optional@VCallbackWorkItem@sensors@libeYs3D@@@23@@std@@QEAA@XZ
	??0?$_Func_class@W4WorkerProcessingResult@base@libeYs3D@@$$QEAV?$Optional@VCallbackWorkItem@video@libeYs3D@@@23@@std@@QEAA@XZ
	??0?$_Func_class@W4WorkerProcessingResult@base@libeYs3D@@$$QEAV?$Optional@VDACalculateWorkItem@video@libeYs3D@@@23@@std@@QEAA@XZ
	??0?$_Func_class@X$$QEAVCallbackWorkItem@sensors@libeYs3D@@@std@@QEAA@XZ
	??0?$_Func_class@X$$QEAVCallbackWorkItem@video@libeYs3D@@@std@@QEAA@XZ
	??0?$_Func_class@X$$QEAVDACalculateWorkItem@video@libeYs3D@@@std@@QEAA@XZ
	??0?$_Func_class@XPEAVFrame@video@libeYs3D@@@std@@QEAA@XZ
	??0?$_Func_class@_J$$V@std@@QEAA@XZ
	??0?$_Func_class@_NPEBUSensorData@sensors@libeYs3D@@@std@@QEAA@XZ
	??0?$_Func_class@_NPEBUSensorDataSet@sensors@libeYs3D@@@std@@QEAA@XZ
	??0?$_Func_class@_NPEBVFrame@video@libeYs3D@@@std@@QEAA@XZ
	??0?$_Func_class@_NPEBVPCFrame@video@libeYs3D@@@std@@QEAA@XZ
	??0?$_List_const_iterator@V?$_List_val@U?$_List_simple_types@V?$vector@FV?$allocator@F@std@@@std@@@std@@@std@@@std@@QEAA@$$QEAV01@@Z
	??0?$_List_const_iterator@V?$_List_val@U?$_List_simple_types@V?$vector@FV?$allocator@F@std@@@std@@@std@@@std@@@std@@QEAA@AEBV01@@Z
	??0?$_List_const_iterator@V?$_List_val@U?$_List_simple_types@V?$vector@FV?$allocator@F@std@@@std@@@std@@@std@@@std@@QEAA@PEAU?$_List_node@V?$vector@FV?$allocator@F@std@@@std@@PEAX@1@PEBV?$_List_val@U?$_List_simple_types@V?$vector@FV?$allocator@F@std@@@std@@@std@@@1@@Z
	??0?$_List_iterator@V?$_List_val@U?$_List_simple_types@V?$vector@FV?$allocator@F@std@@@std@@@std@@@std@@@std@@QEAA@AEBV01@@Z
	??0?$_List_iterator@V?$_List_val@U?$_List_simple_types@V?$vector@FV?$allocator@F@std@@@std@@@std@@@std@@@std@@QEAA@PEAU?$_List_node@V?$vector@FV?$allocator@F@std@@@std@@PEAX@1@PEBV?$_List_val@U?$_List_simple_types@V?$vector@FV?$allocator@F@std@@@std@@@std@@@1@@Z
	??0?$_List_unchecked_const_iterator@V?$_List_val@U?$_List_simple_types@V?$vector@FV?$allocator@F@std@@@std@@@std@@@std@@U_Iterator_base0@2@@std@@QEAA@PEAU?$_List_node@V?$vector@FV?$allocator@F@std@@@std@@PEAX@1@PEBV?$_List_val@U?$_List_simple_types@V?$vector@FV?$allocator@F@std@@@std@@@std@@@1@@Z
	??0?$_List_unchecked_const_iterator@V?$_List_val@U?$_List_simple_types@V?$vector@FV?$allocator@F@std@@@std@@@std@@@std@@U_Iterator_base12@2@@std@@QEAA@$$QEAV01@@Z
	??0?$_List_unchecked_const_iterator@V?$_List_val@U?$_List_simple_types@V?$vector@FV?$allocator@F@std@@@std@@@std@@@std@@U_Iterator_base12@2@@std@@QEAA@AEBV01@@Z
	??0?$_List_unchecked_const_iterator@V?$_List_val@U?$_List_simple_types@V?$vector@FV?$allocator@F@std@@@std@@@std@@@std@@U_Iterator_base12@2@@std@@QEAA@PEAU?$_List_node@V?$vector@FV?$allocator@F@std@@@std@@PEAX@1@PEBV?$_List_val@U?$_List_simple_types@V?$vector@FV?$allocator@F@std@@@std@@@std@@@1@@Z
	??0?$_List_unchecked_iterator@V?$_List_val@U?$_List_simple_types@V?$vector@FV?$allocator@F@std@@@std@@@std@@@std@@@std@@QEAA@PEAU?$_List_node@V?$vector@FV?$allocator@F@std@@@std@@PEAX@1@PEBV?$_List_val@U?$_List_simple_types@V?$vector@FV?$allocator@F@std@@@std@@@std@@@1@@Z
	??0?$_List_val@U?$_List_simple_types@V?$vector@FV?$allocator@F@std@@@std@@@std@@@std@@QEAA@XZ
	??0?$_Ptr_base@VCameraDevice@devices@libeYs3D@@@std@@IEAA@XZ
	??0?$_Ptr_base@VEYS3DSystem@libeYs3D@@@std@@IEAA@XZ
	??0?$_Ptr_base@VFrameSetPipeline@devices@libeYs3D@@@std@@IEAA@XZ
	??0?$_Ptr_base@VPipeline@devices@libeYs3D@@@std@@IEAA@XZ
	??0?$_Ref_count@VCameraDevice@devices@libeYs3D@@@std@@QEAA@PEAVCameraDevice@devices@libeYs3D@@@Z
	??0?$_Ref_count@VEYS3DSystem@libeYs3D@@@std@@QEAA@PEAVEYS3DSystem@libeYs3D@@@Z
	??0?$_Ref_count@VFrameSetPipeline@devices@libeYs3D@@@std@@QEAA@PEAVFrameSetPipeline@devices@libeYs3D@@@Z
	??0?$_Ref_count@VPipeline@devices@libeYs3D@@@std@@QEAA@PEAVPipeline@devices@libeYs3D@@@Z
	??0?$_String_alloc@U?$_String_base_types@DV?$allocator@D@std@@@std@@@std@@QEAA@XZ
	??0?$_String_const_iterator@V?$_String_val@U?$_Simple_types@D@std@@@std@@@std@@QEAA@PEBDPEBU_Container_base12@1@@Z
	??0?$_String_iterator@V?$_String_val@U?$_Simple_types@D@std@@@std@@@std@@QEAA@PEADPEBU_Container_base12@1@@Z
	??0?$_String_val@U?$_Simple_types@D@std@@@std@@QEAA@XZ
	??0?$_Tree@V?$_Tmap_traits@HHU?$less@H@std@@V?$allocator@U?$pair@$$CBHH@std@@@2@$0A@@std@@@std@@QEAA@AEBU?$less@H@1@@Z
	??0?$_Tree@V?$_Tmap_traits@HUPID_TABLE@ModeConfig@@U?$less@H@std@@V?$allocator@U?$pair@$$CBHUPID_TABLE@ModeConfig@@@std@@@4@$0A@@std@@@std@@QEAA@AEBU?$less@H@1@@Z
	??0?$_Tree@V?$_Tmap_traits@U?$pair@GG@std@@V?$vector@V?$basic_string@DU?$char_traits@D@std@@V?$allocator@D@2@@std@@V?$allocator@V?$basic_string@DU?$char_traits@D@std@@V?$allocator@D@2@@std@@@2@@2@U?$less@U?$pair@GG@std@@@2@V?$allocator@U?$pair@$$CBU?$pair@GG@std@@V?$vector@V?$basic_string@DU?$char_traits@D@std@@V?$allocator@D@2@@std@@V?$allocator@V?$basic_string@DU?$char_traits@D@std@@V?$allocator@D@2@@std@@@2@@2@@std@@@2@$0A@@std@@@std@@QEAA@AEBU?$less@U?$pair@GG@std@@@1@@Z
	??0?$_Tree@V?$_Tmap_traits@UDeviceSellectInfo@libeYs3D@@V?$shared_ptr@VCameraDevice@devices@libeYs3D@@@std@@U?$less@UDeviceSellectInfo@libeYs3D@@@4@V?$allocator@U?$pair@$$CBUDeviceSellectInfo@libeYs3D@@V?$shared_ptr@VCameraDevice@devices@libeYs3D@@@std@@@std@@@4@$0A@@std@@@std@@QEAA@AEBU?$less@UDeviceSellectInfo@libeYs3D@@@1@@Z
	??0?$_Tree@V?$_Tmap_traits@W4IMUPacketSymbol@IMUData@@_KU?$less@W4IMUPacketSymbol@IMUData@@@std@@V?$allocator@U?$pair@$$CBW4IMUPacketSymbol@IMUData@@_K@std@@@4@$0A@@std@@@std@@QEAA@AEBU?$less@W4IMUPacketSymbol@IMUData@@@1@@Z
	??0?$_Tree_comp_alloc@V?$_Tmap_traits@HHU?$less@H@std@@V?$allocator@U?$pair@$$CBHH@std@@@2@$0A@@std@@@std@@QEAA@AEBU?$less@H@1@@Z
	??0?$_Tree_comp_alloc@V?$_Tmap_traits@HUPID_TABLE@ModeConfig@@U?$less@H@std@@V?$allocator@U?$pair@$$CBHUPID_TABLE@ModeConfig@@@std@@@4@$0A@@std@@@std@@QEAA@AEBU?$less@H@1@@Z
	??0?$_Tree_comp_alloc@V?$_Tmap_traits@U?$pair@GG@std@@V?$vector@V?$basic_string@DU?$char_traits@D@std@@V?$allocator@D@2@@std@@V?$allocator@V?$basic_string@DU?$char_traits@D@std@@V?$allocator@D@2@@std@@@2@@2@U?$less@U?$pair@GG@std@@@2@V?$allocator@U?$pair@$$CBU?$pair@GG@std@@V?$vector@V?$basic_string@DU?$char_traits@D@std@@V?$allocator@D@2@@std@@V?$allocator@V?$basic_string@DU?$char_traits@D@std@@V?$allocator@D@2@@std@@@2@@2@@std@@@2@$0A@@std@@@std@@QEAA@AEBU?$less@U?$pair@GG@std@@@1@@Z
	??0?$_Tree_comp_alloc@V?$_Tmap_traits@UDeviceSellectInfo@libeYs3D@@V?$shared_ptr@VCameraDevice@devices@libeYs3D@@@std@@U?$less@UDeviceSellectInfo@libeYs3D@@@4@V?$allocator@U?$pair@$$CBUDeviceSellectInfo@libeYs3D@@V?$shared_ptr@VCameraDevice@devices@libeYs3D@@@std@@@std@@@4@$0A@@std@@@std@@QEAA@AEBU?$less@UDeviceSellectInfo@libeYs3D@@@1@@Z
	??0?$_Tree_comp_alloc@V?$_Tmap_traits@W4IMUPacketSymbol@IMUData@@_KU?$less@W4IMUPacketSymbol@IMUData@@@std@@V?$allocator@U?$pair@$$CBW4IMUPacketSymbol@IMUData@@_K@std@@@4@$0A@@std@@@std@@QEAA@AEBU?$less@W4IMUPacketSymbol@IMUData@@@1@@Z
	??0?$_Tree_const_iterator@V?$_Tree_val@U?$_Tree_simple_types@U?$pair@$$CBHH@std@@@std@@@std@@@std@@QEAA@$$QEAV01@@Z
	??0?$_Tree_const_iterator@V?$_Tree_val@U?$_Tree_simple_types@U?$pair@$$CBHH@std@@@std@@@std@@@std@@QEAA@AEBV01@@Z
	??0?$_Tree_const_iterator@V?$_Tree_val@U?$_Tree_simple_types@U?$pair@$$CBHH@std@@@std@@@std@@@std@@QEAA@PEAU?$_Tree_node@U?$pair@$$CBHH@std@@PEAX@1@PEBV?$_Tree_val@U?$_Tree_simple_types@U?$pair@$$CBHH@std@@@std@@@1@@Z
	??0?$_Tree_const_iterator@V?$_Tree_val@U?$_Tree_simple_types@U?$pair@$$CBHUPID_TABLE@ModeConfig@@@std@@@std@@@std@@@std@@QEAA@$$QEAV01@@Z
	??0?$_Tree_const_iterator@V?$_Tree_val@U?$_Tree_simple_types@U?$pair@$$CBHUPID_TABLE@ModeConfig@@@std@@@std@@@std@@@std@@QEAA@AEBV01@@Z
	??0?$_Tree_const_iterator@V?$_Tree_val@U?$_Tree_simple_types@U?$pair@$$CBHUPID_TABLE@ModeConfig@@@std@@@std@@@std@@@std@@QEAA@PEAU?$_Tree_node@U?$pair@$$CBHUPID_TABLE@ModeConfig@@@std@@PEAX@1@PEBV?$_Tree_val@U?$_Tree_simple_types@U?$pair@$$CBHUPID_TABLE@ModeConfig@@@std@@@std@@@1@@Z
	??0?$_Tree_const_iterator@V?$_Tree_val@U?$_Tree_simple_types@U?$pair@$$CBHUPID_TABLE@ModeConfig@@@std@@@std@@@std@@@std@@QEAA@XZ
	??0?$_Tree_const_iterator@V?$_Tree_val@U?$_Tree_simple_types@U?$pair@$$CBU?$pair@GG@std@@V?$vector@V?$basic_string@DU?$char_traits@D@std@@V?$allocator@D@2@@std@@V?$allocator@V?$basic_string@DU?$char_traits@D@std@@V?$allocator@D@2@@std@@@2@@2@@std@@@std@@@std@@@std@@QEAA@$$QEAV01@@Z
	??0?$_Tree_const_iterator@V?$_Tree_val@U?$_Tree_simple_types@U?$pair@$$CBU?$pair@GG@std@@V?$vector@V?$basic_string@DU?$char_traits@D@std@@V?$allocator@D@2@@std@@V?$allocator@V?$basic_string@DU?$char_traits@D@std@@V?$allocator@D@2@@std@@@2@@2@@std@@@std@@@std@@@std@@QEAA@AEBV01@@Z
	??0?$_Tree_const_iterator@V?$_Tree_val@U?$_Tree_simple_types@U?$pair@$$CBU?$pair@GG@std@@V?$vector@V?$basic_string@DU?$char_traits@D@std@@V?$allocator@D@2@@std@@V?$allocator@V?$basic_string@DU?$char_traits@D@std@@V?$allocator@D@2@@std@@@2@@2@@std@@@std@@@std@@@std@@QEAA@PEAU?$_Tree_node@U?$pair@$$CBU?$pair@GG@std@@V?$vector@V?$basic_string@DU?$char_traits@D@std@@V?$allocator@D@2@@std@@V?$allocator@V?$basic_string@DU?$char_traits@D@std@@V?$allocator@D@2@@std@@@2@@2@@std@@PEAX@1@PEBV?$_Tree_val@U?$_Tree_simple_types@U?$pair@$$CBU?$pair@GG@std@@V?$vector@V?$basic_string@DU?$char_traits@D@std@@V?$allocator@D@2@@std@@V?$allocator@V?$basic_string@DU?$char_traits@D@std@@V?$allocator@D@2@@std@@@2@@2@@std@@@std@@@1@@Z
	??0?$_Tree_const_iterator@V?$_Tree_val@U?$_Tree_simple_types@U?$pair@$$CBU?$pair@GG@std@@V?$vector@V?$basic_string@DU?$char_traits@D@std@@V?$allocator@D@2@@std@@V?$allocator@V?$basic_string@DU?$char_traits@D@std@@V?$allocator@D@2@@std@@@2@@2@@std@@@std@@@std@@@std@@QEAA@XZ
	??0?$_Tree_const_iterator@V?$_Tree_val@U?$_Tree_simple_types@U?$pair@$$CBUDeviceSellectInfo@libeYs3D@@V?$shared_ptr@VCameraDevice@devices@libeYs3D@@@std@@@std@@@std@@@std@@@std@@QEAA@$$QEAV01@@Z
	??0?$_Tree_const_iterator@V?$_Tree_val@U?$_Tree_simple_types@U?$pair@$$CBUDeviceSellectInfo@libeYs3D@@V?$shared_ptr@VCameraDevice@devices@libeYs3D@@@std@@@std@@@std@@@std@@@std@@QEAA@AEBV01@@Z
	??0?$_Tree_const_iterator@V?$_Tree_val@U?$_Tree_simple_types@U?$pair@$$CBUDeviceSellectInfo@libeYs3D@@V?$shared_ptr@VCameraDevice@devices@libeYs3D@@@std@@@std@@@std@@@std@@@std@@QEAA@PEAU?$_Tree_node@U?$pair@$$CBUDeviceSellectInfo@libeYs3D@@V?$shared_ptr@VCameraDevice@devices@libeYs3D@@@std@@@std@@PEAX@1@PEBV?$_Tree_val@U?$_Tree_simple_types@U?$pair@$$CBUDeviceSellectInfo@libeYs3D@@V?$shared_ptr@VCameraDevice@devices@libeYs3D@@@std@@@std@@@std@@@1@@Z
	??0?$_Tree_const_iterator@V?$_Tree_val@U?$_Tree_simple_types@U?$pair@$$CBUDeviceSellectInfo@libeYs3D@@V?$shared_ptr@VCameraDevice@devices@libeYs3D@@@std@@@std@@@std@@@std@@@std@@QEAA@XZ
	??0?$_Tree_const_iterator@V?$_Tree_val@U?$_Tree_simple_types@U?$pair@$$CBW4IMUPacketSymbol@IMUData@@_K@std@@@std@@@std@@@std@@QEAA@$$QEAV01@@Z
	??0?$_Tree_const_iterator@V?$_Tree_val@U?$_Tree_simple_types@U?$pair@$$CBW4IMUPacketSymbol@IMUData@@_K@std@@@std@@@std@@@std@@QEAA@AEBV01@@Z
	??0?$_Tree_const_iterator@V?$_Tree_val@U?$_Tree_simple_types@U?$pair@$$CBW4IMUPacketSymbol@IMUData@@_K@std@@@std@@@std@@@std@@QEAA@PEAU?$_Tree_node@U?$pair@$$CBW4IMUPacketSymbol@IMUData@@_K@std@@PEAX@1@PEBV?$_Tree_val@U?$_Tree_simple_types@U?$pair@$$CBW4IMUPacketSymbol@IMUData@@_K@std@@@std@@@1@@Z
	??0?$_Tree_const_iterator@V?$_Tree_val@U?$_Tree_simple_types@U?$pair@$$CBW4IMUPacketSymbol@IMUData@@_K@std@@@std@@@std@@@std@@QEAA@XZ
	??0?$_Tree_iterator@V?$_Tree_val@U?$_Tree_simple_types@U?$pair@$$CBHH@std@@@std@@@std@@@std@@QEAA@$$QEAV01@@Z
	??0?$_Tree_iterator@V?$_Tree_val@U?$_Tree_simple_types@U?$pair@$$CBHH@std@@@std@@@std@@@std@@QEAA@AEBV01@@Z
	??0?$_Tree_iterator@V?$_Tree_val@U?$_Tree_simple_types@U?$pair@$$CBHH@std@@@std@@@std@@@std@@QEAA@PEAU?$_Tree_node@U?$pair@$$CBHH@std@@PEAX@1@PEBV?$_Tree_val@U?$_Tree_simple_types@U?$pair@$$CBHH@std@@@std@@@1@@Z
	??0?$_Tree_iterator@V?$_Tree_val@U?$_Tree_simple_types@U?$pair@$$CBHUPID_TABLE@ModeConfig@@@std@@@std@@@std@@@std@@QEAA@$$QEAV01@@Z
	??0?$_Tree_iterator@V?$_Tree_val@U?$_Tree_simple_types@U?$pair@$$CBHUPID_TABLE@ModeConfig@@@std@@@std@@@std@@@std@@QEAA@AEBV01@@Z
	??0?$_Tree_iterator@V?$_Tree_val@U?$_Tree_simple_types@U?$pair@$$CBHUPID_TABLE@ModeConfig@@@std@@@std@@@std@@@std@@QEAA@PEAU?$_Tree_node@U?$pair@$$CBHUPID_TABLE@ModeConfig@@@std@@PEAX@1@PEBV?$_Tree_val@U?$_Tree_simple_types@U?$pair@$$CBHUPID_TABLE@ModeConfig@@@std@@@std@@@1@@Z
	??0?$_Tree_iterator@V?$_Tree_val@U?$_Tree_simple_types@U?$pair@$$CBU?$pair@GG@std@@V?$vector@V?$basic_string@DU?$char_traits@D@std@@V?$allocator@D@2@@std@@V?$allocator@V?$basic_string@DU?$char_traits@D@std@@V?$allocator@D@2@@std@@@2@@2@@std@@@std@@@std@@@std@@QEAA@$$QEAV01@@Z
	??0?$_Tree_iterator@V?$_Tree_val@U?$_Tree_simple_types@U?$pair@$$CBU?$pair@GG@std@@V?$vector@V?$basic_string@DU?$char_traits@D@std@@V?$allocator@D@2@@std@@V?$allocator@V?$basic_string@DU?$char_traits@D@std@@V?$allocator@D@2@@std@@@2@@2@@std@@@std@@@std@@@std@@QEAA@AEBV01@@Z
	??0?$_Tree_iterator@V?$_Tree_val@U?$_Tree_simple_types@U?$pair@$$CBU?$pair@GG@std@@V?$vector@V?$basic_string@DU?$char_traits@D@std@@V?$allocator@D@2@@std@@V?$allocator@V?$basic_string@DU?$char_traits@D@std@@V?$allocator@D@2@@std@@@2@@2@@std@@@std@@@std@@@std@@QEAA@PEAU?$_Tree_node@U?$pair@$$CBU?$pair@GG@std@@V?$vector@V?$basic_string@DU?$char_traits@D@std@@V?$allocator@D@2@@std@@V?$allocator@V?$basic_string@DU?$char_traits@D@std@@V?$allocator@D@2@@std@@@2@@2@@std@@PEAX@1@PEBV?$_Tree_val@U?$_Tree_simple_types@U?$pair@$$CBU?$pair@GG@std@@V?$vector@V?$basic_string@DU?$char_traits@D@std@@V?$allocator@D@2@@std@@V?$allocator@V?$basic_string@DU?$char_traits@D@std@@V?$allocator@D@2@@std@@@2@@2@@std@@@std@@@1@@Z
	??0?$_Tree_iterator@V?$_Tree_val@U?$_Tree_simple_types@U?$pair@$$CBUDeviceSellectInfo@libeYs3D@@V?$shared_ptr@VCameraDevice@devices@libeYs3D@@@std@@@std@@@std@@@std@@@std@@QEAA@$$QEAV01@@Z
	??0?$_Tree_iterator@V?$_Tree_val@U?$_Tree_simple_types@U?$pair@$$CBUDeviceSellectInfo@libeYs3D@@V?$shared_ptr@VCameraDevice@devices@libeYs3D@@@std@@@std@@@std@@@std@@@std@@QEAA@AEBV01@@Z
	??0?$_Tree_iterator@V?$_Tree_val@U?$_Tree_simple_types@U?$pair@$$CBUDeviceSellectInfo@libeYs3D@@V?$shared_ptr@VCameraDevice@devices@libeYs3D@@@std@@@std@@@std@@@std@@@std@@QEAA@PEAU?$_Tree_node@U?$pair@$$CBUDeviceSellectInfo@libeYs3D@@V?$shared_ptr@VCameraDevice@devices@libeYs3D@@@std@@@std@@PEAX@1@PEBV?$_Tree_val@U?$_Tree_simple_types@U?$pair@$$CBUDeviceSellectInfo@libeYs3D@@V?$shared_ptr@VCameraDevice@devices@libeYs3D@@@std@@@std@@@std@@@1@@Z
	??0?$_Tree_iterator@V?$_Tree_val@U?$_Tree_simple_types@U?$pair@$$CBUDeviceSellectInfo@libeYs3D@@V?$shared_ptr@VCameraDevice@devices@libeYs3D@@@std@@@std@@@std@@@std@@@std@@QEAA@XZ
	??0?$_Tree_iterator@V?$_Tree_val@U?$_Tree_simple_types@U?$pair@$$CBW4IMUPacketSymbol@IMUData@@_K@std@@@std@@@std@@@std@@QEAA@$$QEAV01@@Z
	??0?$_Tree_iterator@V?$_Tree_val@U?$_Tree_simple_types@U?$pair@$$CBW4IMUPacketSymbol@IMUData@@_K@std@@@std@@@std@@@std@@QEAA@AEBV01@@Z
	??0?$_Tree_iterator@V?$_Tree_val@U?$_Tree_simple_types@U?$pair@$$CBW4IMUPacketSymbol@IMUData@@_K@std@@@std@@@std@@@std@@QEAA@PEAU?$_Tree_node@U?$pair@$$CBW4IMUPacketSymbol@IMUData@@_K@std@@PEAX@1@PEBV?$_Tree_val@U?$_Tree_simple_types@U?$pair@$$CBW4IMUPacketSymbol@IMUData@@_K@std@@@std@@@1@@Z
	??0?$_Tree_unchecked_const_iterator@V?$_Tree_val@U?$_Tree_simple_types@U?$pair@$$CBHH@std@@@std@@@std@@U_Iterator_base12@2@@std@@QEAA@$$QEAV01@@Z
	??0?$_Tree_unchecked_const_iterator@V?$_Tree_val@U?$_Tree_simple_types@U?$pair@$$CBHH@std@@@std@@@std@@U_Iterator_base12@2@@std@@QEAA@AEBV01@@Z
	??0?$_Tree_unchecked_const_iterator@V?$_Tree_val@U?$_Tree_simple_types@U?$pair@$$CBHH@std@@@std@@@std@@U_Iterator_base12@2@@std@@QEAA@PEAU?$_Tree_node@U?$pair@$$CBHH@std@@PEAX@1@PEBV?$_Tree_val@U?$_Tree_simple_types@U?$pair@$$CBHH@std@@@std@@@1@@Z
	??0?$_Tree_unchecked_const_iterator@V?$_Tree_val@U?$_Tree_simple_types@U?$pair@$$CBHUPID_TABLE@ModeConfig@@@std@@@std@@@std@@U_Iterator_base0@2@@std@@QEAA@PEAU?$_Tree_node@U?$pair@$$CBHUPID_TABLE@ModeConfig@@@std@@PEAX@1@PEBV?$_Tree_val@U?$_Tree_simple_types@U?$pair@$$CBHUPID_TABLE@ModeConfig@@@std@@@std@@@1@@Z
	??0?$_Tree_unchecked_const_iterator@V?$_Tree_val@U?$_Tree_simple_types@U?$pair@$$CBHUPID_TABLE@ModeConfig@@@std@@@std@@@std@@U_Iterator_base12@2@@std@@QEAA@$$QEAV01@@Z
	??0?$_Tree_unchecked_const_iterator@V?$_Tree_val@U?$_Tree_simple_types@U?$pair@$$CBHUPID_TABLE@ModeConfig@@@std@@@std@@@std@@U_Iterator_base12@2@@std@@QEAA@AEBV01@@Z
	??0?$_Tree_unchecked_const_iterator@V?$_Tree_val@U?$_Tree_simple_types@U?$pair@$$CBHUPID_TABLE@ModeConfig@@@std@@@std@@@std@@U_Iterator_base12@2@@std@@QEAA@PEAU?$_Tree_node@U?$pair@$$CBHUPID_TABLE@ModeConfig@@@std@@PEAX@1@PEBV?$_Tree_val@U?$_Tree_simple_types@U?$pair@$$CBHUPID_TABLE@ModeConfig@@@std@@@std@@@1@@Z
	??0?$_Tree_unchecked_const_iterator@V?$_Tree_val@U?$_Tree_simple_types@U?$pair@$$CBHUPID_TABLE@ModeConfig@@@std@@@std@@@std@@U_Iterator_base12@2@@std@@QEAA@XZ
	??0?$_Tree_unchecked_const_iterator@V?$_Tree_val@U?$_Tree_simple_types@U?$pair@$$CBU?$pair@GG@std@@V?$vector@V?$basic_string@DU?$char_traits@D@std@@V?$allocator@D@2@@std@@V?$allocator@V?$basic_string@DU?$char_traits@D@std@@V?$allocator@D@2@@std@@@2@@2@@std@@@std@@@std@@U_Iterator_base12@2@@std@@QEAA@$$QEAV01@@Z
	??0?$_Tree_unchecked_const_iterator@V?$_Tree_val@U?$_Tree_simple_types@U?$pair@$$CBU?$pair@GG@std@@V?$vector@V?$basic_string@DU?$char_traits@D@std@@V?$allocator@D@2@@std@@V?$allocator@V?$basic_string@DU?$char_traits@D@std@@V?$allocator@D@2@@std@@@2@@2@@std@@@std@@@std@@U_Iterator_base12@2@@std@@QEAA@AEBV01@@Z
	??0?$_Tree_unchecked_const_iterator@V?$_Tree_val@U?$_Tree_simple_types@U?$pair@$$CBU?$pair@GG@std@@V?$vector@V?$basic_string@DU?$char_traits@D@std@@V?$allocator@D@2@@std@@V?$allocator@V?$basic_string@DU?$char_traits@D@std@@V?$allocator@D@2@@std@@@2@@2@@std@@@std@@@std@@U_Iterator_base12@2@@std@@QEAA@PEAU?$_Tree_node@U?$pair@$$CBU?$pair@GG@std@@V?$vector@V?$basic_string@DU?$char_traits@D@std@@V?$allocator@D@2@@std@@V?$allocator@V?$basic_string@DU?$char_traits@D@std@@V?$allocator@D@2@@std@@@2@@2@@std@@PEAX@1@PEBV?$_Tree_val@U?$_Tree_simple_types@U?$pair@$$CBU?$pair@GG@std@@V?$vector@V?$basic_string@DU?$char_traits@D@std@@V?$allocator@D@2@@std@@V?$allocator@V?$basic_string@DU?$char_traits@D@std@@V?$allocator@D@2@@std@@@2@@2@@std@@@std@@@1@@Z
	??0?$_Tree_unchecked_const_iterator@V?$_Tree_val@U?$_Tree_simple_types@U?$pair@$$CBU?$pair@GG@std@@V?$vector@V?$basic_string@DU?$char_traits@D@std@@V?$allocator@D@2@@std@@V?$allocator@V?$basic_string@DU?$char_traits@D@std@@V?$allocator@D@2@@std@@@2@@2@@std@@@std@@@std@@U_Iterator_base12@2@@std@@QEAA@XZ
	??0?$_Tree_unchecked_const_iterator@V?$_Tree_val@U?$_Tree_simple_types@U?$pair@$$CBUDeviceSellectInfo@libeYs3D@@V?$shared_ptr@VCameraDevice@devices@libeYs3D@@@std@@@std@@@std@@@std@@U_Iterator_base12@2@@std@@QEAA@$$QEAV01@@Z
	??0?$_Tree_unchecked_const_iterator@V?$_Tree_val@U?$_Tree_simple_types@U?$pair@$$CBUDeviceSellectInfo@libeYs3D@@V?$shared_ptr@VCameraDevice@devices@libeYs3D@@@std@@@std@@@std@@@std@@U_Iterator_base12@2@@std@@QEAA@AEBV01@@Z
	??0?$_Tree_unchecked_const_iterator@V?$_Tree_val@U?$_Tree_simple_types@U?$pair@$$CBUDeviceSellectInfo@libeYs3D@@V?$shared_ptr@VCameraDevice@devices@libeYs3D@@@std@@@std@@@std@@@std@@U_Iterator_base12@2@@std@@QEAA@PEAU?$_Tree_node@U?$pair@$$CBUDeviceSellectInfo@libeYs3D@@V?$shared_ptr@VCameraDevice@devices@libeYs3D@@@std@@@std@@PEAX@1@PEBV?$_Tree_val@U?$_Tree_simple_types@U?$pair@$$CBUDeviceSellectInfo@libeYs3D@@V?$shared_ptr@VCameraDevice@devices@libeYs3D@@@std@@@std@@@std@@@1@@Z
	??0?$_Tree_unchecked_const_iterator@V?$_Tree_val@U?$_Tree_simple_types@U?$pair@$$CBUDeviceSellectInfo@libeYs3D@@V?$shared_ptr@VCameraDevice@devices@libeYs3D@@@std@@@std@@@std@@@std@@U_Iterator_base12@2@@std@@QEAA@XZ
	??0?$_Tree_unchecked_const_iterator@V?$_Tree_val@U?$_Tree_simple_types@U?$pair@$$CBW4IMUPacketSymbol@IMUData@@_K@std@@@std@@@std@@U_Iterator_base12@2@@std@@QEAA@$$QEAV01@@Z
	??0?$_Tree_unchecked_const_iterator@V?$_Tree_val@U?$_Tree_simple_types@U?$pair@$$CBW4IMUPacketSymbol@IMUData@@_K@std@@@std@@@std@@U_Iterator_base12@2@@std@@QEAA@AEBV01@@Z
	??0?$_Tree_unchecked_const_iterator@V?$_Tree_val@U?$_Tree_simple_types@U?$pair@$$CBW4IMUPacketSymbol@IMUData@@_K@std@@@std@@@std@@U_Iterator_base12@2@@std@@QEAA@PEAU?$_Tree_node@U?$pair@$$CBW4IMUPacketSymbol@IMUData@@_K@std@@PEAX@1@PEBV?$_Tree_val@U?$_Tree_simple_types@U?$pair@$$CBW4IMUPacketSymbol@IMUData@@_K@std@@@std@@@1@@Z
	??0?$_Tree_unchecked_const_iterator@V?$_Tree_val@U?$_Tree_simple_types@U?$pair@$$CBW4IMUPacketSymbol@IMUData@@_K@std@@@std@@@std@@U_Iterator_base12@2@@std@@QEAA@XZ
	??0?$_Tree_unchecked_iterator@V?$_Tree_val@U?$_Tree_simple_types@U?$pair@$$CBHUPID_TABLE@ModeConfig@@@std@@@std@@@std@@@std@@QEAA@PEAU?$_Tree_node@U?$pair@$$CBHUPID_TABLE@ModeConfig@@@std@@PEAX@1@PEBV?$_Tree_val@U?$_Tree_simple_types@U?$pair@$$CBHUPID_TABLE@ModeConfig@@@std@@@std@@@1@@Z
	??0?$_Tree_val@U?$_Tree_simple_types@U?$pair@$$CBHH@std@@@std@@@std@@QEAA@XZ
	??0?$_Tree_val@U?$_Tree_simple_types@U?$pair@$$CBHUPID_TABLE@ModeConfig@@@std@@@std@@@std@@QEAA@XZ
	??0?$_Tree_val@U?$_Tree_simple_types@U?$pair@$$CBU?$pair@GG@std@@V?$vector@V?$basic_string@DU?$char_traits@D@std@@V?$allocator@D@2@@std@@V?$allocator@V?$basic_string@DU?$char_traits@D@std@@V?$allocator@D@2@@std@@@2@@2@@std@@@std@@@std@@QEAA@XZ
	??0?$_Tree_val@U?$_Tree_simple_types@U?$pair@$$CBUDeviceSellectInfo@libeYs3D@@V?$shared_ptr@VCameraDevice@devices@libeYs3D@@@std@@@std@@@std@@@std@@QEAA@XZ
	??0?$_Tree_val@U?$_Tree_simple_types@U?$pair@$$CBW4IMUPacketSymbol@IMUData@@_K@std@@@std@@@std@@QEAA@XZ
	??0?$_Uninitialized_backout_al@PEAFV?$allocator@F@std@@@std@@QEAA@PEAFAEAV?$allocator@F@1@@Z
	??0?$_Uninitialized_backout_al@PEAGV?$allocator@G@std@@@std@@QEAA@PEAGAEAV?$allocator@G@1@@Z
	??0?$_Uninitialized_backout_al@PEAMV?$allocator@M@std@@@std@@QEAA@PEAMAEAV?$allocator@M@1@@Z
	??0?$_Uninitialized_backout_al@PEAUCommand@?$WorkerThread@V?$Optional@VCallbackWorkItem@sensors@libeYs3D@@@base@libeYs3D@@@base@libeYs3D@@V?$allocator@UCommand@?$WorkerThread@V?$Optional@VCallbackWorkItem@sensors@libeYs3D@@@base@libeYs3D@@@base@libeYs3D@@@std@@@std@@QEAA@PEAUCommand@?$WorkerThread@V?$Optional@VCallbackWorkItem@sensors@libeYs3D@@@base@libeYs3D@@@base@libeYs3D@@AEAV?$allocator@UCommand@?$WorkerThread@V?$Optional@VCallbackWorkItem@sensors@libeYs3D@@@base@libeYs3D@@@base@libeYs3D@@@1@@Z
	??0?$_Uninitialized_backout_al@PEAUCommand@?$WorkerThread@V?$Optional@VCallbackWorkItem@video@libeYs3D@@@base@libeYs3D@@@base@libeYs3D@@V?$allocator@UCommand@?$WorkerThread@V?$Optional@VCallbackWorkItem@video@libeYs3D@@@base@libeYs3D@@@base@libeYs3D@@@std@@@std@@QEAA@PEAUCommand@?$WorkerThread@V?$Optional@VCallbackWorkItem@video@libeYs3D@@@base@libeYs3D@@@base@libeYs3D@@AEAV?$allocator@UCommand@?$WorkerThread@V?$Optional@VCallbackWorkItem@video@libeYs3D@@@base@libeYs3D@@@base@libeYs3D@@@1@@Z
	??0?$_Uninitialized_backout_al@PEAUCommand@?$WorkerThread@V?$Optional@VDACalculateWorkItem@video@libeYs3D@@@base@libeYs3D@@@base@libeYs3D@@V?$allocator@UCommand@?$WorkerThread@V?$Optional@VDACalculateWorkItem@video@libeYs3D@@@base@libeYs3D@@@base@libeYs3D@@@std@@@std@@QEAA@PEAUCommand@?$WorkerThread@V?$Optional@VDACalculateWorkItem@video@libeYs3D@@@base@libeYs3D@@@base@libeYs3D@@AEAV?$allocator@UCommand@?$WorkerThread@V?$Optional@VDACalculateWorkItem@video@libeYs3D@@@base@libeYs3D@@@base@libeYs3D@@@1@@Z
	??0?$_Uninitialized_backout_al@PEAUMODE_CONFIG@ModeConfig@@V?$allocator@UMODE_CONFIG@ModeConfig@@@std@@@std@@QEAA@PEAUMODE_CONFIG@ModeConfig@@AEAV?$allocator@UMODE_CONFIG@ModeConfig@@@1@@Z
	??0?$_Uninitialized_backout_al@PEAUSensorData@sensors@libeYs3D@@V?$allocator@USensorData@sensors@libeYs3D@@@std@@@std@@QEAA@PEAUSensorData@sensors@libeYs3D@@AEAV?$allocator@USensorData@sensors@libeYs3D@@@1@@Z
	??0?$_Uninitialized_backout_al@PEAUtagAPC_STREAM_INFO@@V?$allocator@UtagAPC_STREAM_INFO@@@std@@@std@@QEAA@PEAUtagAPC_STREAM_INFO@@AEAV?$allocator@UtagAPC_STREAM_INFO@@@1@@Z
	??0?$_Uninitialized_backout_al@PEAV?$Optional@V?$WorkerThread@V?$Optional@VCallbackWorkItem@sensors@libeYs3D@@@base@libeYs3D@@@base@libeYs3D@@@base@libeYs3D@@V?$allocator@V?$Optional@V?$WorkerThread@V?$Optional@VCallbackWorkItem@sensors@libeYs3D@@@base@libeYs3D@@@base@libeYs3D@@@base@libeYs3D@@@std@@@std@@QEAA@PEAV?$Optional@V?$WorkerThread@V?$Optional@VCallbackWorkItem@sensors@libeYs3D@@@base@libeYs3D@@@base@libeYs3D@@@base@libeYs3D@@AEAV?$allocator@V?$Optional@V?$WorkerThread@V?$Optional@VCallbackWorkItem@sensors@libeYs3D@@@base@libeYs3D@@@base@libeYs3D@@@base@libeYs3D@@@1@@Z
	??0?$_Uninitialized_backout_al@PEAV?$Optional@V?$WorkerThread@V?$Optional@VCallbackWorkItem@video@libeYs3D@@@base@libeYs3D@@@base@libeYs3D@@@base@libeYs3D@@V?$allocator@V?$Optional@V?$WorkerThread@V?$Optional@VCallbackWorkItem@video@libeYs3D@@@base@libeYs3D@@@base@libeYs3D@@@base@libeYs3D@@@std@@@std@@QEAA@PEAV?$Optional@V?$WorkerThread@V?$Optional@VCallbackWorkItem@video@libeYs3D@@@base@libeYs3D@@@base@libeYs3D@@@base@libeYs3D@@AEAV?$allocator@V?$Optional@V?$WorkerThread@V?$Optional@VCallbackWorkItem@video@libeYs3D@@@base@libeYs3D@@@base@libeYs3D@@@base@libeYs3D@@@1@@Z
	??0?$_Uninitialized_backout_al@PEAV?$Optional@V?$WorkerThread@V?$Optional@VDACalculateWorkItem@video@libeYs3D@@@base@libeYs3D@@@base@libeYs3D@@@base@libeYs3D@@V?$allocator@V?$Optional@V?$WorkerThread@V?$Optional@VDACalculateWorkItem@video@libeYs3D@@@base@libeYs3D@@@base@libeYs3D@@@base@libeYs3D@@@std@@@std@@QEAA@PEAV?$Optional@V?$WorkerThread@V?$Optional@VDACalculateWorkItem@video@libeYs3D@@@base@libeYs3D@@@base@libeYs3D@@@base@libeYs3D@@AEAV?$allocator@V?$Optional@V?$WorkerThread@V?$Optional@VDACalculateWorkItem@video@libeYs3D@@@base@libeYs3D@@@base@libeYs3D@@@base@libeYs3D@@@1@@Z
	??0?$_Uninitialized_backout_al@PEAV?$basic_string@DU?$char_traits@D@std@@V?$allocator@D@2@@std@@V?$allocator@V?$basic_string@DU?$char_traits@D@std@@V?$allocator@D@2@@std@@@2@@std@@QEAA@PEAV?$basic_string@DU?$char_traits@D@std@@V?$allocator@D@2@@1@AEAV?$allocator@V?$basic_string@DU?$char_traits@D@std@@V?$allocator@D@2@@std@@@1@@Z
	??0?$_Vector_alloc@U?$_Vec_base_types@EV?$allocator@E@std@@@std@@@std@@QEAA@XZ
	??0?$_Vector_alloc@U?$_Vec_base_types@FV?$allocator@F@std@@@std@@@std@@QEAA@XZ
	??0?$_Vector_alloc@U?$_Vec_base_types@GV?$allocator@G@std@@@std@@@std@@QEAA@XZ
	??0?$_Vector_alloc@U?$_Vec_base_types@HV?$allocator@H@std@@@std@@@std@@QEAA@XZ
	??0?$_Vector_alloc@U?$_Vec_base_types@MV?$allocator@M@std@@@std@@@std@@QEAA@XZ
	??0?$_Vector_alloc@U?$_Vec_base_types@UCloudPoint@@V?$allocator@UCloudPoint@@@std@@@std@@@std@@QEAA@XZ
	??0?$_Vector_alloc@U?$_Vec_base_types@UCommand@?$WorkerThread@V?$Optional@VCallbackWorkItem@sensors@libeYs3D@@@base@libeYs3D@@@base@libeYs3D@@V?$allocator@UCommand@?$WorkerThread@V?$Optional@VCallbackWorkItem@sensors@libeYs3D@@@base@libeYs3D@@@base@libeYs3D@@@std@@@std@@@std@@QEAA@XZ
	??0?$_Vector_alloc@U?$_Vec_base_types@UCommand@?$WorkerThread@V?$Optional@VCallbackWorkItem@video@libeYs3D@@@base@libeYs3D@@@base@libeYs3D@@V?$allocator@UCommand@?$WorkerThread@V?$Optional@VCallbackWorkItem@video@libeYs3D@@@base@libeYs3D@@@base@libeYs3D@@@std@@@std@@@std@@QEAA@XZ
	??0?$_Vector_alloc@U?$_Vec_base_types@UCommand@?$WorkerThread@V?$Optional@VDACalculateWorkItem@video@libeYs3D@@@base@libeYs3D@@@base@libeYs3D@@V?$allocator@UCommand@?$WorkerThread@V?$Optional@VDACalculateWorkItem@video@libeYs3D@@@base@libeYs3D@@@base@libeYs3D@@@std@@@std@@@std@@QEAA@XZ
	??0?$_Vector_alloc@U?$_Vec_base_types@UMODE_CONFIG@ModeConfig@@V?$allocator@UMODE_CONFIG@ModeConfig@@@std@@@std@@@std@@QEAA@XZ
	??0?$_Vector_alloc@U?$_Vec_base_types@UtagAPC_STREAM_INFO@@V?$allocator@UtagAPC_STREAM_INFO@@@std@@@std@@@std@@QEAA@XZ
	??0?$_Vector_alloc@U?$_Vec_base_types@V?$Optional@V?$WorkerThread@V?$Optional@VCallbackWorkItem@sensors@libeYs3D@@@base@libeYs3D@@@base@libeYs3D@@@base@libeYs3D@@V?$allocator@V?$Optional@V?$WorkerThread@V?$Optional@VCallbackWorkItem@sensors@libeYs3D@@@base@libeYs3D@@@base@libeYs3D@@@base@libeYs3D@@@std@@@std@@@std@@QEAA@XZ
	??0?$_Vector_alloc@U?$_Vec_base_types@V?$Optional@V?$WorkerThread@V?$Optional@VCallbackWorkItem@video@libeYs3D@@@base@libeYs3D@@@base@libeYs3D@@@base@libeYs3D@@V?$allocator@V?$Optional@V?$WorkerThread@V?$Optional@VCallbackWorkItem@video@libeYs3D@@@base@libeYs3D@@@base@libeYs3D@@@base@libeYs3D@@@std@@@std@@@std@@QEAA@XZ
	??0?$_Vector_alloc@U?$_Vec_base_types@V?$Optional@V?$WorkerThread@V?$Optional@VDACalculateWorkItem@video@libeYs3D@@@base@libeYs3D@@@base@libeYs3D@@@base@libeYs3D@@V?$allocator@V?$Optional@V?$WorkerThread@V?$Optional@VDACalculateWorkItem@video@libeYs3D@@@base@libeYs3D@@@base@libeYs3D@@@base@libeYs3D@@@std@@@std@@@std@@QEAA@XZ
	??0?$_Vector_alloc@U?$_Vec_base_types@V?$basic_string@DU?$char_traits@D@std@@V?$allocator@D@2@@std@@V?$allocator@V?$basic_string@DU?$char_traits@D@std@@V?$allocator@D@2@@std@@@2@@std@@@std@@QEAA@XZ
	??0?$_Vector_alloc@U?$_Vec_base_types@W4IMU_DATA_FORMAT@IMUDevice@devices@libeYs3D@@V?$allocator@W4IMU_DATA_FORMAT@IMUDevice@devices@libeYs3D@@@std@@@std@@@std@@QEAA@XZ
	??0?$_Vector_const_iterator@V?$_Vector_val@U?$_Simple_types@E@std@@@std@@@std@@QEAA@$$QEAV01@@Z
	??0?$_Vector_const_iterator@V?$_Vector_val@U?$_Simple_types@E@std@@@std@@@std@@QEAA@AEBV01@@Z
	??0?$_Vector_const_iterator@V?$_Vector_val@U?$_Simple_types@E@std@@@std@@@std@@QEAA@PEAEPEBU_Container_base12@1@@Z
	??0?$_Vector_const_iterator@V?$_Vector_val@U?$_Simple_types@M@std@@@std@@@std@@QEAA@AEBV01@@Z
	??0?$_Vector_const_iterator@V?$_Vector_val@U?$_Simple_types@M@std@@@std@@@std@@QEAA@PEAMPEBU_Container_base12@1@@Z
	??0?$_Vector_const_iterator@V?$_Vector_val@U?$_Simple_types@UCloudPoint@@@std@@@std@@@std@@QEAA@AEBV01@@Z
	??0?$_Vector_const_iterator@V?$_Vector_val@U?$_Simple_types@UCloudPoint@@@std@@@std@@@std@@QEAA@PEAUCloudPoint@@PEBU_Container_base12@1@@Z
	??0?$_Vector_const_iterator@V?$_Vector_val@U?$_Simple_types@UtagAPC_STREAM_INFO@@@std@@@std@@@std@@QEAA@$$QEAV01@@Z
	??0?$_Vector_const_iterator@V?$_Vector_val@U?$_Simple_types@UtagAPC_STREAM_INFO@@@std@@@std@@@std@@QEAA@AEBV01@@Z
	??0?$_Vector_const_iterator@V?$_Vector_val@U?$_Simple_types@UtagAPC_STREAM_INFO@@@std@@@std@@@std@@QEAA@PEAUtagAPC_STREAM_INFO@@PEBU_Container_base12@1@@Z
	??0?$_Vector_iterator@V?$_Vector_val@U?$_Simple_types@E@std@@@std@@@std@@QEAA@PEAEPEBU_Container_base12@1@@Z
	??0?$_Vector_iterator@V?$_Vector_val@U?$_Simple_types@M@std@@@std@@@std@@QEAA@AEBV01@@Z
	??0?$_Vector_iterator@V?$_Vector_val@U?$_Simple_types@M@std@@@std@@@std@@QEAA@PEAMPEBU_Container_base12@1@@Z
	??0?$_Vector_iterator@V?$_Vector_val@U?$_Simple_types@UCloudPoint@@@std@@@std@@@std@@QEAA@AEBV01@@Z
	??0?$_Vector_iterator@V?$_Vector_val@U?$_Simple_types@UCloudPoint@@@std@@@std@@@std@@QEAA@PEAUCloudPoint@@PEBU_Container_base12@1@@Z
	??0?$_Vector_iterator@V?$_Vector_val@U?$_Simple_types@UtagAPC_STREAM_INFO@@@std@@@std@@@std@@QEAA@PEAUtagAPC_STREAM_INFO@@PEBU_Container_base12@1@@Z
	??0?$_Vector_val@U?$_Simple_types@E@std@@@std@@QEAA@XZ
	??0?$_Vector_val@U?$_Simple_types@F@std@@@std@@QEAA@XZ
	??0?$_Vector_val@U?$_Simple_types@G@std@@@std@@QEAA@XZ
	??0?$_Vector_val@U?$_Simple_types@H@std@@@std@@QEAA@XZ
	??0?$_Vector_val@U?$_Simple_types@M@std@@@std@@QEAA@XZ
	??0?$_Vector_val@U?$_Simple_types@UCloudPoint@@@std@@@std@@QEAA@XZ
	??0?$_Vector_val@U?$_Simple_types@UCommand@?$WorkerThread@V?$Optional@VCallbackWorkItem@sensors@libeYs3D@@@base@libeYs3D@@@base@libeYs3D@@@std@@@std@@QEAA@XZ
	??0?$_Vector_val@U?$_Simple_types@UCommand@?$WorkerThread@V?$Optional@VCallbackWorkItem@video@libeYs3D@@@base@libeYs3D@@@base@libeYs3D@@@std@@@std@@QEAA@XZ
	??0?$_Vector_val@U?$_Simple_types@UCommand@?$WorkerThread@V?$Optional@VDACalculateWorkItem@video@libeYs3D@@@base@libeYs3D@@@base@libeYs3D@@@std@@@std@@QEAA@XZ
	??0?$_Vector_val@U?$_Simple_types@UMODE_CONFIG@ModeConfig@@@std@@@std@@QEAA@XZ
	??0?$_Vector_val@U?$_Simple_types@USensorData@sensors@libeYs3D@@@std@@@std@@QEAA@XZ
	??0?$_Vector_val@U?$_Simple_types@UtagAPC_STREAM_INFO@@@std@@@std@@QEAA@XZ
	??0?$_Vector_val@U?$_Simple_types@V?$Optional@V?$WorkerThread@V?$Optional@VCallbackWorkItem@sensors@libeYs3D@@@base@libeYs3D@@@base@libeYs3D@@@base@libeYs3D@@@std@@@std@@QEAA@XZ
	??0?$_Vector_val@U?$_Simple_types@V?$Optional@V?$WorkerThread@V?$Optional@VCallbackWorkItem@video@libeYs3D@@@base@libeYs3D@@@base@libeYs3D@@@base@libeYs3D@@@std@@@std@@QEAA@XZ
	??0?$_Vector_val@U?$_Simple_types@V?$Optional@V?$WorkerThread@V?$Optional@VDACalculateWorkItem@video@libeYs3D@@@base@libeYs3D@@@base@libeYs3D@@@base@libeYs3D@@@std@@@std@@QEAA@XZ
	??0?$_Vector_val@U?$_Simple_types@V?$basic_string@DU?$char_traits@D@std@@V?$allocator@D@2@@std@@@std@@@std@@QEAA@XZ
	??0?$_Vector_val@U?$_Simple_types@W4IMU_DATA_FORMAT@IMUDevice@devices@libeYs3D@@@std@@@std@@QEAA@XZ
	??0?$allocator@D@std@@QEAA@XZ
	??0?$allocator@E@std@@QEAA@XZ
	??0?$allocator@F@std@@QEAA@XZ
	??0?$allocator@G@std@@QEAA@XZ
	??0?$allocator@H@std@@QEAA@XZ
	??0?$allocator@M@std@@QEAA@XZ
	??0?$allocator@U?$_Tree_node@U?$pair@$$CBHH@std@@PEAX@std@@@std@@QEAA@XZ
	??0?$allocator@U?$_Tree_node@U?$pair@$$CBHUPID_TABLE@ModeConfig@@@std@@PEAX@std@@@std@@QEAA@XZ
	??0?$allocator@U?$_Tree_node@U?$pair@$$CBU?$pair@GG@std@@V?$vector@V?$basic_string@DU?$char_traits@D@std@@V?$allocator@D@2@@std@@V?$allocator@V?$basic_string@DU?$char_traits@D@std@@V?$allocator@D@2@@std@@@2@@2@@std@@PEAX@std@@@std@@QEAA@XZ
	??0?$allocator@U?$_Tree_node@U?$pair@$$CBUDeviceSellectInfo@libeYs3D@@V?$shared_ptr@VCameraDevice@devices@libeYs3D@@@std@@@std@@PEAX@std@@@std@@QEAA@XZ
	??0?$allocator@U?$_Tree_node@U?$pair@$$CBW4IMUPacketSymbol@IMUData@@_K@std@@PEAX@std@@@std@@QEAA@XZ
	??0?$allocator@UCloudPoint@@@std@@QEAA@XZ
	??0?$allocator@UCommand@?$WorkerThread@V?$Optional@VCallbackWorkItem@sensors@libeYs3D@@@base@libeYs3D@@@base@libeYs3D@@@std@@QEAA@XZ
	??0?$allocator@UCommand@?$WorkerThread@V?$Optional@VCallbackWorkItem@video@libeYs3D@@@base@libeYs3D@@@base@libeYs3D@@@std@@QEAA@XZ
	??0?$allocator@UCommand@?$WorkerThread@V?$Optional@VDACalculateWorkItem@video@libeYs3D@@@base@libeYs3D@@@base@libeYs3D@@@std@@QEAA@XZ
	??0?$allocator@UMODE_CONFIG@ModeConfig@@@std@@QEAA@XZ
	??0?$allocator@USensorData@sensors@libeYs3D@@@std@@QEAA@XZ
	??0?$allocator@UtagAPC_STREAM_INFO@@@std@@QEAA@XZ
	??0?$allocator@V?$Optional@V?$WorkerThread@V?$Optional@VCallbackWorkItem@sensors@libeYs3D@@@base@libeYs3D@@@base@libeYs3D@@@base@libeYs3D@@@std@@QEAA@XZ
	??0?$allocator@V?$Optional@V?$WorkerThread@V?$Optional@VCallbackWorkItem@video@libeYs3D@@@base@libeYs3D@@@base@libeYs3D@@@base@libeYs3D@@@std@@QEAA@XZ
	??0?$allocator@V?$Optional@V?$WorkerThread@V?$Optional@VDACalculateWorkItem@video@libeYs3D@@@base@libeYs3D@@@base@libeYs3D@@@base@libeYs3D@@@std@@QEAA@XZ
	??0?$allocator@V?$basic_string@DU?$char_traits@D@std@@V?$allocator@D@2@@std@@@std@@QEAA@XZ
	??0?$allocator@V?$vector@FV?$allocator@F@std@@@std@@@std@@QEAA@XZ
	??0?$allocator@W4IMU_DATA_FORMAT@IMUDevice@devices@libeYs3D@@@std@@QEAA@XZ
	??0?$atomic@H@std@@QEAA@H@Z
	??0?$basic_filebuf@DU?$char_traits@D@std@@@std@@QEAA@PEAU_iobuf@@@Z
	??0?$basic_ifstream@DU?$char_traits@D@std@@@std@@QEAA@PEBDHH@Z
	??0?$basic_ofstream@DU?$char_traits@D@std@@@std@@QEAA@XZ
	??0?$basic_ostringstream@DU?$char_traits@D@std@@V?$allocator@D@2@@std@@QEAA@H@Z
	??0?$basic_string@DU?$char_traits@D@std@@V?$allocator@D@2@@std@@QEAA@$$QEAV01@@Z
	??0?$basic_string@DU?$char_traits@D@std@@V?$allocator@D@2@@std@@QEAA@AEBV01@@Z
	??0?$basic_string@DU?$char_traits@D@std@@V?$allocator@D@2@@std@@QEAA@AEBV?$allocator@D@1@@Z
	??0?$basic_string@DU?$char_traits@D@std@@V?$allocator@D@2@@std@@QEAA@QEBD@Z
	??0?$basic_string@DU?$char_traits@D@std@@V?$allocator@D@2@@std@@QEAA@XZ
	??0?$basic_stringbuf@DU?$char_traits@D@std@@V?$allocator@D@2@@std@@QEAA@AEBV?$basic_string@DU?$char_traits@D@std@@V?$allocator@D@2@@1@H@Z
	??0?$basic_stringbuf@DU?$char_traits@D@std@@V?$allocator@D@2@@std@@QEAA@H@Z
	??0?$basic_stringstream@DU?$char_traits@D@std@@V?$allocator@D@2@@std@@QEAA@AEBV?$basic_string@DU?$char_traits@D@std@@V?$allocator@D@2@@1@H@Z
	??0?$basic_stringstream@DU?$char_traits@D@std@@V?$allocator@D@2@@std@@QEAA@H@Z
	??0?$fpos@U_Mbstatet@@@std@@QEAA@U_Mbstatet@@_J@Z
	??0?$fpos@U_Mbstatet@@@std@@QEAA@_J@Z
	??0?$function@$$A6A?AW4WorkerProcessingResult@base@libeYs3D@@$$QEAV?$Optional@VCallbackWorkItem@sensors@libeYs3D@@@23@@Z@std@@QEAA@$$QEAV01@@Z
	??0?$function@$$A6A?AW4WorkerProcessingResult@base@libeYs3D@@$$QEAV?$Optional@VCallbackWorkItem@video@libeYs3D@@@23@@Z@std@@QEAA@$$QEAV01@@Z
	??0?$function@$$A6A?AW4WorkerProcessingResult@base@libeYs3D@@$$QEAV?$Optional@VDACalculateWorkItem@video@libeYs3D@@@23@@Z@std@@QEAA@$$QEAV01@@Z
	??0?$function@$$A6AX$$QEAVCallbackWorkItem@sensors@libeYs3D@@@Z@std@@QEAA@$$QEAV01@@Z
	??0?$function@$$A6AX$$QEAVCallbackWorkItem@video@libeYs3D@@@Z@std@@QEAA@$$QEAV01@@Z
	??0?$function@$$A6AX$$QEAVDACalculateWorkItem@video@libeYs3D@@@Z@std@@QEAA@$$QEAV01@@Z
	??0?$function@$$A6AXPEAVFrame@video@libeYs3D@@@Z@std@@QEAA@AEBV01@@Z
	??0?$function@$$A6AXPEAVFrame@video@libeYs3D@@@Z@std@@QEAA@XZ
	??0?$function@$$A6A_JXZ@std@@QEAA@$$QEAV01@@Z
	??0?$function@$$A6A_JXZ@std@@QEAA@AEBV01@@Z
	??0?$function@$$A6A_NPEBUSensorData@sensors@libeYs3D@@@Z@std@@QEAA@$$T@Z
	??0?$function@$$A6A_NPEBUSensorData@sensors@libeYs3D@@@Z@std@@QEAA@AEBV01@@Z
	??0?$function@$$A6A_NPEBUSensorData@sensors@libeYs3D@@@Z@std@@QEAA@XZ
	??0?$function@$$A6A_NPEBUSensorDataSet@sensors@libeYs3D@@@Z@std@@QEAA@$$QEAV01@@Z
	??0?$function@$$A6A_NPEBUSensorDataSet@sensors@libeYs3D@@@Z@std@@QEAA@$$T@Z
	??0?$function@$$A6A_NPEBUSensorDataSet@sensors@libeYs3D@@@Z@std@@QEAA@AEBV01@@Z
	??0?$function@$$A6A_NPEBUSensorDataSet@sensors@libeYs3D@@@Z@std@@QEAA@XZ
	??0?$function@$$A6A_NPEBVFrame@video@libeYs3D@@@Z@std@@QEAA@AEBV01@@Z
	??0?$function@$$A6A_NPEBVFrame@video@libeYs3D@@@Z@std@@QEAA@XZ
	??0?$function@$$A6A_NPEBVPCFrame@video@libeYs3D@@@Z@std@@QEAA@AEBV01@@Z
	??0?$function@$$A6A_NPEBVPCFrame@video@libeYs3D@@@Z@std@@QEAA@XZ
	??0?$initializer_list@U?$pair@$$CBW4IMUPacketSymbol@IMUData@@_K@std@@@std@@QEAA@PEBU?$pair@$$CBW4IMUPacketSymbol@IMUData@@_K@1@0@Z
	??0?$initializer_list@W4IMU_DATA_FORMAT@IMUDevice@devices@libeYs3D@@@std@@QEAA@PEBW4IMU_DATA_FORMAT@IMUDevice@devices@libeYs3D@@0@Z
	??0?$list@V?$vector@FV?$allocator@F@std@@@std@@V?$allocator@V?$vector@FV?$allocator@F@std@@@std@@@2@@std@@QEAA@_KAEBV?$allocator@V?$vector@FV?$allocator@F@std@@@std@@@1@@Z
	??0?$map@HHU?$less@H@std@@V?$allocator@U?$pair@$$CBHH@std@@@2@@std@@QEAA@XZ
	??0?$map@HUPID_TABLE@ModeConfig@@U?$less@H@std@@V?$allocator@U?$pair@$$CBHUPID_TABLE@ModeConfig@@@std@@@4@@std@@QEAA@XZ
	??0?$map@U?$pair@GG@std@@V?$vector@V?$basic_string@DU?$char_traits@D@std@@V?$allocator@D@2@@std@@V?$allocator@V?$basic_string@DU?$char_traits@D@std@@V?$allocator@D@2@@std@@@2@@2@U?$less@U?$pair@GG@std@@@2@V?$allocator@U?$pair@$$CBU?$pair@GG@std@@V?$vector@V?$basic_string@DU?$char_traits@D@std@@V?$allocator@D@2@@std@@V?$allocator@V?$basic_string@DU?$char_traits@D@std@@V?$allocator@D@2@@std@@@2@@2@@std@@@2@@std@@QEAA@XZ
	??0?$map@UDeviceSellectInfo@libeYs3D@@V?$shared_ptr@VCameraDevice@devices@libeYs3D@@@std@@U?$less@UDeviceSellectInfo@libeYs3D@@@4@V?$allocator@U?$pair@$$CBUDeviceSellectInfo@libeYs3D@@V?$shared_ptr@VCameraDevice@devices@libeYs3D@@@std@@@std@@@4@@std@@QEAA@XZ
	??0?$map@W4IMUPacketSymbol@IMUData@@_KU?$less@W4IMUPacketSymbol@IMUData@@@std@@V?$allocator@U?$pair@$$CBW4IMUPacketSymbol@IMUData@@_K@std@@@4@@std@@QEAA@V?$initializer_list@U?$pair@$$CBW4IMUPacketSymbol@IMUData@@_K@std@@@1@@Z
	??0?$reverse_iterator@V?$_List_iterator@V?$_List_val@U?$_List_simple_types@V?$vector@FV?$allocator@F@std@@@std@@@std@@@std@@@std@@@std@@QEAA@V?$_List_iterator@V?$_List_val@U?$_List_simple_types@V?$vector@FV?$allocator@F@std@@@std@@@std@@@std@@@1@@Z
	??0?$shared_ptr@VCameraDevice@devices@libeYs3D@@@std@@QEAA@$$T@Z
	??0?$shared_ptr@VCameraDevice@devices@libeYs3D@@@std@@QEAA@AEBV01@@Z
	??0?$shared_ptr@VCameraDevice@devices@libeYs3D@@@std@@QEAA@XZ
	??0?$shared_ptr@VEYS3DSystem@libeYs3D@@@std@@QEAA@$$T@Z
	??0?$shared_ptr@VEYS3DSystem@libeYs3D@@@std@@QEAA@AEBV01@@Z
	??0?$shared_ptr@VFrameSetPipeline@devices@libeYs3D@@@std@@QEAA@$$QEAV01@@Z
	??0?$shared_ptr@VFrameSetPipeline@devices@libeYs3D@@@std@@QEAA@$$T@Z
	??0?$shared_ptr@VFrameSetPipeline@devices@libeYs3D@@@std@@QEAA@AEBV01@@Z
	??0?$shared_ptr@VPipeline@devices@libeYs3D@@@std@@QEAA@$$QEAV01@@Z
	??0?$shared_ptr@VPipeline@devices@libeYs3D@@@std@@QEAA@$$T@Z
	??0?$shared_ptr@VPipeline@devices@libeYs3D@@@std@@QEAA@AEBV01@@Z
	??0?$tuple@$$QEAW4IMUPacketSymbol@IMUData@@@std@@QEAA@$$QEAV01@@Z
	??0?$tuple@$$V@std@@QEAA@AEBV01@@Z
	??0?$tuple@$$V@std@@QEAA@XZ
	??0?$tuple@AEBH@std@@QEAA@$$QEAV01@@Z
	??0?$tuple@AEBU?$pair@GG@std@@@std@@QEAA@$$QEAV01@@Z
	??0?$tuple@AEBUDeviceSellectInfo@libeYs3D@@@std@@QEAA@$$QEAV01@@Z
	??0?$tuple@PEAVDepthFrameProducer@video@libeYs3D@@U?$_Ph@$00@std@@@std@@QEAA@$$QEAV01@@Z
	??0?$tuple@PEAVDepthFrameProducer@video@libeYs3D@@U?$_Ph@$00@std@@@std@@QEAA@AEBV01@@Z
	??0?$tuple@PEAVFrameProducer@video@libeYs3D@@U?$_Ph@$00@std@@@std@@QEAA@$$QEAV01@@Z
	??0?$tuple@PEAVFrameProducer@video@libeYs3D@@U?$_Ph@$00@std@@@std@@QEAA@AEBV01@@Z
	??0?$tuple@PEAVFrameSetPipeline@devices@libeYs3D@@U?$_Ph@$00@std@@@std@@QEAA@$$QEAV01@@Z
	??0?$tuple@PEAVFrameSetPipeline@devices@libeYs3D@@U?$_Ph@$00@std@@@std@@QEAA@AEBV01@@Z
	??0?$tuple@PEAVPCFrameProducer@video@libeYs3D@@U?$_Ph@$00@std@@@std@@QEAA@$$QEAV01@@Z
	??0?$tuple@PEAVPCFrameProducer@video@libeYs3D@@U?$_Ph@$00@std@@@std@@QEAA@AEBV01@@Z
	??0?$tuple@PEAVPipeline@devices@libeYs3D@@U?$_Ph@$00@std@@@std@@QEAA@$$QEAV01@@Z
	??0?$tuple@PEAVPipeline@devices@libeYs3D@@U?$_Ph@$00@std@@@std@@QEAA@AEBV01@@Z
	??0?$tuple@PEAVSensorDataProducer@sensors@libeYs3D@@U?$_Ph@$00@std@@@std@@QEAA@$$QEAV01@@Z
	??0?$tuple@PEAVSensorDataProducer@sensors@libeYs3D@@U?$_Ph@$00@std@@@std@@QEAA@AEBV01@@Z
	??0?$tuple@U?$_Ph@$00@std@@@std@@QEAA@$$QEAV01@@Z
	??0?$tuple@U?$_Ph@$00@std@@@std@@QEAA@AEBV01@@Z
	??0?$unique_ptr@VFrameProducer@video@libeYs3D@@U?$default_delete@VFrameProducer@video@libeYs3D@@@std@@@std@@QEAA@$$QEAV01@@Z
	??0?$unique_ptr@VPCProducer@video@libeYs3D@@U?$default_delete@VPCProducer@video@libeYs3D@@@std@@@std@@QEAA@$$QEAV01@@Z
	??0?$vector@EV?$allocator@E@std@@@std@@QEAA@$$QEAV01@@Z
	??0?$vector@EV?$allocator@E@std@@@std@@QEAA@AEBV01@@Z
	??0?$vector@EV?$allocator@E@std@@@std@@QEAA@XZ
	??0?$vector@EV?$allocator@E@std@@@std@@QEAA@_KAEBEAEBV?$allocator@E@1@@Z
	??0?$vector@EV?$allocator@E@std@@@std@@QEAA@_KAEBV?$allocator@E@1@@Z
	??0?$vector@FV?$allocator@F@std@@@std@@QEAA@XZ
	??0?$vector@GV?$allocator@G@std@@@std@@QEAA@$$QEAV01@@Z
	??0?$vector@GV?$allocator@G@std@@@std@@QEAA@XZ
	??0?$vector@GV?$allocator@G@std@@@std@@QEAA@_KAEBGAEBV?$allocator@G@1@@Z
	??0?$vector@GV?$allocator@G@std@@@std@@QEAA@_KAEBV?$allocator@G@1@@Z
	??0?$vector@HV?$allocator@H@std@@@std@@QEAA@$$QEAV01@@Z
	??0?$vector@HV?$allocator@H@std@@@std@@QEAA@AEBV01@@Z
	??0?$vector@HV?$allocator@H@std@@@std@@QEAA@XZ
	??0?$vector@MV?$allocator@M@std@@@std@@QEAA@$$QEAV01@@Z
	??0?$vector@MV?$allocator@M@std@@@std@@QEAA@XZ
	??0?$vector@MV?$allocator@M@std@@@std@@QEAA@_KAEBMAEBV?$allocator@M@1@@Z
	??0?$vector@MV?$allocator@M@std@@@std@@QEAA@_KAEBV?$allocator@M@1@@Z
	??0?$vector@UCloudPoint@@V?$allocator@UCloudPoint@@@std@@@std@@QEAA@XZ
	??0?$vector@UCommand@?$WorkerThread@V?$Optional@VCallbackWorkItem@sensors@libeYs3D@@@base@libeYs3D@@@base@libeYs3D@@V?$allocator@UCommand@?$WorkerThread@V?$Optional@VCallbackWorkItem@sensors@libeYs3D@@@base@libeYs3D@@@base@libeYs3D@@@std@@@std@@QEAA@XZ
	??0?$vector@UCommand@?$WorkerThread@V?$Optional@VCallbackWorkItem@video@libeYs3D@@@base@libeYs3D@@@base@libeYs3D@@V?$allocator@UCommand@?$WorkerThread@V?$Optional@VCallbackWorkItem@video@libeYs3D@@@base@libeYs3D@@@base@libeYs3D@@@std@@@std@@QEAA@XZ
	??0?$vector@UCommand@?$WorkerThread@V?$Optional@VDACalculateWorkItem@video@libeYs3D@@@base@libeYs3D@@@base@libeYs3D@@V?$allocator@UCommand@?$WorkerThread@V?$Optional@VDACalculateWorkItem@video@libeYs3D@@@base@libeYs3D@@@base@libeYs3D@@@std@@@std@@QEAA@XZ
	??0?$vector@UMODE_CONFIG@ModeConfig@@V?$allocator@UMODE_CONFIG@ModeConfig@@@std@@@std@@QEAA@AEBV01@@Z
	??0?$vector@UMODE_CONFIG@ModeConfig@@V?$allocator@UMODE_CONFIG@ModeConfig@@@std@@@std@@QEAA@XZ
	??0?$vector@USensorData@sensors@libeYs3D@@V?$allocator@USensorData@sensors@libeYs3D@@@std@@@std@@QEAA@$$QEAV01@@Z
	??0?$vector@USensorData@sensors@libeYs3D@@V?$allocator@USensorData@sensors@libeYs3D@@@std@@@std@@QEAA@_KAEBV?$allocator@USensorData@sensors@libeYs3D@@@1@@Z
	??0?$vector@UtagAPC_STREAM_INFO@@V?$allocator@UtagAPC_STREAM_INFO@@@std@@@std@@QEAA@XZ
	??0?$vector@V?$Optional@V?$WorkerThread@V?$Optional@VCallbackWorkItem@sensors@libeYs3D@@@base@libeYs3D@@@base@libeYs3D@@@base@libeYs3D@@V?$allocator@V?$Optional@V?$WorkerThread@V?$Optional@VCallbackWorkItem@sensors@libeYs3D@@@base@libeYs3D@@@base@libeYs3D@@@base@libeYs3D@@@std@@@std@@QEAA@XZ
	??0?$vector@V?$Optional@V?$WorkerThread@V?$Optional@VCallbackWorkItem@sensors@libeYs3D@@@base@libeYs3D@@@base@libeYs3D@@@base@libeYs3D@@V?$allocator@V?$Optional@V?$WorkerThread@V?$Optional@VCallbackWorkItem@sensors@libeYs3D@@@base@libeYs3D@@@base@libeYs3D@@@base@libeYs3D@@@std@@@std@@QEAA@_KAEBV?$allocator@V?$Optional@V?$WorkerThread@V?$Optional@VCallbackWorkItem@sensors@libeYs3D@@@base@libeYs3D@@@base@libeYs3D@@@base@libeYs3D@@@1@@Z
	??0?$vector@V?$Optional@V?$WorkerThread@V?$Optional@VCallbackWorkItem@video@libeYs3D@@@base@libeYs3D@@@base@libeYs3D@@@base@libeYs3D@@V?$allocator@V?$Optional@V?$WorkerThread@V?$Optional@VCallbackWorkItem@video@libeYs3D@@@base@libeYs3D@@@base@libeYs3D@@@base@libeYs3D@@@std@@@std@@QEAA@XZ
	??0?$vector@V?$Optional@V?$WorkerThread@V?$Optional@VCallbackWorkItem@video@libeYs3D@@@base@libeYs3D@@@base@libeYs3D@@@base@libeYs3D@@V?$allocator@V?$Optional@V?$WorkerThread@V?$Optional@VCallbackWorkItem@video@libeYs3D@@@base@libeYs3D@@@base@libeYs3D@@@base@libeYs3D@@@std@@@std@@QEAA@_KAEBV?$allocator@V?$Optional@V?$WorkerThread@V?$Optional@VCallbackWorkItem@video@libeYs3D@@@base@libeYs3D@@@base@libeYs3D@@@base@libeYs3D@@@1@@Z
	??0?$vector@V?$Optional@V?$WorkerThread@V?$Optional@VDACalculateWorkItem@video@libeYs3D@@@base@libeYs3D@@@base@libeYs3D@@@base@libeYs3D@@V?$allocator@V?$Optional@V?$WorkerThread@V?$Optional@VDACalculateWorkItem@video@libeYs3D@@@base@libeYs3D@@@base@libeYs3D@@@base@libeYs3D@@@std@@@std@@QEAA@XZ
	??0?$vector@V?$Optional@V?$WorkerThread@V?$Optional@VDACalculateWorkItem@video@libeYs3D@@@base@libeYs3D@@@base@libeYs3D@@@base@libeYs3D@@V?$allocator@V?$Optional@V?$WorkerThread@V?$Optional@VDACalculateWorkItem@video@libeYs3D@@@base@libeYs3D@@@base@libeYs3D@@@base@libeYs3D@@@std@@@std@@QEAA@_KAEBV?$allocator@V?$Optional@V?$WorkerThread@V?$Optional@VDACalculateWorkItem@video@libeYs3D@@@base@libeYs3D@@@base@libeYs3D@@@base@libeYs3D@@@1@@Z
	??0?$vector@V?$basic_string@DU?$char_traits@D@std@@V?$allocator@D@2@@std@@V?$allocator@V?$basic_string@DU?$char_traits@D@std@@V?$allocator@D@2@@std@@@2@@std@@QEAA@AEBV01@@Z
	??0?$vector@V?$basic_string@DU?$char_traits@D@std@@V?$allocator@D@2@@std@@V?$allocator@V?$basic_string@DU?$char_traits@D@std@@V?$allocator@D@2@@std@@@2@@std@@QEAA@XZ
	??0?$vector@W4IMU_DATA_FORMAT@IMUDevice@devices@libeYs3D@@V?$allocator@W4IMU_DATA_FORMAT@IMUDevice@devices@libeYs3D@@@std@@@std@@QEAA@V?$initializer_list@W4IMU_DATA_FORMAT@IMUDevice@devices@libeYs3D@@@1@AEBV?$allocator@W4IMU_DATA_FORMAT@IMUDevice@devices@libeYs3D@@@1@@Z
	??0?$vector@W4IMU_DATA_FORMAT@IMUDevice@devices@libeYs3D@@V?$allocator@W4IMU_DATA_FORMAT@IMUDevice@devices@libeYs3D@@@std@@@std@@QEAA@XZ
	??0AutoLock@base@libeYs3D@@QEAA@AEAVStaticLock@12@@Z
	??0AutoWriteLock@base@libeYs3D@@QEAA@AEAVReadWriteLock@12@@Z
	??0CallbackWorkItem@sensors@libeYs3D@@QEAA@AEBV012@@Z
	??0CallbackWorkItem@video@libeYs3D@@QEAA@AEBV012@@Z
	??0CallbackWorkItem@video@libeYs3D@@QEAA@V?$function@$$A6A_NPEBVFrame@video@libeYs3D@@@Z@std@@PEAVFrame@12@@Z
	??0CameraDevice8036@devices@libeYs3D@@IEAA@PEAUtagDEVSEL@@PEAUtagDEVINFORMATION@@@Z
	??0CameraDevice8037@devices@libeYs3D@@IEAA@PEAUtagDEVSEL@@PEAUtagDEVINFORMATION@@@Z
	??0CameraDevice8052@devices@libeYs3D@@IEAA@PEAUtagDEVSEL@@PEAUtagDEVINFORMATION@@@Z
	??0CameraDevice8053@devices@libeYs3D@@IEAA@PEAUtagDEVSEL@@PEAUtagDEVINFORMATION@@@Z
	??0CameraDevice8059@devices@libeYs3D@@IEAA@PEAUtagDEVSEL@@PEAUtagDEVINFORMATION@@@Z
	??0CameraDevice8062@devices@libeYs3D@@IEAA@PEAUtagDEVSEL@@PEAUtagDEVINFORMATION@@@Z
	??0CameraDevice8067@devices@libeYs3D@@IEAA@PEAUtagDEVSEL@@PEAUtagDEVINFORMATION@@@Z
	??0CameraDevice@devices@libeYs3D@@IEAA@PEAUtagDEVSEL@@PEAUtagDEVINFORMATION@@@Z
	??0CameraDeviceHypatia@devices@libeYs3D@@IEAA@PEAUtagDEVSEL@@PEAUtagDEVINFORMATION@@@Z
	??0CameraDeviceInfo@devices@libeYs3D@@QEAA@PEAUtagDEVINFORMATION@@@Z
	??0CameraDeviceProperties@devices@libeYs3D@@IEAA@PEAVCameraDevice@12@@Z
	??0CameraPropertyItem@CameraDeviceProperties@devices@libeYs3D@@QEAA@XZ
	??0ColorFrameProducer@video@libeYs3D@@IEAA@PEAVCameraDevice@devices@2@@Z
	??0Command@?$WorkerThread@V?$Optional@VCallbackWorkItem@sensors@libeYs3D@@@base@libeYs3D@@@base@libeYs3D@@QEAA@$$QEAU0123@@Z
	??0Command@?$WorkerThread@V?$Optional@VCallbackWorkItem@sensors@libeYs3D@@@base@libeYs3D@@@base@libeYs3D@@QEAA@$$QEAV?$Optional@VCallbackWorkItem@sensors@libeYs3D@@@23@@Z
	??0Command@?$WorkerThread@V?$Optional@VCallbackWorkItem@video@libeYs3D@@@base@libeYs3D@@@base@libeYs3D@@QEAA@$$QEAU0123@@Z
	??0Command@?$WorkerThread@V?$Optional@VCallbackWorkItem@video@libeYs3D@@@base@libeYs3D@@@base@libeYs3D@@QEAA@$$QEAV?$Optional@VCallbackWorkItem@video@libeYs3D@@@23@@Z
	??0Command@?$WorkerThread@V?$Optional@VDACalculateWorkItem@video@libeYs3D@@@base@libeYs3D@@@base@libeYs3D@@QEAA@$$QEAU0123@@Z
	??0Command@?$WorkerThread@V?$Optional@VDACalculateWorkItem@video@libeYs3D@@@base@libeYs3D@@@base@libeYs3D@@QEAA@$$QEAV?$Optional@VDACalculateWorkItem@video@libeYs3D@@@23@@Z
	??0ConditionVariable@base@libeYs3D@@QEAA@XZ
	??0DACalculateWorkItem@video@libeYs3D@@QEAA@AEBV012@@Z
	??0DACalculateWorkItem@video@libeYs3D@@QEAA@V?$function@$$A6AXPEAVFrame@video@libeYs3D@@@Z@std@@PEAVFrame@12@@Z
	??0DepthAccuracyOptions@devices@libeYs3D@@IEAA@XZ
	??0DepthFilterOptions@devices@libeYs3D@@IEAA@XZ
	??0DepthFrameProducer@video@libeYs3D@@IEAA@PEAVCameraDevice@devices@2@@Z
	??0DeviceSellectInfo@libeYs3D@@QEAA@H@Z
	??0DeviceSellectInfo@libeYs3D@@QEAA@XZ
	??0EYS3DSystem@libeYs3D@@AEAA@XZ
	??0FocalLength@CameraDevice@devices@libeYs3D@@QEAA@XZ
	??0Frame@video@libeYs3D@@QEAA@$$QEAV012@@Z
	??0Frame@video@libeYs3D@@QEAA@_KE0G0E@Z
	??0FrameProducer@video@libeYs3D@@IEAA@PEAVCameraDevice@devices@2@HHHE@Z
	??0FrameSetPipeline@devices@libeYs3D@@AEAA@PEAVCameraDevice@12@W4TYPE@012@@Z
	??0FunctorThread@base@libeYs3D@@QEAA@$$QEAV?$function@$$A6A_JXZ@std@@W4ThreadFlags@12@@Z
	??0FunctorThread@base@libeYs3D@@QEAA@AEBV?$function@$$A6A_JXZ@std@@W4ThreadFlags@12@@Z
	??0IMUData@@QEAA@XZ
	??0IMUDataProducer@sensors@libeYs3D@@IEAA@PEAVIMUDevice@devices@2@@Z
	??0IMUDevice8062@devices@libeYs3D@@IEAA@UIMUDeviceInfo@IMUDevice@12@PEAVCameraDevice@12@@Z
	??0IMUDevice@devices@libeYs3D@@IEAA@UIMUDeviceInfo@012@PEAVCameraDevice@12@@Z
	??0IRProperty@devices@libeYs3D@@IEAA@G_N@Z
	??0Lock@base@libeYs3D@@QEAA@XZ
	??0MODE_CONFIG@ModeConfig@@QEAA@$$QEAU01@@Z
	??0MODE_CONFIG@ModeConfig@@QEAA@AEBU01@@Z
	??0MODE_CONFIG@ModeConfig@@QEAA@XZ
	??0MessageChannelBase@base@libeYs3D@@IEAA@_K@Z
	??0ModeConfig@@QEAA@XZ
	??0ModeConfigOptions@@QEAA@W4USB_PORT_TYPE@@G@Z
	??0OptionalFlagBase@details@base@libeYs3D@@QEAA@_N@Z
	??0PCFrame@video@libeYs3D@@QEAA@$$QEAV012@@Z
	??0PCFrame@video@libeYs3D@@QEAA@IEM@Z
	??0PCFrameProducer@video@libeYs3D@@IEAA@PEAVCameraDevice@devices@2@@Z
	??0PCProducer@video@libeYs3D@@IEAA@XZ
	??0PID_TABLE@ModeConfig@@QEAA@XZ
	??0Pipeline@devices@libeYs3D@@AEAA@PEAVCameraDevice@12@@Z
	??0PlyFilter@@AEAA@XZ
	??0PlyWriter@@AEAA@XZ
	??0PointCloudInfo@@QEAA@XZ
	??0Producer@video@libeYs3D@@IEAA@XZ
	??0RESOLUTION@MODE_CONFIG@ModeConfig@@QEAA@XZ
	??0ReadWriteLock@base@libeYs3D@@QEAA@XZ
	??0RegisterReadWriteController@devices@libeYs3D@@IEAA@PEAVCameraDevice@12@@Z
	??0RegisterReadWriteOptions@devices@libeYs3D@@IEAA@XZ
	??0RegisterSettings@@AEAA@XZ
	??0SensorData@sensors@libeYs3D@@QEAA@W4SensorDataType@012@@Z
	??0SensorDataProducer@sensors@libeYs3D@@IEAA@W4SensorDataType@SensorData@12@@Z
	??0SensorDataSet@sensors@libeYs3D@@QEAA@$$QEAU012@@Z
	??0SensorDataSet@sensors@libeYs3D@@QEAA@W4SensorDataType@SensorData@12@H@Z
	??0StaticLock@base@libeYs3D@@QEAA@XZ
	??0Thread@base@libeYs3D@@QEAA@W4ThreadFlags@12@H@Z
	??0ThreadStoreBase@base@libeYs3D@@QEAA@P6AXPEAX@Z@Z
	??0ZDTableInfo@devices@libeYs3D@@QEAA@XZ
	??0_Bxty@?$_String_val@U?$_Simple_types@D@std@@@std@@QEAA@XZ
	??0_Container_base12@std@@QEAA@XZ
	??0_Container_proxy@std@@QEAA@XZ
	??0_Iterator_base12@std@@QEAA@AEBU01@@Z
	??0_Iterator_base12@std@@QEAA@XZ
	??0_Ref_count_base@std@@IEAA@XZ
	??0_Sentry_base@?$basic_istream@DU?$char_traits@D@std@@@std@@QEAA@AEAV12@@Z
	??0_Sentry_base@?$basic_ostream@DU?$char_traits@D@std@@@std@@QEAA@AEAV12@@Z
	??0bad_cast@std@@QEAA@AEBV01@@Z
	??0bad_cast@std@@QEAA@XZ
	??0exception@std@@QEAA@AEBV01@@Z
	??0exception@std@@QEAA@QEBDH@Z
	??0extra@Frame@video@libeYs3D@@QEAA@XZ
	??0sentry@?$basic_istream@DU?$char_traits@D@std@@@std@@QEAA@AEAV12@_N@Z
	??0sentry@?$basic_ostream@DU?$char_traits@D@std@@@std@@QEAA@AEAV12@@Z
	??1?$CircularQueue@USensorData@sensors@libeYs3D@@$0BAA@@Pipeline@devices@libeYs3D@@QEAA@XZ
	??1?$CircularQueue@VFrame@video@libeYs3D@@$0EA@@FrameSetPipeline@devices@libeYs3D@@QEAA@XZ
	??1?$CircularQueue@VFrame@video@libeYs3D@@$0EA@@Pipeline@devices@libeYs3D@@QEAA@XZ
	??1?$CircularQueue@VPCFrame@video@libeYs3D@@$0CA@@FrameSetPipeline@devices@libeYs3D@@QEAA@XZ
	??1?$CircularQueue@VPCFrame@video@libeYs3D@@$0CA@@Pipeline@devices@libeYs3D@@QEAA@XZ
	??1?$MessageChannel@USensorDataSet@sensors@libeYs3D@@$07@base@libeYs3D@@QEAA@XZ
	??1?$MessageChannel@USensorDataSet@sensors@libeYs3D@@$0BA@@base@libeYs3D@@QEAA@XZ
	??1?$MessageChannel@VFrame@video@libeYs3D@@$0BA@@base@libeYs3D@@QEAA@XZ
	??1?$MessageChannel@VPCFrame@video@libeYs3D@@$0BA@@base@libeYs3D@@QEAA@XZ
	??1?$Optional@H@base@libeYs3D@@QEAA@XZ
	??1?$Optional@USensorData@sensors@libeYs3D@@@base@libeYs3D@@QEAA@XZ
	??1?$Optional@USensorDataSet@sensors@libeYs3D@@@base@libeYs3D@@QEAA@XZ
	??1?$Optional@V?$WorkerThread@V?$Optional@VCallbackWorkItem@sensors@libeYs3D@@@base@libeYs3D@@@base@libeYs3D@@@base@libeYs3D@@QEAA@XZ
	??1?$Optional@V?$WorkerThread@V?$Optional@VCallbackWorkItem@video@libeYs3D@@@base@libeYs3D@@@base@libeYs3D@@@base@libeYs3D@@QEAA@XZ
	??1?$Optional@V?$WorkerThread@V?$Optional@VDACalculateWorkItem@video@libeYs3D@@@base@libeYs3D@@@base@libeYs3D@@@base@libeYs3D@@QEAA@XZ
	??1?$Optional@VCallbackWorkItem@sensors@libeYs3D@@@base@libeYs3D@@QEAA@XZ
	??1?$Optional@VCallbackWorkItem@video@libeYs3D@@@base@libeYs3D@@QEAA@XZ
	??1?$Optional@VDACalculateWorkItem@video@libeYs3D@@@base@libeYs3D@@QEAA@XZ
	??1?$Optional@VFrame@video@libeYs3D@@@base@libeYs3D@@QEAA@XZ
	??1?$Optional@VPCFrame@video@libeYs3D@@@base@libeYs3D@@QEAA@XZ
	??1?$Optional@_K@base@libeYs3D@@QEAA@XZ
	??1?$ThreadPool@VCallbackWorkItem@sensors@libeYs3D@@@base@libeYs3D@@QEAA@XZ
	??1?$ThreadPool@VCallbackWorkItem@video@libeYs3D@@@base@libeYs3D@@QEAA@XZ
	??1?$ThreadPool@VDACalculateWorkItem@video@libeYs3D@@@base@libeYs3D@@QEAA@XZ
	??1?$WorkerThread@V?$Optional@VCallbackWorkItem@sensors@libeYs3D@@@base@libeYs3D@@@base@libeYs3D@@QEAA@XZ
	??1?$WorkerThread@V?$Optional@VCallbackWorkItem@video@libeYs3D@@@base@libeYs3D@@@base@libeYs3D@@QEAA@XZ
	??1?$WorkerThread@V?$Optional@VDACalculateWorkItem@video@libeYs3D@@@base@libeYs3D@@@base@libeYs3D@@QEAA@XZ
	??1?$_Compressed_pair@V?$allocator@D@std@@V?$_String_val@U?$_Simple_types@D@std@@@2@$00@std@@QEAA@XZ
	??1?$_Func_class@W4WorkerProcessingResult@base@libeYs3D@@$$QEAV?$Optional@VCallbackWorkItem@sensors@libeYs3D@@@23@@std@@QEAA@XZ
	??1?$_Func_class@W4WorkerProcessingResult@base@libeYs3D@@$$QEAV?$Optional@VCallbackWorkItem@video@libeYs3D@@@23@@std@@QEAA@XZ
	??1?$_Func_class@W4WorkerProcessingResult@base@libeYs3D@@$$QEAV?$Optional@VDACalculateWorkItem@video@libeYs3D@@@23@@std@@QEAA@XZ
	??1?$_Func_class@X$$QEAVCallbackWorkItem@sensors@libeYs3D@@@std@@QEAA@XZ
	??1?$_Func_class@X$$QEAVCallbackWorkItem@video@libeYs3D@@@std@@QEAA@XZ
	??1?$_Func_class@X$$QEAVDACalculateWorkItem@video@libeYs3D@@@std@@QEAA@XZ
	??1?$_Func_class@XPEAVFrame@video@libeYs3D@@@std@@QEAA@XZ
	??1?$_Func_class@_J$$V@std@@QEAA@XZ
	??1?$_Func_class@_NPEBUSensorData@sensors@libeYs3D@@@std@@QEAA@XZ
	??1?$_Func_class@_NPEBUSensorDataSet@sensors@libeYs3D@@@std@@QEAA@XZ
	??1?$_Func_class@_NPEBVFrame@video@libeYs3D@@@std@@QEAA@XZ
	??1?$_Func_class@_NPEBVPCFrame@video@libeYs3D@@@std@@QEAA@XZ
	??1?$_List_alloc@U?$_List_base_types@V?$vector@FV?$allocator@F@std@@@std@@V?$allocator@V?$vector@FV?$allocator@F@std@@@std@@@2@@std@@@std@@QEAA@XZ
	??1?$_List_buy@V?$vector@FV?$allocator@F@std@@@std@@V?$allocator@V?$vector@FV?$allocator@F@std@@@std@@@2@@std@@QEAA@XZ
	??1?$_List_const_iterator@V?$_List_val@U?$_List_simple_types@V?$vector@FV?$allocator@F@std@@@std@@@std@@@std@@@std@@QEAA@XZ
	??1?$_List_iterator@V?$_List_val@U?$_List_simple_types@V?$vector@FV?$allocator@F@std@@@std@@@std@@@std@@@std@@QEAA@XZ
	??1?$_List_unchecked_const_iterator@V?$_List_val@U?$_List_simple_types@V?$vector@FV?$allocator@F@std@@@std@@@std@@@std@@U_Iterator_base12@2@@std@@QEAA@XZ
	??1?$_Ref_count@VCameraDevice@devices@libeYs3D@@@std@@UEAA@XZ
	??1?$_Ref_count@VEYS3DSystem@libeYs3D@@@std@@UEAA@XZ
	??1?$_Ref_count@VFrameSetPipeline@devices@libeYs3D@@@std@@UEAA@XZ
	??1?$_Ref_count@VPipeline@devices@libeYs3D@@@std@@UEAA@XZ
	??1?$_String_alloc@U?$_String_base_types@DV?$allocator@D@std@@@std@@@std@@QEAA@XZ
	??1?$_String_const_iterator@V?$_String_val@U?$_Simple_types@D@std@@@std@@@std@@QEAA@XZ
	??1?$_String_iterator@V?$_String_val@U?$_Simple_types@D@std@@@std@@@std@@QEAA@XZ
	??1?$_String_val@U?$_Simple_types@D@std@@@std@@QEAA@XZ
	??1?$_Tree@V?$_Tmap_traits@HHU?$less@H@std@@V?$allocator@U?$pair@$$CBHH@std@@@2@$0A@@std@@@std@@QEAA@XZ
	??1?$_Tree@V?$_Tmap_traits@HUPID_TABLE@ModeConfig@@U?$less@H@std@@V?$allocator@U?$pair@$$CBHUPID_TABLE@ModeConfig@@@std@@@4@$0A@@std@@@std@@QEAA@XZ
	??1?$_Tree@V?$_Tmap_traits@U?$pair@GG@std@@V?$vector@V?$basic_string@DU?$char_traits@D@std@@V?$allocator@D@2@@std@@V?$allocator@V?$basic_string@DU?$char_traits@D@std@@V?$allocator@D@2@@std@@@2@@2@U?$less@U?$pair@GG@std@@@2@V?$allocator@U?$pair@$$CBU?$pair@GG@std@@V?$vector@V?$basic_string@DU?$char_traits@D@std@@V?$allocator@D@2@@std@@V?$allocator@V?$basic_string@DU?$char_traits@D@std@@V?$allocator@D@2@@std@@@2@@2@@std@@@2@$0A@@std@@@std@@QEAA@XZ
	??1?$_Tree@V?$_Tmap_traits@UDeviceSellectInfo@libeYs3D@@V?$shared_ptr@VCameraDevice@devices@libeYs3D@@@std@@U?$less@UDeviceSellectInfo@libeYs3D@@@4@V?$allocator@U?$pair@$$CBUDeviceSellectInfo@libeYs3D@@V?$shared_ptr@VCameraDevice@devices@libeYs3D@@@std@@@std@@@4@$0A@@std@@@std@@QEAA@XZ
	??1?$_Tree@V?$_Tmap_traits@W4IMUPacketSymbol@IMUData@@_KU?$less@W4IMUPacketSymbol@IMUData@@@std@@V?$allocator@U?$pair@$$CBW4IMUPacketSymbol@IMUData@@_K@std@@@4@$0A@@std@@@std@@QEAA@XZ
	??1?$_Tree_comp_alloc@V?$_Tmap_traits@HHU?$less@H@std@@V?$allocator@U?$pair@$$CBHH@std@@@2@$0A@@std@@@std@@QEAA@XZ
	??1?$_Tree_comp_alloc@V?$_Tmap_traits@HUPID_TABLE@ModeConfig@@U?$less@H@std@@V?$allocator@U?$pair@$$CBHUPID_TABLE@ModeConfig@@@std@@@4@$0A@@std@@@std@@QEAA@XZ
	??1?$_Tree_comp_alloc@V?$_Tmap_traits@U?$pair@GG@std@@V?$vector@V?$basic_string@DU?$char_traits@D@std@@V?$allocator@D@2@@std@@V?$allocator@V?$basic_string@DU?$char_traits@D@std@@V?$allocator@D@2@@std@@@2@@2@U?$less@U?$pair@GG@std@@@2@V?$allocator@U?$pair@$$CBU?$pair@GG@std@@V?$vector@V?$basic_string@DU?$char_traits@D@std@@V?$allocator@D@2@@std@@V?$allocator@V?$basic_string@DU?$char_traits@D@std@@V?$allocator@D@2@@std@@@2@@2@@std@@@2@$0A@@std@@@std@@QEAA@XZ
	??1?$_Tree_comp_alloc@V?$_Tmap_traits@UDeviceSellectInfo@libeYs3D@@V?$shared_ptr@VCameraDevice@devices@libeYs3D@@@std@@U?$less@UDeviceSellectInfo@libeYs3D@@@4@V?$allocator@U?$pair@$$CBUDeviceSellectInfo@libeYs3D@@V?$shared_ptr@VCameraDevice@devices@libeYs3D@@@std@@@std@@@4@$0A@@std@@@std@@QEAA@XZ
	??1?$_Tree_comp_alloc@V?$_Tmap_traits@W4IMUPacketSymbol@IMUData@@_KU?$less@W4IMUPacketSymbol@IMUData@@@std@@V?$allocator@U?$pair@$$CBW4IMUPacketSymbol@IMUData@@_K@std@@@4@$0A@@std@@@std@@QEAA@XZ
	??1?$_Tree_const_iterator@V?$_Tree_val@U?$_Tree_simple_types@U?$pair@$$CBHH@std@@@std@@@std@@@std@@QEAA@XZ
	??1?$_Tree_const_iterator@V?$_Tree_val@U?$_Tree_simple_types@U?$pair@$$CBHUPID_TABLE@ModeConfig@@@std@@@std@@@std@@@std@@QEAA@XZ
	??1?$_Tree_const_iterator@V?$_Tree_val@U?$_Tree_simple_types@U?$pair@$$CBU?$pair@GG@std@@V?$vector@V?$basic_string@DU?$char_traits@D@std@@V?$allocator@D@2@@std@@V?$allocator@V?$basic_string@DU?$char_traits@D@std@@V?$allocator@D@2@@std@@@2@@2@@std@@@std@@@std@@@std@@QEAA@XZ
	??1?$_Tree_const_iterator@V?$_Tree_val@U?$_Tree_simple_types@U?$pair@$$CBUDeviceSellectInfo@libeYs3D@@V?$shared_ptr@VCameraDevice@devices@libeYs3D@@@std@@@std@@@std@@@std@@@std@@QEAA@XZ
	??1?$_Tree_const_iterator@V?$_Tree_val@U?$_Tree_simple_types@U?$pair@$$CBW4IMUPacketSymbol@IMUData@@_K@std@@@std@@@std@@@std@@QEAA@XZ
	??1?$_Tree_iterator@V?$_Tree_val@U?$_Tree_simple_types@U?$pair@$$CBHH@std@@@std@@@std@@@std@@QEAA@XZ
	??1?$_Tree_iterator@V?$_Tree_val@U?$_Tree_simple_types@U?$pair@$$CBHUPID_TABLE@ModeConfig@@@std@@@std@@@std@@@std@@QEAA@XZ
	??1?$_Tree_iterator@V?$_Tree_val@U?$_Tree_simple_types@U?$pair@$$CBU?$pair@GG@std@@V?$vector@V?$basic_string@DU?$char_traits@D@std@@V?$allocator@D@2@@std@@V?$allocator@V?$basic_string@DU?$char_traits@D@std@@V?$allocator@D@2@@std@@@2@@2@@std@@@std@@@std@@@std@@QEAA@XZ
	??1?$_Tree_iterator@V?$_Tree_val@U?$_Tree_simple_types@U?$pair@$$CBUDeviceSellectInfo@libeYs3D@@V?$shared_ptr@VCameraDevice@devices@libeYs3D@@@std@@@std@@@std@@@std@@@std@@QEAA@XZ
	??1?$_Tree_iterator@V?$_Tree_val@U?$_Tree_simple_types@U?$pair@$$CBW4IMUPacketSymbol@IMUData@@_K@std@@@std@@@std@@@std@@QEAA@XZ
	??1?$_Tree_unchecked_const_iterator@V?$_Tree_val@U?$_Tree_simple_types@U?$pair@$$CBHH@std@@@std@@@std@@U_Iterator_base12@2@@std@@QEAA@XZ
	??1?$_Tree_unchecked_const_iterator@V?$_Tree_val@U?$_Tree_simple_types@U?$pair@$$CBHUPID_TABLE@ModeConfig@@@std@@@std@@@std@@U_Iterator_base12@2@@std@@QEAA@XZ
	??1?$_Tree_unchecked_const_iterator@V?$_Tree_val@U?$_Tree_simple_types@U?$pair@$$CBU?$pair@GG@std@@V?$vector@V?$basic_string@DU?$char_traits@D@std@@V?$allocator@D@2@@std@@V?$allocator@V?$basic_string@DU?$char_traits@D@std@@V?$allocator@D@2@@std@@@2@@2@@std@@@std@@@std@@U_Iterator_base12@2@@std@@QEAA@XZ
	??1?$_Tree_unchecked_const_iterator@V?$_Tree_val@U?$_Tree_simple_types@U?$pair@$$CBUDeviceSellectInfo@libeYs3D@@V?$shared_ptr@VCameraDevice@devices@libeYs3D@@@std@@@std@@@std@@@std@@U_Iterator_base12@2@@std@@QEAA@XZ
	??1?$_Tree_unchecked_const_iterator@V?$_Tree_val@U?$_Tree_simple_types@U?$pair@$$CBW4IMUPacketSymbol@IMUData@@_K@std@@@std@@@std@@U_Iterator_base12@2@@std@@QEAA@XZ
	??1?$_Uninitialized_backout_al@PEAFV?$allocator@F@std@@@std@@QEAA@XZ
	??1?$_Uninitialized_backout_al@PEAGV?$allocator@G@std@@@std@@QEAA@XZ
	??1?$_Uninitialized_backout_al@PEAMV?$allocator@M@std@@@std@@QEAA@XZ
	??1?$_Uninitialized_backout_al@PEAUCommand@?$WorkerThread@V?$Optional@VCallbackWorkItem@sensors@libeYs3D@@@base@libeYs3D@@@base@libeYs3D@@V?$allocator@UCommand@?$WorkerThread@V?$Optional@VCallbackWorkItem@sensors@libeYs3D@@@base@libeYs3D@@@base@libeYs3D@@@std@@@std@@QEAA@XZ
	??1?$_Uninitialized_backout_al@PEAUCommand@?$WorkerThread@V?$Optional@VCallbackWorkItem@video@libeYs3D@@@base@libeYs3D@@@base@libeYs3D@@V?$allocator@UCommand@?$WorkerThread@V?$Optional@VCallbackWorkItem@video@libeYs3D@@@base@libeYs3D@@@base@libeYs3D@@@std@@@std@@QEAA@XZ
	??1?$_Uninitialized_backout_al@PEAUCommand@?$WorkerThread@V?$Optional@VDACalculateWorkItem@video@libeYs3D@@@base@libeYs3D@@@base@libeYs3D@@V?$allocator@UCommand@?$WorkerThread@V?$Optional@VDACalculateWorkItem@video@libeYs3D@@@base@libeYs3D@@@base@libeYs3D@@@std@@@std@@QEAA@XZ
	??1?$_Uninitialized_backout_al@PEAUMODE_CONFIG@ModeConfig@@V?$allocator@UMODE_CONFIG@ModeConfig@@@std@@@std@@QEAA@XZ
	??1?$_Uninitialized_backout_al@PEAUSensorData@sensors@libeYs3D@@V?$allocator@USensorData@sensors@libeYs3D@@@std@@@std@@QEAA@XZ
	??1?$_Uninitialized_backout_al@PEAUtagAPC_STREAM_INFO@@V?$allocator@UtagAPC_STREAM_INFO@@@std@@@std@@QEAA@XZ
	??1?$_Uninitialized_backout_al@PEAV?$Optional@V?$WorkerThread@V?$Optional@VCallbackWorkItem@sensors@libeYs3D@@@base@libeYs3D@@@base@libeYs3D@@@base@libeYs3D@@V?$allocator@V?$Optional@V?$WorkerThread@V?$Optional@VCallbackWorkItem@sensors@libeYs3D@@@base@libeYs3D@@@base@libeYs3D@@@base@libeYs3D@@@std@@@std@@QEAA@XZ
	??1?$_Uninitialized_backout_al@PEAV?$Optional@V?$WorkerThread@V?$Optional@VCallbackWorkItem@video@libeYs3D@@@base@libeYs3D@@@base@libeYs3D@@@base@libeYs3D@@V?$allocator@V?$Optional@V?$WorkerThread@V?$Optional@VCallbackWorkItem@video@libeYs3D@@@base@libeYs3D@@@base@libeYs3D@@@base@libeYs3D@@@std@@@std@@QEAA@XZ
	??1?$_Uninitialized_backout_al@PEAV?$Optional@V?$WorkerThread@V?$Optional@VDACalculateWorkItem@video@libeYs3D@@@base@libeYs3D@@@base@libeYs3D@@@base@libeYs3D@@V?$allocator@V?$Optional@V?$WorkerThread@V?$Optional@VDACalculateWorkItem@video@libeYs3D@@@base@libeYs3D@@@base@libeYs3D@@@base@libeYs3D@@@std@@@std@@QEAA@XZ
	??1?$_Uninitialized_backout_al@PEAV?$basic_string@DU?$char_traits@D@std@@V?$allocator@D@2@@std@@V?$allocator@V?$basic_string@DU?$char_traits@D@std@@V?$allocator@D@2@@std@@@2@@std@@QEAA@XZ
	??1?$_Vector_alloc@U?$_Vec_base_types@EV?$allocator@E@std@@@std@@@std@@QEAA@XZ
	??1?$_Vector_alloc@U?$_Vec_base_types@FV?$allocator@F@std@@@std@@@std@@QEAA@XZ
	??1?$_Vector_alloc@U?$_Vec_base_types@GV?$allocator@G@std@@@std@@@std@@QEAA@XZ
	??1?$_Vector_alloc@U?$_Vec_base_types@HV?$allocator@H@std@@@std@@@std@@QEAA@XZ
	??1?$_Vector_alloc@U?$_Vec_base_types@MV?$allocator@M@std@@@std@@@std@@QEAA@XZ
	??1?$_Vector_alloc@U?$_Vec_base_types@UCloudPoint@@V?$allocator@UCloudPoint@@@std@@@std@@@std@@QEAA@XZ
	??1?$_Vector_alloc@U?$_Vec_base_types@UCommand@?$WorkerThread@V?$Optional@VCallbackWorkItem@sensors@libeYs3D@@@base@libeYs3D@@@base@libeYs3D@@V?$allocator@UCommand@?$WorkerThread@V?$Optional@VCallbackWorkItem@sensors@libeYs3D@@@base@libeYs3D@@@base@libeYs3D@@@std@@@std@@@std@@QEAA@XZ
	??1?$_Vector_alloc@U?$_Vec_base_types@UCommand@?$WorkerThread@V?$Optional@VCallbackWorkItem@video@libeYs3D@@@base@libeYs3D@@@base@libeYs3D@@V?$allocator@UCommand@?$WorkerThread@V?$Optional@VCallbackWorkItem@video@libeYs3D@@@base@libeYs3D@@@base@libeYs3D@@@std@@@std@@@std@@QEAA@XZ
	??1?$_Vector_alloc@U?$_Vec_base_types@UCommand@?$WorkerThread@V?$Optional@VDACalculateWorkItem@video@libeYs3D@@@base@libeYs3D@@@base@libeYs3D@@V?$allocator@UCommand@?$WorkerThread@V?$Optional@VDACalculateWorkItem@video@libeYs3D@@@base@libeYs3D@@@base@libeYs3D@@@std@@@std@@@std@@QEAA@XZ
	??1?$_Vector_alloc@U?$_Vec_base_types@UMODE_CONFIG@ModeConfig@@V?$allocator@UMODE_CONFIG@ModeConfig@@@std@@@std@@@std@@QEAA@XZ
	??1?$_Vector_alloc@U?$_Vec_base_types@USensorData@sensors@libeYs3D@@V?$allocator@USensorData@sensors@libeYs3D@@@std@@@std@@@std@@QEAA@XZ
	??1?$_Vector_alloc@U?$_Vec_base_types@UtagAPC_STREAM_INFO@@V?$allocator@UtagAPC_STREAM_INFO@@@std@@@std@@@std@@QEAA@XZ
	??1?$_Vector_alloc@U?$_Vec_base_types@V?$Optional@V?$WorkerThread@V?$Optional@VCallbackWorkItem@sensors@libeYs3D@@@base@libeYs3D@@@base@libeYs3D@@@base@libeYs3D@@V?$allocator@V?$Optional@V?$WorkerThread@V?$Optional@VCallbackWorkItem@sensors@libeYs3D@@@base@libeYs3D@@@base@libeYs3D@@@base@libeYs3D@@@std@@@std@@@std@@QEAA@XZ
	??1?$_Vector_alloc@U?$_Vec_base_types@V?$Optional@V?$WorkerThread@V?$Optional@VCallbackWorkItem@video@libeYs3D@@@base@libeYs3D@@@base@libeYs3D@@@base@libeYs3D@@V?$allocator@V?$Optional@V?$WorkerThread@V?$Optional@VCallbackWorkItem@video@libeYs3D@@@base@libeYs3D@@@base@libeYs3D@@@base@libeYs3D@@@std@@@std@@@std@@QEAA@XZ
	??1?$_Vector_alloc@U?$_Vec_base_types@V?$Optional@V?$WorkerThread@V?$Optional@VDACalculateWorkItem@video@libeYs3D@@@base@libeYs3D@@@base@libeYs3D@@@base@libeYs3D@@V?$allocator@V?$Optional@V?$WorkerThread@V?$Optional@VDACalculateWorkItem@video@libeYs3D@@@base@libeYs3D@@@base@libeYs3D@@@base@libeYs3D@@@std@@@std@@@std@@QEAA@XZ
	??1?$_Vector_alloc@U?$_Vec_base_types@V?$basic_string@DU?$char_traits@D@std@@V?$allocator@D@2@@std@@V?$allocator@V?$basic_string@DU?$char_traits@D@std@@V?$allocator@D@2@@std@@@2@@std@@@std@@QEAA@XZ
	??1?$_Vector_alloc@U?$_Vec_base_types@W4IMU_DATA_FORMAT@IMUDevice@devices@libeYs3D@@V?$allocator@W4IMU_DATA_FORMAT@IMUDevice@devices@libeYs3D@@@std@@@std@@@std@@QEAA@XZ
	??1?$_Vector_const_iterator@V?$_Vector_val@U?$_Simple_types@E@std@@@std@@@std@@QEAA@XZ
	??1?$_Vector_const_iterator@V?$_Vector_val@U?$_Simple_types@M@std@@@std@@@std@@QEAA@XZ
	??1?$_Vector_const_iterator@V?$_Vector_val@U?$_Simple_types@UCloudPoint@@@std@@@std@@@std@@QEAA@XZ
	??1?$_Vector_const_iterator@V?$_Vector_val@U?$_Simple_types@UtagAPC_STREAM_INFO@@@std@@@std@@@std@@QEAA@XZ
	??1?$_Vector_iterator@V?$_Vector_val@U?$_Simple_types@E@std@@@std@@@std@@QEAA@XZ
	??1?$_Vector_iterator@V?$_Vector_val@U?$_Simple_types@M@std@@@std@@@std@@QEAA@XZ
	??1?$_Vector_iterator@V?$_Vector_val@U?$_Simple_types@UCloudPoint@@@std@@@std@@@std@@QEAA@XZ
	??1?$_Vector_iterator@V?$_Vector_val@U?$_Simple_types@UtagAPC_STREAM_INFO@@@std@@@std@@@std@@QEAA@XZ
	??1?$basic_filebuf@DU?$char_traits@D@std@@@std@@UEAA@XZ
	??1?$basic_ifstream@DU?$char_traits@D@std@@@std@@UEAA@XZ
	??1?$basic_ofstream@DU?$char_traits@D@std@@@std@@UEAA@XZ
	??1?$basic_ostringstream@DU?$char_traits@D@std@@V?$allocator@D@2@@std@@UEAA@XZ
	??1?$basic_string@DU?$char_traits@D@std@@V?$allocator@D@2@@std@@QEAA@XZ
	??1?$basic_stringbuf@DU?$char_traits@D@std@@V?$allocator@D@2@@std@@UEAA@XZ
	??1?$basic_stringstream@DU?$char_traits@D@std@@V?$allocator@D@2@@std@@UEAA@XZ
	??1?$function@$$A6A?AW4WorkerProcessingResult@base@libeYs3D@@$$QEAV?$Optional@VCallbackWorkItem@sensors@libeYs3D@@@23@@Z@std@@QEAA@XZ
	??1?$function@$$A6A?AW4WorkerProcessingResult@base@libeYs3D@@$$QEAV?$Optional@VCallbackWorkItem@video@libeYs3D@@@23@@Z@std@@QEAA@XZ
	??1?$function@$$A6A?AW4WorkerProcessingResult@base@libeYs3D@@$$QEAV?$Optional@VDACalculateWorkItem@video@libeYs3D@@@23@@Z@std@@QEAA@XZ
	??1?$function@$$A6AX$$QEAVCallbackWorkItem@sensors@libeYs3D@@@Z@std@@QEAA@XZ
	??1?$function@$$A6AX$$QEAVCallbackWorkItem@video@libeYs3D@@@Z@std@@QEAA@XZ
	??1?$function@$$A6AX$$QEAVDACalculateWorkItem@video@libeYs3D@@@Z@std@@QEAA@XZ
	??1?$function@$$A6AXPEAVFrame@video@libeYs3D@@@Z@std@@QEAA@XZ
	??1?$function@$$A6A_JXZ@std@@QEAA@XZ
	??1?$function@$$A6A_NPEBUSensorData@sensors@libeYs3D@@@Z@std@@QEAA@XZ
	??1?$function@$$A6A_NPEBUSensorDataSet@sensors@libeYs3D@@@Z@std@@QEAA@XZ
	??1?$function@$$A6A_NPEBVFrame@video@libeYs3D@@@Z@std@@QEAA@XZ
	??1?$function@$$A6A_NPEBVPCFrame@video@libeYs3D@@@Z@std@@QEAA@XZ
	??1?$list@V?$vector@FV?$allocator@F@std@@@std@@V?$allocator@V?$vector@FV?$allocator@F@std@@@std@@@2@@std@@QEAA@XZ
	??1?$map@HHU?$less@H@std@@V?$allocator@U?$pair@$$CBHH@std@@@2@@std@@QEAA@XZ
	??1?$map@HUPID_TABLE@ModeConfig@@U?$less@H@std@@V?$allocator@U?$pair@$$CBHUPID_TABLE@ModeConfig@@@std@@@4@@std@@QEAA@XZ
	??1?$map@U?$pair@GG@std@@V?$vector@V?$basic_string@DU?$char_traits@D@std@@V?$allocator@D@2@@std@@V?$allocator@V?$basic_string@DU?$char_traits@D@std@@V?$allocator@D@2@@std@@@2@@2@U?$less@U?$pair@GG@std@@@2@V?$allocator@U?$pair@$$CBU?$pair@GG@std@@V?$vector@V?$basic_string@DU?$char_traits@D@std@@V?$allocator@D@2@@std@@V?$allocator@V?$basic_string@DU?$char_traits@D@std@@V?$allocator@D@2@@std@@@2@@2@@std@@@2@@std@@QEAA@XZ
	??1?$map@UDeviceSellectInfo@libeYs3D@@V?$shared_ptr@VCameraDevice@devices@libeYs3D@@@std@@U?$less@UDeviceSellectInfo@libeYs3D@@@4@V?$allocator@U?$pair@$$CBUDeviceSellectInfo@libeYs3D@@V?$shared_ptr@VCameraDevice@devices@libeYs3D@@@std@@@std@@@4@@std@@QEAA@XZ
	??1?$map@W4IMUPacketSymbol@IMUData@@_KU?$less@W4IMUPacketSymbol@IMUData@@@std@@V?$allocator@U?$pair@$$CBW4IMUPacketSymbol@IMUData@@_K@std@@@4@@std@@QEAA@XZ
	??1?$pair@$$CBHUPID_TABLE@ModeConfig@@@std@@QEAA@XZ
	??1?$pair@$$CBU?$pair@GG@std@@V?$vector@V?$basic_string@DU?$char_traits@D@std@@V?$allocator@D@2@@std@@V?$allocator@V?$basic_string@DU?$char_traits@D@std@@V?$allocator@D@2@@std@@@2@@2@@std@@QEAA@XZ
	??1?$pair@$$CBUDeviceSellectInfo@libeYs3D@@V?$shared_ptr@VCameraDevice@devices@libeYs3D@@@std@@@std@@QEAA@XZ
	??1?$pair@V?$_Tree_const_iterator@V?$_Tree_val@U?$_Tree_simple_types@U?$pair@$$CBU?$pair@GG@std@@V?$vector@V?$basic_string@DU?$char_traits@D@std@@V?$allocator@D@2@@std@@V?$allocator@V?$basic_string@DU?$char_traits@D@std@@V?$allocator@D@2@@std@@@2@@2@@std@@@std@@@std@@@std@@V12@@std@@QEAA@XZ
	??1?$pair@V?$_Tree_iterator@V?$_Tree_val@U?$_Tree_simple_types@U?$pair@$$CBHH@std@@@std@@@std@@@std@@_N@std@@QEAA@XZ
	??1?$pair@V?$_Tree_iterator@V?$_Tree_val@U?$_Tree_simple_types@U?$pair@$$CBHUPID_TABLE@ModeConfig@@@std@@@std@@@std@@@std@@_N@std@@QEAA@XZ
	??1?$pair@V?$_Tree_iterator@V?$_Tree_val@U?$_Tree_simple_types@U?$pair@$$CBU?$pair@GG@std@@V?$vector@V?$basic_string@DU?$char_traits@D@std@@V?$allocator@D@2@@std@@V?$allocator@V?$basic_string@DU?$char_traits@D@std@@V?$allocator@D@2@@std@@@2@@2@@std@@@std@@@std@@@std@@_N@std@@QEAA@XZ
	??1?$pair@V?$_Tree_iterator@V?$_Tree_val@U?$_Tree_simple_types@U?$pair@$$CBUDeviceSellectInfo@libeYs3D@@V?$shared_ptr@VCameraDevice@devices@libeYs3D@@@std@@@std@@@std@@@std@@@std@@_N@std@@QEAA@XZ
	??1?$pair@V?$_Tree_iterator@V?$_Tree_val@U?$_Tree_simple_types@U?$pair@$$CBW4IMUPacketSymbol@IMUData@@_K@std@@@std@@@std@@@std@@_N@std@@QEAA@XZ
	??1?$reverse_iterator@V?$_List_iterator@V?$_List_val@U?$_List_simple_types@V?$vector@FV?$allocator@F@std@@@std@@@std@@@std@@@std@@@std@@QEAA@XZ
	??1?$shared_ptr@VCameraDevice@devices@libeYs3D@@@std@@QEAA@XZ
	??1?$shared_ptr@VEYS3DSystem@libeYs3D@@@std@@QEAA@XZ
	??1?$shared_ptr@VFrameSetPipeline@devices@libeYs3D@@@std@@QEAA@XZ
	??1?$shared_ptr@VPipeline@devices@libeYs3D@@@std@@QEAA@XZ
	??1?$unique_ptr@VFrameProducer@video@libeYs3D@@U?$default_delete@VFrameProducer@video@libeYs3D@@@std@@@std@@QEAA@XZ
	??1?$unique_ptr@VModeConfigOptions@@U?$default_delete@VModeConfigOptions@@@std@@@std@@QEAA@XZ
	??1?$unique_ptr@VPCProducer@video@libeYs3D@@U?$default_delete@VPCProducer@video@libeYs3D@@@std@@@std@@QEAA@XZ
	??1?$unique_ptr@V_Facet_base@std@@U?$default_delete@V_Facet_base@std@@@2@@std@@QEAA@XZ
	??1?$vector@EV?$allocator@E@std@@@std@@QEAA@XZ
	??1?$vector@FV?$allocator@F@std@@@std@@QEAA@XZ
	??1?$vector@GV?$allocator@G@std@@@std@@QEAA@XZ
	??1?$vector@HV?$allocator@H@std@@@std@@QEAA@XZ
	??1?$vector@MV?$allocator@M@std@@@std@@QEAA@XZ
	??1?$vector@UCloudPoint@@V?$allocator@UCloudPoint@@@std@@@std@@QEAA@XZ
	??1?$vector@UCommand@?$WorkerThread@V?$Optional@VCallbackWorkItem@sensors@libeYs3D@@@base@libeYs3D@@@base@libeYs3D@@V?$allocator@UCommand@?$WorkerThread@V?$Optional@VCallbackWorkItem@sensors@libeYs3D@@@base@libeYs3D@@@base@libeYs3D@@@std@@@std@@QEAA@XZ
	??1?$vector@UCommand@?$WorkerThread@V?$Optional@VCallbackWorkItem@video@libeYs3D@@@base@libeYs3D@@@base@libeYs3D@@V?$allocator@UCommand@?$WorkerThread@V?$Optional@VCallbackWorkItem@video@libeYs3D@@@base@libeYs3D@@@base@libeYs3D@@@std@@@std@@QEAA@XZ
	??1?$vector@UCommand@?$WorkerThread@V?$Optional@VDACalculateWorkItem@video@libeYs3D@@@base@libeYs3D@@@base@libeYs3D@@V?$allocator@UCommand@?$WorkerThread@V?$Optional@VDACalculateWorkItem@video@libeYs3D@@@base@libeYs3D@@@base@libeYs3D@@@std@@@std@@QEAA@XZ
	??1?$vector@UMODE_CONFIG@ModeConfig@@V?$allocator@UMODE_CONFIG@ModeConfig@@@std@@@std@@QEAA@XZ
	??1?$vector@USensorData@sensors@libeYs3D@@V?$allocator@USensorData@sensors@libeYs3D@@@std@@@std@@QEAA@XZ
	??1?$vector@UtagAPC_STREAM_INFO@@V?$allocator@UtagAPC_STREAM_INFO@@@std@@@std@@QEAA@XZ
	??1?$vector@V?$Optional@V?$WorkerThread@V?$Optional@VCallbackWorkItem@sensors@libeYs3D@@@base@libeYs3D@@@base@libeYs3D@@@base@libeYs3D@@V?$allocator@V?$Optional@V?$WorkerThread@V?$Optional@VCallbackWorkItem@sensors@libeYs3D@@@base@libeYs3D@@@base@libeYs3D@@@base@libeYs3D@@@std@@@std@@QEAA@XZ
	??1?$vector@V?$Optional@V?$WorkerThread@V?$Optional@VCallbackWorkItem@video@libeYs3D@@@base@libeYs3D@@@base@libeYs3D@@@base@libeYs3D@@V?$allocator@V?$Optional@V?$WorkerThread@V?$Optional@VCallbackWorkItem@video@libeYs3D@@@base@libeYs3D@@@base@libeYs3D@@@base@libeYs3D@@@std@@@std@@QEAA@XZ
	??1?$vector@V?$Optional@V?$WorkerThread@V?$Optional@VDACalculateWorkItem@video@libeYs3D@@@base@libeYs3D@@@base@libeYs3D@@@base@libeYs3D@@V?$allocator@V?$Optional@V?$WorkerThread@V?$Optional@VDACalculateWorkItem@video@libeYs3D@@@base@libeYs3D@@@base@libeYs3D@@@base@libeYs3D@@@std@@@std@@QEAA@XZ
	??1?$vector@V?$basic_string@DU?$char_traits@D@std@@V?$allocator@D@2@@std@@V?$allocator@V?$basic_string@DU?$char_traits@D@std@@V?$allocator@D@2@@std@@@2@@std@@QEAA@XZ
	??1AutoLock@base@libeYs3D@@QEAA@XZ
	??1AutoWriteLock@base@libeYs3D@@QEAA@XZ
	??1CallbackWorkItem@sensors@libeYs3D@@QEAA@XZ
	??1CallbackWorkItem@video@libeYs3D@@QEAA@XZ
	??1CameraDevice8036@devices@libeYs3D@@UEAA@XZ
	??1CameraDevice8037@devices@libeYs3D@@UEAA@XZ
	??1CameraDevice8052@devices@libeYs3D@@UEAA@XZ
	??1CameraDevice8053@devices@libeYs3D@@UEAA@XZ
	??1CameraDevice8059@devices@libeYs3D@@UEAA@XZ
	??1CameraDevice8062@devices@libeYs3D@@UEAA@XZ
	??1CameraDevice8067@devices@libeYs3D@@UEAA@XZ
	??1CameraDevice@devices@libeYs3D@@UEAA@XZ
	??1CameraDeviceHypatia@devices@libeYs3D@@UEAA@XZ
	??1CameraDeviceProperties@devices@libeYs3D@@QEAA@XZ
	??1ColorFrameProducer@video@libeYs3D@@UEAA@XZ
	??1Command@?$WorkerThread@V?$Optional@VCallbackWorkItem@sensors@libeYs3D@@@base@libeYs3D@@@base@libeYs3D@@QEAA@XZ
	??1Command@?$WorkerThread@V?$Optional@VCallbackWorkItem@video@libeYs3D@@@base@libeYs3D@@@base@libeYs3D@@QEAA@XZ
	??1Command@?$WorkerThread@V?$Optional@VDACalculateWorkItem@video@libeYs3D@@@base@libeYs3D@@@base@libeYs3D@@QEAA@XZ
	??1DACalculateWorkItem@video@libeYs3D@@QEAA@XZ
	??1DepthFrameProducer@video@libeYs3D@@UEAA@XZ
	??1EYS3DSystem@libeYs3D@@UEAA@XZ
	??1Frame@video@libeYs3D@@QEAA@XZ
	??1FrameProducer@video@libeYs3D@@UEAA@XZ
	??1FrameSetPipeline@devices@libeYs3D@@UEAA@XZ
	??1FunctorThread@base@libeYs3D@@UEAA@XZ
	??1IMUData@@QEAA@XZ
	??1IMUDataProducer@sensors@libeYs3D@@UEAA@XZ
	??1IMUDevice8062@devices@libeYs3D@@UEAA@XZ
	??1IMUDevice@devices@libeYs3D@@UEAA@XZ
	??1IRProperty@devices@libeYs3D@@QEAA@XZ
	??1MODE_CONFIG@ModeConfig@@QEAA@XZ
	??1ModeConfig@@QEAA@XZ
	??1ModeConfigOptions@@QEAA@XZ
	??1PCFrame@video@libeYs3D@@QEAA@XZ
	??1PCFrameProducer@video@libeYs3D@@UEAA@XZ
	??1PCProducer@video@libeYs3D@@UEAA@XZ
	??1PID_TABLE@ModeConfig@@QEAA@XZ
	??1Pipeline@devices@libeYs3D@@UEAA@XZ
	??1Producer@video@libeYs3D@@UEAA@XZ
	??1RegisterReadWriteController@devices@libeYs3D@@UEAA@XZ
	??1SensorDataProducer@sensors@libeYs3D@@UEAA@XZ
	??1SensorDataSet@sensors@libeYs3D@@QEAA@XZ
	??1Thread@base@libeYs3D@@UEAA@XZ
	??1ThreadStoreBase@base@libeYs3D@@QEAA@XZ
	??1_Bxty@?$_String_val@U?$_Simple_types@D@std@@@std@@QEAA@XZ
	??1_Iterator_base12@std@@QEAA@XZ
	??1_Ref_count_base@std@@UEAA@XZ
	??1_Sentry_base@?$basic_istream@DU?$char_traits@D@std@@@std@@QEAA@XZ
	??1_Sentry_base@?$basic_ostream@DU?$char_traits@D@std@@@std@@QEAA@XZ
	??1bad_cast@std@@UEAA@XZ
	??1exception@std@@UEAA@XZ
	??1locale@std@@QEAA@XZ
	??1sentry@?$basic_istream@DU?$char_traits@D@std@@@std@@QEAA@XZ
	??1sentry@?$basic_ostream@DU?$char_traits@D@std@@@std@@QEAA@XZ
	??2@YAPEAX_KPEAX@Z
	??4?$Optional@H@base@libeYs3D@@QEAAAEAV012@$$QEAV012@@Z
	??4?$Optional@USensorData@sensors@libeYs3D@@@base@libeYs3D@@QEAAAEAV012@$$QEAV012@@Z
	??4?$Optional@USensorDataSet@sensors@libeYs3D@@@base@libeYs3D@@QEAAAEAV012@$$QEAV012@@Z
	??4?$Optional@VFrame@video@libeYs3D@@@base@libeYs3D@@QEAAAEAV012@$$QEAV012@@Z
	??4?$_Tree_const_iterator@V?$_Tree_val@U?$_Tree_simple_types@U?$pair@$$CBHUPID_TABLE@ModeConfig@@@std@@@std@@@std@@@std@@QEAAAEAV01@AEBV01@@Z
	??4?$_Tree_const_iterator@V?$_Tree_val@U?$_Tree_simple_types@U?$pair@$$CBU?$pair@GG@std@@V?$vector@V?$basic_string@DU?$char_traits@D@std@@V?$allocator@D@2@@std@@V?$allocator@V?$basic_string@DU?$char_traits@D@std@@V?$allocator@D@2@@std@@@2@@2@@std@@@std@@@std@@@std@@QEAAAEAV01@AEBV01@@Z
	??4?$_Tree_const_iterator@V?$_Tree_val@U?$_Tree_simple_types@U?$pair@$$CBUDeviceSellectInfo@libeYs3D@@V?$shared_ptr@VCameraDevice@devices@libeYs3D@@@std@@@std@@@std@@@std@@@std@@QEAAAEAV01@$$QEAV01@@Z
	??4?$_Tree_const_iterator@V?$_Tree_val@U?$_Tree_simple_types@U?$pair@$$CBUDeviceSellectInfo@libeYs3D@@V?$shared_ptr@VCameraDevice@devices@libeYs3D@@@std@@@std@@@std@@@std@@@std@@QEAAAEAV01@AEBV01@@Z
	??4?$_Tree_const_iterator@V?$_Tree_val@U?$_Tree_simple_types@U?$pair@$$CBW4IMUPacketSymbol@IMUData@@_K@std@@@std@@@std@@@std@@QEAAAEAV01@AEBV01@@Z
	??4?$_Tree_iterator@V?$_Tree_val@U?$_Tree_simple_types@U?$pair@$$CBUDeviceSellectInfo@libeYs3D@@V?$shared_ptr@VCameraDevice@devices@libeYs3D@@@std@@@std@@@std@@@std@@@std@@QEAAAEAV01@$$QEAV01@@Z
	??4?$_Tree_unchecked_const_iterator@V?$_Tree_val@U?$_Tree_simple_types@U?$pair@$$CBHUPID_TABLE@ModeConfig@@@std@@@std@@@std@@U_Iterator_base12@2@@std@@QEAAAEAV01@AEBV01@@Z
	??4?$_Tree_unchecked_const_iterator@V?$_Tree_val@U?$_Tree_simple_types@U?$pair@$$CBU?$pair@GG@std@@V?$vector@V?$basic_string@DU?$char_traits@D@std@@V?$allocator@D@2@@std@@V?$allocator@V?$basic_string@DU?$char_traits@D@std@@V?$allocator@D@2@@std@@@2@@2@@std@@@std@@@std@@U_Iterator_base12@2@@std@@QEAAAEAV01@AEBV01@@Z
	??4?$_Tree_unchecked_const_iterator@V?$_Tree_val@U?$_Tree_simple_types@U?$pair@$$CBUDeviceSellectInfo@libeYs3D@@V?$shared_ptr@VCameraDevice@devices@libeYs3D@@@std@@@std@@@std@@@std@@U_Iterator_base12@2@@std@@QEAAAEAV01@$$QEAV01@@Z
	??4?$_Tree_unchecked_const_iterator@V?$_Tree_val@U?$_Tree_simple_types@U?$pair@$$CBUDeviceSellectInfo@libeYs3D@@V?$shared_ptr@VCameraDevice@devices@libeYs3D@@@std@@@std@@@std@@@std@@U_Iterator_base12@2@@std@@QEAAAEAV01@AEBV01@@Z
	??4?$_Tree_unchecked_const_iterator@V?$_Tree_val@U?$_Tree_simple_types@U?$pair@$$CBW4IMUPacketSymbol@IMUData@@_K@std@@@std@@@std@@U_Iterator_base12@2@@std@@QEAAAEAV01@AEBV01@@Z
	??4?$_Vector_const_iterator@V?$_Vector_val@U?$_Simple_types@UtagAPC_STREAM_INFO@@@std@@@std@@@std@@QEAAAEAV01@$$QEAV01@@Z
	??4?$_Vector_iterator@V?$_Vector_val@U?$_Simple_types@UtagAPC_STREAM_INFO@@@std@@@std@@@std@@QEAAAEAV01@$$QEAV01@@Z
	??4?$basic_string@DU?$char_traits@D@std@@V?$allocator@D@2@@std@@QEAAAEAV01@QEBD@Z
	??4?$function@$$A6AXPEAVFrame@video@libeYs3D@@@Z@std@@QEAAAEAV01@AEBV01@@Z
	??4?$function@$$A6A_NPEBUSensorData@sensors@libeYs3D@@@Z@std@@QEAAAEAV01@$$QEAV01@@Z
	??4?$function@$$A6A_NPEBUSensorDataSet@sensors@libeYs3D@@@Z@std@@QEAAAEAV01@$$QEAV01@@Z
	??4?$function@$$A6A_NPEBVFrame@video@libeYs3D@@@Z@std@@QEAAAEAV01@$$QEAV01@@Z
	??4?$function@$$A6A_NPEBVFrame@video@libeYs3D@@@Z@std@@QEAAAEAV01@$$T@Z
	??4?$function@$$A6A_NPEBVFrame@video@libeYs3D@@@Z@std@@QEAAAEAV01@AEBV01@@Z
	??4?$function@$$A6A_NPEBVPCFrame@video@libeYs3D@@@Z@std@@QEAAAEAV01@$$QEAV01@@Z
	??4?$function@$$A6A_NPEBVPCFrame@video@libeYs3D@@@Z@std@@QEAAAEAV01@$$T@Z
	??4?$shared_ptr@VFrameSetPipeline@devices@libeYs3D@@@std@@QEAAAEAV01@$$QEAV01@@Z
	??4?$shared_ptr@VPipeline@devices@libeYs3D@@@std@@QEAAAEAV01@$$QEAV01@@Z
	??4?$unique_ptr@VFrameProducer@video@libeYs3D@@U?$default_delete@VFrameProducer@video@libeYs3D@@@std@@@std@@QEAAAEAV01@$$QEAV01@@Z
	??4?$unique_ptr@VPCProducer@video@libeYs3D@@U?$default_delete@VPCProducer@video@libeYs3D@@@std@@@std@@QEAAAEAV01@$$QEAV01@@Z
	??4?$vector@EV?$allocator@E@std@@@std@@QEAAAEAV01@$$QEAV01@@Z
	??4?$vector@EV?$allocator@E@std@@@std@@QEAAAEAV01@AEBV01@@Z
	??4?$vector@GV?$allocator@G@std@@@std@@QEAAAEAV01@$$QEAV01@@Z
	??4?$vector@MV?$allocator@M@std@@@std@@QEAAAEAV01@$$QEAV01@@Z
	??4?$vector@USensorData@sensors@libeYs3D@@V?$allocator@USensorData@sensors@libeYs3D@@@std@@@std@@QEAAAEAV01@$$QEAV01@@Z
	??4?$vector@V?$Optional@V?$WorkerThread@V?$Optional@VCallbackWorkItem@sensors@libeYs3D@@@base@libeYs3D@@@base@libeYs3D@@@base@libeYs3D@@V?$allocator@V?$Optional@V?$WorkerThread@V?$Optional@VCallbackWorkItem@sensors@libeYs3D@@@base@libeYs3D@@@base@libeYs3D@@@base@libeYs3D@@@std@@@std@@QEAAAEAV01@$$QEAV01@@Z
	??4?$vector@V?$Optional@V?$WorkerThread@V?$Optional@VCallbackWorkItem@video@libeYs3D@@@base@libeYs3D@@@base@libeYs3D@@@base@libeYs3D@@V?$allocator@V?$Optional@V?$WorkerThread@V?$Optional@VCallbackWorkItem@video@libeYs3D@@@base@libeYs3D@@@base@libeYs3D@@@base@libeYs3D@@@std@@@std@@QEAAAEAV01@$$QEAV01@@Z
	??4?$vector@V?$Optional@V?$WorkerThread@V?$Optional@VDACalculateWorkItem@video@libeYs3D@@@base@libeYs3D@@@base@libeYs3D@@@base@libeYs3D@@V?$allocator@V?$Optional@V?$WorkerThread@V?$Optional@VDACalculateWorkItem@video@libeYs3D@@@base@libeYs3D@@@base@libeYs3D@@@base@libeYs3D@@@std@@@std@@QEAAAEAV01@$$QEAV01@@Z
	??4?$vector@V?$basic_string@DU?$char_traits@D@std@@V?$allocator@D@2@@std@@V?$allocator@V?$basic_string@DU?$char_traits@D@std@@V?$allocator@D@2@@std@@@2@@std@@QEAAAEAV01@$$QEAV01@@Z
	??4Frame@video@libeYs3D@@QEAAAEAV012@$$QEAV012@@Z
	??4PCFrame@video@libeYs3D@@QEAAAEAV012@$$QEAV012@@Z
	??4SensorDataSet@sensors@libeYs3D@@QEAAAEAU012@$$QEAU012@@Z
	??4_Iterator_base12@std@@QEAAAEAU01@AEBU01@@Z
	??6RegisterReadWriteOptions@devices@libeYs3D@@QEAAXAEBV012@@Z
	??8?$_List_const_iterator@V?$_List_val@U?$_List_simple_types@V?$vector@FV?$allocator@F@std@@@std@@@std@@@std@@@std@@QEBA_NAEBV01@@Z
	??8?$_List_unchecked_const_iterator@V?$_List_val@U?$_List_simple_types@V?$vector@FV?$allocator@F@std@@@std@@@std@@@std@@U_Iterator_base0@2@@std@@QEBA_NAEBV01@@Z
	??8?$_Tree_const_iterator@V?$_Tree_val@U?$_Tree_simple_types@U?$pair@$$CBHH@std@@@std@@@std@@@std@@QEBA_NAEBV01@@Z
	??8?$_Tree_const_iterator@V?$_Tree_val@U?$_Tree_simple_types@U?$pair@$$CBHUPID_TABLE@ModeConfig@@@std@@@std@@@std@@@std@@QEBA_NAEBV01@@Z
	??8?$_Tree_const_iterator@V?$_Tree_val@U?$_Tree_simple_types@U?$pair@$$CBU?$pair@GG@std@@V?$vector@V?$basic_string@DU?$char_traits@D@std@@V?$allocator@D@2@@std@@V?$allocator@V?$basic_string@DU?$char_traits@D@std@@V?$allocator@D@2@@std@@@2@@2@@std@@@std@@@std@@@std@@QEBA_NAEBV01@@Z
	??8?$_Tree_const_iterator@V?$_Tree_val@U?$_Tree_simple_types@U?$pair@$$CBUDeviceSellectInfo@libeYs3D@@V?$shared_ptr@VCameraDevice@devices@libeYs3D@@@std@@@std@@@std@@@std@@@std@@QEBA_NAEBV01@@Z
	??8?$_Tree_const_iterator@V?$_Tree_val@U?$_Tree_simple_types@U?$pair@$$CBW4IMUPacketSymbol@IMUData@@_K@std@@@std@@@std@@@std@@QEBA_NAEBV01@@Z
	??8?$_Tree_unchecked_const_iterator@V?$_Tree_val@U?$_Tree_simple_types@U?$pair@$$CBHUPID_TABLE@ModeConfig@@@std@@@std@@@std@@U_Iterator_base0@2@@std@@QEBA_NAEBV01@@Z
	??8?$_Vector_const_iterator@V?$_Vector_val@U?$_Simple_types@UtagAPC_STREAM_INFO@@@std@@@std@@@std@@QEBA_NAEBV01@@Z
	??8DepthAccuracyOptions@devices@libeYs3D@@QEBA_NAEBV012@@Z
	??8IRProperty@devices@libeYs3D@@QEBA_NAEBV012@@Z
	??8RegisterReadWriteOptions@devices@libeYs3D@@QEBA_NAEBV012@@Z
	??9?$_List_const_iterator@V?$_List_val@U?$_List_simple_types@V?$vector@FV?$allocator@F@std@@@std@@@std@@@std@@@std@@QEBA_NAEBV01@@Z
	??9?$_List_unchecked_const_iterator@V?$_List_val@U?$_List_simple_types@V?$vector@FV?$allocator@F@std@@@std@@@std@@@std@@U_Iterator_base0@2@@std@@QEBA_NAEBV01@@Z
	??9?$_Tree_const_iterator@V?$_Tree_val@U?$_Tree_simple_types@U?$pair@$$CBHH@std@@@std@@@std@@@std@@QEBA_NAEBV01@@Z
	??9?$_Tree_const_iterator@V?$_Tree_val@U?$_Tree_simple_types@U?$pair@$$CBHUPID_TABLE@ModeConfig@@@std@@@std@@@std@@@std@@QEBA_NAEBV01@@Z
	??9?$_Tree_const_iterator@V?$_Tree_val@U?$_Tree_simple_types@U?$pair@$$CBU?$pair@GG@std@@V?$vector@V?$basic_string@DU?$char_traits@D@std@@V?$allocator@D@2@@std@@V?$allocator@V?$basic_string@DU?$char_traits@D@std@@V?$allocator@D@2@@std@@@2@@2@@std@@@std@@@std@@@std@@QEBA_NAEBV01@@Z
	??9?$_Tree_const_iterator@V?$_Tree_val@U?$_Tree_simple_types@U?$pair@$$CBUDeviceSellectInfo@libeYs3D@@V?$shared_ptr@VCameraDevice@devices@libeYs3D@@@std@@@std@@@std@@@std@@@std@@QEBA_NAEBV01@@Z
	??9?$_Tree_const_iterator@V?$_Tree_val@U?$_Tree_simple_types@U?$pair@$$CBW4IMUPacketSymbol@IMUData@@_K@std@@@std@@@std@@@std@@QEBA_NAEBV01@@Z
	??9?$_Tree_unchecked_const_iterator@V?$_Tree_val@U?$_Tree_simple_types@U?$pair@$$CBHUPID_TABLE@ModeConfig@@@std@@@std@@@std@@U_Iterator_base0@2@@std@@QEBA_NAEBV01@@Z
	??9?$_Vector_const_iterator@V?$_Vector_val@U?$_Simple_types@UtagAPC_STREAM_INFO@@@std@@@std@@@std@@QEBA_NAEBV01@@Z
	??A?$map@HUPID_TABLE@ModeConfig@@U?$less@H@std@@V?$allocator@U?$pair@$$CBHUPID_TABLE@ModeConfig@@@std@@@4@@std@@QEAAAEAUPID_TABLE@ModeConfig@@AEBH@Z
	??A?$map@U?$pair@GG@std@@V?$vector@V?$basic_string@DU?$char_traits@D@std@@V?$allocator@D@2@@std@@V?$allocator@V?$basic_string@DU?$char_traits@D@std@@V?$allocator@D@2@@std@@@2@@2@U?$less@U?$pair@GG@std@@@2@V?$allocator@U?$pair@$$CBU?$pair@GG@std@@V?$vector@V?$basic_string@DU?$char_traits@D@std@@V?$allocator@D@2@@std@@V?$allocator@V?$basic_string@DU?$char_traits@D@std@@V?$allocator@D@2@@std@@@2@@2@@std@@@2@@std@@QEAAAEAV?$vector@V?$basic_string@DU?$char_traits@D@std@@V?$allocator@D@2@@std@@V?$allocator@V?$basic_string@DU?$char_traits@D@std@@V?$allocator@D@2@@std@@@2@@1@AEBU?$pair@GG@1@@Z
	??A?$map@UDeviceSellectInfo@libeYs3D@@V?$shared_ptr@VCameraDevice@devices@libeYs3D@@@std@@U?$less@UDeviceSellectInfo@libeYs3D@@@4@V?$allocator@U?$pair@$$CBUDeviceSellectInfo@libeYs3D@@V?$shared_ptr@VCameraDevice@devices@libeYs3D@@@std@@@std@@@4@@std@@QEAAAEAV?$shared_ptr@VCameraDevice@devices@libeYs3D@@@1@AEBUDeviceSellectInfo@libeYs3D@@@Z
	??A?$map@W4IMUPacketSymbol@IMUData@@_KU?$less@W4IMUPacketSymbol@IMUData@@@std@@V?$allocator@U?$pair@$$CBW4IMUPacketSymbol@IMUData@@_K@std@@@4@@std@@QEAAAEA_K$$QEAW4IMUPacketSymbol@IMUData@@@Z
	??A?$vector@EV?$allocator@E@std@@@std@@QEAAAEAE_K@Z
	??A?$vector@EV?$allocator@E@std@@@std@@QEBAAEBE_K@Z
	??A?$vector@FV?$allocator@F@std@@@std@@QEAAAEAF_K@Z
	??A?$vector@GV?$allocator@G@std@@@std@@QEAAAEAG_K@Z
	??A?$vector@MV?$allocator@M@std@@@std@@QEAAAEAM_K@Z
	??A?$vector@UCloudPoint@@V?$allocator@UCloudPoint@@@std@@@std@@QEAAAEAUCloudPoint@@_K@Z
	??A?$vector@UMODE_CONFIG@ModeConfig@@V?$allocator@UMODE_CONFIG@ModeConfig@@@std@@@std@@QEAAAEAUMODE_CONFIG@ModeConfig@@_K@Z
	??A?$vector@USensorData@sensors@libeYs3D@@V?$allocator@USensorData@sensors@libeYs3D@@@std@@@std@@QEAAAEAUSensorData@sensors@libeYs3D@@_K@Z
	??A?$vector@USensorData@sensors@libeYs3D@@V?$allocator@USensorData@sensors@libeYs3D@@@std@@@std@@QEBAAEBUSensorData@sensors@libeYs3D@@_K@Z
	??A?$vector@UtagAPC_STREAM_INFO@@V?$allocator@UtagAPC_STREAM_INFO@@@std@@@std@@QEAAAEAUtagAPC_STREAM_INFO@@_K@Z
	??A?$vector@V?$Optional@V?$WorkerThread@V?$Optional@VCallbackWorkItem@video@libeYs3D@@@base@libeYs3D@@@base@libeYs3D@@@base@libeYs3D@@V?$allocator@V?$Optional@V?$WorkerThread@V?$Optional@VCallbackWorkItem@video@libeYs3D@@@base@libeYs3D@@@base@libeYs3D@@@base@libeYs3D@@@std@@@std@@QEAAAEAV?$Optional@V?$WorkerThread@V?$Optional@VCallbackWorkItem@video@libeYs3D@@@base@libeYs3D@@@base@libeYs3D@@@base@libeYs3D@@_K@Z
	??A?$vector@V?$Optional@V?$WorkerThread@V?$Optional@VDACalculateWorkItem@video@libeYs3D@@@base@libeYs3D@@@base@libeYs3D@@@base@libeYs3D@@V?$allocator@V?$Optional@V?$WorkerThread@V?$Optional@VDACalculateWorkItem@video@libeYs3D@@@base@libeYs3D@@@base@libeYs3D@@@base@libeYs3D@@@std@@@std@@QEAAAEAV?$Optional@V?$WorkerThread@V?$Optional@VDACalculateWorkItem@video@libeYs3D@@@base@libeYs3D@@@base@libeYs3D@@@base@libeYs3D@@_K@Z
	??B?$fpos@U_Mbstatet@@@std@@QEBA_JXZ
	??B?$function@$$A6A_JXZ@std@@QEBA_NXZ
	??B?$function@$$A6A_NPEBUSensorData@sensors@libeYs3D@@@Z@std@@QEBA_NXZ
	??B?$function@$$A6A_NPEBUSensorDataSet@sensors@libeYs3D@@@Z@std@@QEBA_NXZ
	??B?$function@$$A6A_NPEBVFrame@video@libeYs3D@@@Z@std@@QEBA_NXZ
	??B?$function@$$A6A_NPEBVPCFrame@video@libeYs3D@@@Z@std@@QEBA_NXZ
	??B?$shared_ptr@VFrameSetPipeline@devices@libeYs3D@@@std@@QEBA_NXZ
	??B?$shared_ptr@VPipeline@devices@libeYs3D@@@std@@QEBA_NXZ
	??B?$unique_ptr@VFrameProducer@video@libeYs3D@@U?$default_delete@VFrameProducer@video@libeYs3D@@@std@@@std@@QEBA_NXZ
	??BOptionalFlagBase@details@base@libeYs3D@@QEBA_NXZ
	??Bsentry@?$basic_istream@DU?$char_traits@D@std@@@std@@QEBA_NXZ
	??Bsentry@?$basic_ostream@DU?$char_traits@D@std@@@std@@QEBA_NXZ
	??C?$Optional@USensorData@sensors@libeYs3D@@@base@libeYs3D@@QEAAPEAUSensorData@sensors@2@XZ
	??C?$Optional@USensorDataSet@sensors@libeYs3D@@@base@libeYs3D@@QEAAPEAUSensorDataSet@sensors@2@XZ
	??C?$Optional@V?$WorkerThread@V?$Optional@VCallbackWorkItem@sensors@libeYs3D@@@base@libeYs3D@@@base@libeYs3D@@@base@libeYs3D@@QEAAPEAV?$WorkerThread@V?$Optional@VCallbackWorkItem@sensors@libeYs3D@@@base@libeYs3D@@@12@XZ
	??C?$Optional@V?$WorkerThread@V?$Optional@VCallbackWorkItem@video@libeYs3D@@@base@libeYs3D@@@base@libeYs3D@@@base@libeYs3D@@QEAAPEAV?$WorkerThread@V?$Optional@VCallbackWorkItem@video@libeYs3D@@@base@libeYs3D@@@12@XZ
	??C?$Optional@V?$WorkerThread@V?$Optional@VDACalculateWorkItem@video@libeYs3D@@@base@libeYs3D@@@base@libeYs3D@@@base@libeYs3D@@QEAAPEAV?$WorkerThread@V?$Optional@VDACalculateWorkItem@video@libeYs3D@@@base@libeYs3D@@@12@XZ
	??C?$Optional@VFrame@video@libeYs3D@@@base@libeYs3D@@QEAAPEAVFrame@video@2@XZ
	??C?$Optional@VPCFrame@video@libeYs3D@@@base@libeYs3D@@QEAAPEAVPCFrame@video@2@XZ
	??C?$_Tree_iterator@V?$_Tree_val@U?$_Tree_simple_types@U?$pair@$$CBHUPID_TABLE@ModeConfig@@@std@@@std@@@std@@@std@@QEBAPEAU?$pair@$$CBHUPID_TABLE@ModeConfig@@@1@XZ
	??C?$_Tree_iterator@V?$_Tree_val@U?$_Tree_simple_types@U?$pair@$$CBU?$pair@GG@std@@V?$vector@V?$basic_string@DU?$char_traits@D@std@@V?$allocator@D@2@@std@@V?$allocator@V?$basic_string@DU?$char_traits@D@std@@V?$allocator@D@2@@std@@@2@@2@@std@@@std@@@std@@@std@@QEBAPEAU?$pair@$$CBU?$pair@GG@std@@V?$vector@V?$basic_string@DU?$char_traits@D@std@@V?$allocator@D@2@@std@@V?$allocator@V?$basic_string@DU?$char_traits@D@std@@V?$allocator@D@2@@std@@@2@@2@@1@XZ
	??C?$_Tree_iterator@V?$_Tree_val@U?$_Tree_simple_types@U?$pair@$$CBUDeviceSellectInfo@libeYs3D@@V?$shared_ptr@VCameraDevice@devices@libeYs3D@@@std@@@std@@@std@@@std@@@std@@QEBAPEAU?$pair@$$CBUDeviceSellectInfo@libeYs3D@@V?$shared_ptr@VCameraDevice@devices@libeYs3D@@@std@@@1@XZ
	??C?$_Tree_iterator@V?$_Tree_val@U?$_Tree_simple_types@U?$pair@$$CBW4IMUPacketSymbol@IMUData@@_K@std@@@std@@@std@@@std@@QEBAPEAU?$pair@$$CBW4IMUPacketSymbol@IMUData@@_K@1@XZ
	??C?$unique_ptr@VFrameProducer@video@libeYs3D@@U?$default_delete@VFrameProducer@video@libeYs3D@@@std@@@std@@QEBAPEAVFrameProducer@video@libeYs3D@@XZ
	??C?$unique_ptr@VModeConfigOptions@@U?$default_delete@VModeConfigOptions@@@std@@@std@@QEBAPEAVModeConfigOptions@@XZ
	??C?$unique_ptr@VPCProducer@video@libeYs3D@@U?$default_delete@VPCProducer@video@libeYs3D@@@std@@@std@@QEBAPEAVPCProducer@video@libeYs3D@@XZ
	??D?$Optional@H@base@libeYs3D@@QEAAAEAHXZ
	??D?$Optional@USensorData@sensors@libeYs3D@@@base@libeYs3D@@QEAAAEAUSensorData@sensors@2@XZ
	??D?$Optional@USensorDataSet@sensors@libeYs3D@@@base@libeYs3D@@QEAAAEAUSensorDataSet@sensors@2@XZ
	??D?$Optional@VFrame@video@libeYs3D@@@base@libeYs3D@@QEAAAEAVFrame@video@2@XZ
	??D?$Optional@VPCFrame@video@libeYs3D@@@base@libeYs3D@@QEAAAEAVPCFrame@video@2@XZ
	??D?$Optional@_K@base@libeYs3D@@QEBAAEB_KXZ
	??D?$_List_const_iterator@V?$_List_val@U?$_List_simple_types@V?$vector@FV?$allocator@F@std@@@std@@@std@@@std@@@std@@QEBAAEBV?$vector@FV?$allocator@F@std@@@1@XZ
	??D?$_List_iterator@V?$_List_val@U?$_List_simple_types@V?$vector@FV?$allocator@F@std@@@std@@@std@@@std@@@std@@QEBAAEAV?$vector@FV?$allocator@F@std@@@1@XZ
	??D?$_List_unchecked_const_iterator@V?$_List_val@U?$_List_simple_types@V?$vector@FV?$allocator@F@std@@@std@@@std@@@std@@U_Iterator_base0@2@@std@@QEBAAEBV?$vector@FV?$allocator@F@std@@@1@XZ
	??D?$_List_unchecked_iterator@V?$_List_val@U?$_List_simple_types@V?$vector@FV?$allocator@F@std@@@std@@@std@@@std@@@std@@QEBAAEAV?$vector@FV?$allocator@F@std@@@1@XZ
	??D?$_String_const_iterator@V?$_String_val@U?$_Simple_types@D@std@@@std@@@std@@QEBAAEBDXZ
	??D?$_String_iterator@V?$_String_val@U?$_Simple_types@D@std@@@std@@@std@@QEBAAEADXZ
	??D?$_Tree_const_iterator@V?$_Tree_val@U?$_Tree_simple_types@U?$pair@$$CBHUPID_TABLE@ModeConfig@@@std@@@std@@@std@@@std@@QEBAAEBU?$pair@$$CBHUPID_TABLE@ModeConfig@@@1@XZ
	??D?$_Tree_const_iterator@V?$_Tree_val@U?$_Tree_simple_types@U?$pair@$$CBU?$pair@GG@std@@V?$vector@V?$basic_string@DU?$char_traits@D@std@@V?$allocator@D@2@@std@@V?$allocator@V?$basic_string@DU?$char_traits@D@std@@V?$allocator@D@2@@std@@@2@@2@@std@@@std@@@std@@@std@@QEBAAEBU?$pair@$$CBU?$pair@GG@std@@V?$vector@V?$basic_string@DU?$char_traits@D@std@@V?$allocator@D@2@@std@@V?$allocator@V?$basic_string@DU?$char_traits@D@std@@V?$allocator@D@2@@std@@@2@@2@@1@XZ
	??D?$_Tree_const_iterator@V?$_Tree_val@U?$_Tree_simple_types@U?$pair@$$CBUDeviceSellectInfo@libeYs3D@@V?$shared_ptr@VCameraDevice@devices@libeYs3D@@@std@@@std@@@std@@@std@@@std@@QEBAAEBU?$pair@$$CBUDeviceSellectInfo@libeYs3D@@V?$shared_ptr@VCameraDevice@devices@libeYs3D@@@std@@@1@XZ
	??D?$_Tree_const_iterator@V?$_Tree_val@U?$_Tree_simple_types@U?$pair@$$CBW4IMUPacketSymbol@IMUData@@_K@std@@@std@@@std@@@std@@QEBAAEBU?$pair@$$CBW4IMUPacketSymbol@IMUData@@_K@1@XZ
	??D?$_Tree_iterator@V?$_Tree_val@U?$_Tree_simple_types@U?$pair@$$CBHUPID_TABLE@ModeConfig@@@std@@@std@@@std@@@std@@QEBAAEAU?$pair@$$CBHUPID_TABLE@ModeConfig@@@1@XZ
	??D?$_Tree_iterator@V?$_Tree_val@U?$_Tree_simple_types@U?$pair@$$CBU?$pair@GG@std@@V?$vector@V?$basic_string@DU?$char_traits@D@std@@V?$allocator@D@2@@std@@V?$allocator@V?$basic_string@DU?$char_traits@D@std@@V?$allocator@D@2@@std@@@2@@2@@std@@@std@@@std@@@std@@QEBAAEAU?$pair@$$CBU?$pair@GG@std@@V?$vector@V?$basic_string@DU?$char_traits@D@std@@V?$allocator@D@2@@std@@V?$allocator@V?$basic_string@DU?$char_traits@D@std@@V?$allocator@D@2@@std@@@2@@2@@1@XZ
	??D?$_Tree_iterator@V?$_Tree_val@U?$_Tree_simple_types@U?$pair@$$CBUDeviceSellectInfo@libeYs3D@@V?$shared_ptr@VCameraDevice@devices@libeYs3D@@@std@@@std@@@std@@@std@@@std@@QEBAAEAU?$pair@$$CBUDeviceSellectInfo@libeYs3D@@V?$shared_ptr@VCameraDevice@devices@libeYs3D@@@std@@@1@XZ
	??D?$_Tree_iterator@V?$_Tree_val@U?$_Tree_simple_types@U?$pair@$$CBW4IMUPacketSymbol@IMUData@@_K@std@@@std@@@std@@@std@@QEBAAEAU?$pair@$$CBW4IMUPacketSymbol@IMUData@@_K@1@XZ
	??D?$_Tree_unchecked_const_iterator@V?$_Tree_val@U?$_Tree_simple_types@U?$pair@$$CBHUPID_TABLE@ModeConfig@@@std@@@std@@@std@@U_Iterator_base0@2@@std@@QEBAAEBU?$pair@$$CBHUPID_TABLE@ModeConfig@@@1@XZ
	??D?$_Tree_unchecked_iterator@V?$_Tree_val@U?$_Tree_simple_types@U?$pair@$$CBHUPID_TABLE@ModeConfig@@@std@@@std@@@std@@@std@@QEBAAEAU?$pair@$$CBHUPID_TABLE@ModeConfig@@@1@XZ
	??D?$_Vector_const_iterator@V?$_Vector_val@U?$_Simple_types@UtagAPC_STREAM_INFO@@@std@@@std@@@std@@QEBAAEBUtagAPC_STREAM_INFO@@XZ
	??D?$_Vector_iterator@V?$_Vector_val@U?$_Simple_types@UtagAPC_STREAM_INFO@@@std@@@std@@@std@@QEBAAEAUtagAPC_STREAM_INFO@@XZ
	??D?$reverse_iterator@V?$_List_iterator@V?$_List_val@U?$_List_simple_types@V?$vector@FV?$allocator@F@std@@@std@@@std@@@std@@@std@@@std@@QEBAAEAV?$vector@FV?$allocator@F@std@@@1@XZ
	??E?$_List_const_iterator@V?$_List_val@U?$_List_simple_types@V?$vector@FV?$allocator@F@std@@@std@@@std@@@std@@@std@@QEAA?AV01@H@Z
	??E?$_List_const_iterator@V?$_List_val@U?$_List_simple_types@V?$vector@FV?$allocator@F@std@@@std@@@std@@@std@@@std@@QEAAAEAV01@XZ
	??E?$_List_unchecked_const_iterator@V?$_List_val@U?$_List_simple_types@V?$vector@FV?$allocator@F@std@@@std@@@std@@@std@@U_Iterator_base0@2@@std@@QEAAAEAV01@XZ
	??E?$_List_unchecked_iterator@V?$_List_val@U?$_List_simple_types@V?$vector@FV?$allocator@F@std@@@std@@@std@@@std@@@std@@QEAAAEAV01@XZ
	??E?$_Tree_const_iterator@V?$_Tree_val@U?$_Tree_simple_types@U?$pair@$$CBHH@std@@@std@@@std@@@std@@QEAA?AV01@H@Z
	??E?$_Tree_const_iterator@V?$_Tree_val@U?$_Tree_simple_types@U?$pair@$$CBHH@std@@@std@@@std@@@std@@QEAAAEAV01@XZ
	??E?$_Tree_const_iterator@V?$_Tree_val@U?$_Tree_simple_types@U?$pair@$$CBHUPID_TABLE@ModeConfig@@@std@@@std@@@std@@@std@@QEAA?AV01@H@Z
	??E?$_Tree_const_iterator@V?$_Tree_val@U?$_Tree_simple_types@U?$pair@$$CBHUPID_TABLE@ModeConfig@@@std@@@std@@@std@@@std@@QEAAAEAV01@XZ
	??E?$_Tree_const_iterator@V?$_Tree_val@U?$_Tree_simple_types@U?$pair@$$CBU?$pair@GG@std@@V?$vector@V?$basic_string@DU?$char_traits@D@std@@V?$allocator@D@2@@std@@V?$allocator@V?$basic_string@DU?$char_traits@D@std@@V?$allocator@D@2@@std@@@2@@2@@std@@@std@@@std@@@std@@QEAA?AV01@H@Z
	??E?$_Tree_const_iterator@V?$_Tree_val@U?$_Tree_simple_types@U?$pair@$$CBU?$pair@GG@std@@V?$vector@V?$basic_string@DU?$char_traits@D@std@@V?$allocator@D@2@@std@@V?$allocator@V?$basic_string@DU?$char_traits@D@std@@V?$allocator@D@2@@std@@@2@@2@@std@@@std@@@std@@@std@@QEAAAEAV01@XZ
	??E?$_Tree_const_iterator@V?$_Tree_val@U?$_Tree_simple_types@U?$pair@$$CBUDeviceSellectInfo@libeYs3D@@V?$shared_ptr@VCameraDevice@devices@libeYs3D@@@std@@@std@@@std@@@std@@@std@@QEAA?AV01@H@Z
	??E?$_Tree_const_iterator@V?$_Tree_val@U?$_Tree_simple_types@U?$pair@$$CBUDeviceSellectInfo@libeYs3D@@V?$shared_ptr@VCameraDevice@devices@libeYs3D@@@std@@@std@@@std@@@std@@@std@@QEAAAEAV01@XZ
	??E?$_Tree_const_iterator@V?$_Tree_val@U?$_Tree_simple_types@U?$pair@$$CBW4IMUPacketSymbol@IMUData@@_K@std@@@std@@@std@@@std@@QEAA?AV01@H@Z
	??E?$_Tree_const_iterator@V?$_Tree_val@U?$_Tree_simple_types@U?$pair@$$CBW4IMUPacketSymbol@IMUData@@_K@std@@@std@@@std@@@std@@QEAAAEAV01@XZ
	??E?$_Tree_iterator@V?$_Tree_val@U?$_Tree_simple_types@U?$pair@$$CBUDeviceSellectInfo@libeYs3D@@V?$shared_ptr@VCameraDevice@devices@libeYs3D@@@std@@@std@@@std@@@std@@@std@@QEAA?AV01@H@Z
	??E?$_Tree_iterator@V?$_Tree_val@U?$_Tree_simple_types@U?$pair@$$CBUDeviceSellectInfo@libeYs3D@@V?$shared_ptr@VCameraDevice@devices@libeYs3D@@@std@@@std@@@std@@@std@@@std@@QEAAAEAV01@XZ
	??E?$_Tree_unchecked_const_iterator@V?$_Tree_val@U?$_Tree_simple_types@U?$pair@$$CBHH@std@@@std@@@std@@U_Iterator_base12@2@@std@@QEAAAEAV01@XZ
	??E?$_Tree_unchecked_const_iterator@V?$_Tree_val@U?$_Tree_simple_types@U?$pair@$$CBHUPID_TABLE@ModeConfig@@@std@@@std@@@std@@U_Iterator_base0@2@@std@@QEAAAEAV01@XZ
	??E?$_Tree_unchecked_const_iterator@V?$_Tree_val@U?$_Tree_simple_types@U?$pair@$$CBHUPID_TABLE@ModeConfig@@@std@@@std@@@std@@U_Iterator_base12@2@@std@@QEAAAEAV01@XZ
	??E?$_Tree_unchecked_const_iterator@V?$_Tree_val@U?$_Tree_simple_types@U?$pair@$$CBU?$pair@GG@std@@V?$vector@V?$basic_string@DU?$char_traits@D@std@@V?$allocator@D@2@@std@@V?$allocator@V?$basic_string@DU?$char_traits@D@std@@V?$allocator@D@2@@std@@@2@@2@@std@@@std@@@std@@U_Iterator_base12@2@@std@@QEAAAEAV01@XZ
	??E?$_Tree_unchecked_const_iterator@V?$_Tree_val@U?$_Tree_simple_types@U?$pair@$$CBUDeviceSellectInfo@libeYs3D@@V?$shared_ptr@VCameraDevice@devices@libeYs3D@@@std@@@std@@@std@@@std@@U_Iterator_base12@2@@std@@QEAAAEAV01@XZ
	??E?$_Tree_unchecked_const_iterator@V?$_Tree_val@U?$_Tree_simple_types@U?$pair@$$CBW4IMUPacketSymbol@IMUData@@_K@std@@@std@@@std@@U_Iterator_base12@2@@std@@QEAAAEAV01@XZ
	??E?$_Tree_unchecked_iterator@V?$_Tree_val@U?$_Tree_simple_types@U?$pair@$$CBHUPID_TABLE@ModeConfig@@@std@@@std@@@std@@@std@@QEAAAEAV01@XZ
	??E?$_Vector_const_iterator@V?$_Vector_val@U?$_Simple_types@UtagAPC_STREAM_INFO@@@std@@@std@@@std@@QEAAAEAV01@XZ
	??E?$_Vector_iterator@V?$_Vector_val@U?$_Simple_types@UtagAPC_STREAM_INFO@@@std@@@std@@@std@@QEAAAEAV01@XZ
	??F?$_List_const_iterator@V?$_List_val@U?$_List_simple_types@V?$vector@FV?$allocator@F@std@@@std@@@std@@@std@@@std@@QEAAAEAV01@XZ
	??F?$_List_iterator@V?$_List_val@U?$_List_simple_types@V?$vector@FV?$allocator@F@std@@@std@@@std@@@std@@@std@@QEAAAEAV01@XZ
	??F?$_Tree_const_iterator@V?$_Tree_val@U?$_Tree_simple_types@U?$pair@$$CBHH@std@@@std@@@std@@@std@@QEAAAEAV01@XZ
	??F?$_Tree_const_iterator@V?$_Tree_val@U?$_Tree_simple_types@U?$pair@$$CBHUPID_TABLE@ModeConfig@@@std@@@std@@@std@@@std@@QEAAAEAV01@XZ
	??F?$_Tree_const_iterator@V?$_Tree_val@U?$_Tree_simple_types@U?$pair@$$CBU?$pair@GG@std@@V?$vector@V?$basic_string@DU?$char_traits@D@std@@V?$allocator@D@2@@std@@V?$allocator@V?$basic_string@DU?$char_traits@D@std@@V?$allocator@D@2@@std@@@2@@2@@std@@@std@@@std@@@std@@QEAAAEAV01@XZ
	??F?$_Tree_const_iterator@V?$_Tree_val@U?$_Tree_simple_types@U?$pair@$$CBUDeviceSellectInfo@libeYs3D@@V?$shared_ptr@VCameraDevice@devices@libeYs3D@@@std@@@std@@@std@@@std@@@std@@QEAAAEAV01@XZ
	??F?$_Tree_const_iterator@V?$_Tree_val@U?$_Tree_simple_types@U?$pair@$$CBW4IMUPacketSymbol@IMUData@@_K@std@@@std@@@std@@@std@@QEAAAEAV01@XZ
	??F?$_Tree_iterator@V?$_Tree_val@U?$_Tree_simple_types@U?$pair@$$CBHH@std@@@std@@@std@@@std@@QEAAAEAV01@XZ
	??F?$_Tree_iterator@V?$_Tree_val@U?$_Tree_simple_types@U?$pair@$$CBHUPID_TABLE@ModeConfig@@@std@@@std@@@std@@@std@@QEAAAEAV01@XZ
	??F?$_Tree_iterator@V?$_Tree_val@U?$_Tree_simple_types@U?$pair@$$CBU?$pair@GG@std@@V?$vector@V?$basic_string@DU?$char_traits@D@std@@V?$allocator@D@2@@std@@V?$allocator@V?$basic_string@DU?$char_traits@D@std@@V?$allocator@D@2@@std@@@2@@2@@std@@@std@@@std@@@std@@QEAAAEAV01@XZ
	??F?$_Tree_iterator@V?$_Tree_val@U?$_Tree_simple_types@U?$pair@$$CBUDeviceSellectInfo@libeYs3D@@V?$shared_ptr@VCameraDevice@devices@libeYs3D@@@std@@@std@@@std@@@std@@@std@@QEAAAEAV01@XZ
	??F?$_Tree_iterator@V?$_Tree_val@U?$_Tree_simple_types@U?$pair@$$CBW4IMUPacketSymbol@IMUData@@_K@std@@@std@@@std@@@std@@QEAAAEAV01@XZ
	??F?$_Tree_unchecked_const_iterator@V?$_Tree_val@U?$_Tree_simple_types@U?$pair@$$CBHH@std@@@std@@@std@@U_Iterator_base12@2@@std@@QEAAAEAV01@XZ
	??F?$_Tree_unchecked_const_iterator@V?$_Tree_val@U?$_Tree_simple_types@U?$pair@$$CBHUPID_TABLE@ModeConfig@@@std@@@std@@@std@@U_Iterator_base12@2@@std@@QEAAAEAV01@XZ
	??F?$_Tree_unchecked_const_iterator@V?$_Tree_val@U?$_Tree_simple_types@U?$pair@$$CBU?$pair@GG@std@@V?$vector@V?$basic_string@DU?$char_traits@D@std@@V?$allocator@D@2@@std@@V?$allocator@V?$basic_string@DU?$char_traits@D@std@@V?$allocator@D@2@@std@@@2@@2@@std@@@std@@@std@@U_Iterator_base12@2@@std@@QEAAAEAV01@XZ
	??F?$_Tree_unchecked_const_iterator@V?$_Tree_val@U?$_Tree_simple_types@U?$pair@$$CBUDeviceSellectInfo@libeYs3D@@V?$shared_ptr@VCameraDevice@devices@libeYs3D@@@std@@@std@@@std@@@std@@U_Iterator_base12@2@@std@@QEAAAEAV01@XZ
	??F?$_Tree_unchecked_const_iterator@V?$_Tree_val@U?$_Tree_simple_types@U?$pair@$$CBW4IMUPacketSymbol@IMUData@@_K@std@@@std@@@std@@U_Iterator_base12@2@@std@@QEAAAEAV01@XZ
	??H?$_Vector_iterator@V?$_Vector_val@U?$_Simple_types@M@std@@@std@@@std@@QEBA?AV01@_J@Z
	??H?$_Vector_iterator@V?$_Vector_val@U?$_Simple_types@UCloudPoint@@@std@@@std@@@std@@QEBA?AV01@_J@Z
	??MDeviceSellectInfo@libeYs3D@@QEBA_NAEBU01@@Z
	??PRegisterReadWriteOptions@devices@libeYs3D@@QEBA_NAEBV012@@Z
	??R<lambda_1b1d21d4d0a625f2ca46306f492426c3>@@QEBAPEAGPEAG_K@Z
	??R<lambda_24780451169aff7b21d8dc81a5c8ea5e>@@QEBAPEAUtagAPC_STREAM_INFO@@PEAU1@_K@Z
	??R<lambda_2b51424039c320f102fd798e073c89b2>@@QEBAPEAEPEAE_K@Z
	??R<lambda_319d5e083f45f90dcdce5dce53cbb275>@@QEBAXQEADQEBD_KD@Z
	??R<lambda_488c629a0a7c1ecc954ac8047e960599>@@QEBA_JXZ
	??R<lambda_4cde73e63763cb313bd212247f8ddbb0>@@QEBA?AW4WorkerProcessingResult@base@libeYs3D@@$$QEAV?$Optional@VDACalculateWorkItem@video@libeYs3D@@@23@@Z
	??R<lambda_530843cc44829e3530ea01af34e42038>@@QEBA?AW4WorkerProcessingResult@base@libeYs3D@@$$QEAV?$Optional@VCallbackWorkItem@sensors@libeYs3D@@@23@@Z
	??R<lambda_5d91c21a7dab2480088f44d5291e9dfa>@@QEBAPEAGPEAG_K@Z
	??R<lambda_644b0c6f6f426dfd6f91480300661176>@@QEBAXXZ
	??R<lambda_65e615be2a453ca0576c979606f46740>@@QEBAXQEADQEBD_K12@Z
	??R<lambda_66f57f934f28d61049862f64df852ff0>@@QEBAXQEAD_KQEBD@Z
	??R<lambda_69d578ede27bd906c7e1bc689c004001>@@QEBA_JXZ
	??R<lambda_74be05070710ffacd29b9292ee44c745>@@QEBAPEAFPEAF_K@Z
	??R<lambda_91e74e7942ac848116ee9e34f55e92a4>@@QEBAPEAUSensorData@sensors@libeYs3D@@PEAU123@_K@Z
	??R<lambda_9f92d7825455e143dbf3293131d714f3>@@QEBA?AW4WorkerProcessingResult@base@libeYs3D@@$$QEAV?$Optional@VCallbackWorkItem@video@libeYs3D@@@23@@Z
	??R<lambda_a0fd67340d08d33487be225a22701bdb>@@QEBAPEAMPEAM_K@Z
	??R<lambda_c26ef134520f1d4904a3b959b66e0c10>@@QEBAXXZ
	??R<lambda_dbbb479bfc9ffc0a9f130fbf77aabe71>@@QEBAXXZ
	??R<lambda_fd68a9891d2d9d887c20652be0ece82a>@@QEBA_JXZ
	??R?$_Func_class@W4WorkerProcessingResult@base@libeYs3D@@$$QEAV?$Optional@VCallbackWorkItem@sensors@libeYs3D@@@23@@std@@QEBA?AW4WorkerProcessingResult@base@libeYs3D@@$$QEAV?$Optional@VCallbackWorkItem@sensors@libeYs3D@@@34@@Z
	??R?$_Func_class@W4WorkerProcessingResult@base@libeYs3D@@$$QEAV?$Optional@VCallbackWorkItem@video@libeYs3D@@@23@@std@@QEBA?AW4WorkerProcessingResult@base@libeYs3D@@$$QEAV?$Optional@VCallbackWorkItem@video@libeYs3D@@@34@@Z
	??R?$_Func_class@W4WorkerProcessingResult@base@libeYs3D@@$$QEAV?$Optional@VDACalculateWorkItem@video@libeYs3D@@@23@@std@@QEBA?AW4WorkerProcessingResult@base@libeYs3D@@$$QEAV?$Optional@VDACalculateWorkItem@video@libeYs3D@@@34@@Z
	??R?$_Func_class@X$$QEAVCallbackWorkItem@sensors@libeYs3D@@@std@@QEBAX$$QEAVCallbackWorkItem@sensors@libeYs3D@@@Z
	??R?$_Func_class@X$$QEAVCallbackWorkItem@video@libeYs3D@@@std@@QEBAX$$QEAVCallbackWorkItem@video@libeYs3D@@@Z
	??R?$_Func_class@X$$QEAVDACalculateWorkItem@video@libeYs3D@@@std@@QEBAX$$QEAVDACalculateWorkItem@video@libeYs3D@@@Z
	??R?$_Func_class@XPEAVFrame@video@libeYs3D@@@std@@QEBAXPEAVFrame@video@libeYs3D@@@Z
	??R?$_Func_class@_J$$V@std@@QEBA_JXZ
	??R?$_Func_class@_NPEBUSensorData@sensors@libeYs3D@@@std@@QEBA_NPEBUSensorData@sensors@libeYs3D@@@Z
	??R?$_Func_class@_NPEBUSensorDataSet@sensors@libeYs3D@@@std@@QEBA_NPEBUSensorDataSet@sensors@libeYs3D@@@Z
	??R?$_Func_class@_NPEBVFrame@video@libeYs3D@@@std@@QEBA_NPEBVFrame@video@libeYs3D@@@Z
	??R?$_Func_class@_NPEBVPCFrame@video@libeYs3D@@@std@@QEBA_NPEBVPCFrame@video@libeYs3D@@@Z
	??R?$default_delete@VFrameProducer@video@libeYs3D@@@std@@QEBAXPEAVFrameProducer@video@libeYs3D@@@Z
	??R?$default_delete@VModeConfigOptions@@@std@@QEBAXPEAVModeConfigOptions@@@Z
	??R?$default_delete@VPCProducer@video@libeYs3D@@@std@@QEBAXPEAVPCProducer@video@libeYs3D@@@Z
	??R?$default_delete@V_Facet_base@std@@@std@@QEBAXPEAV_Facet_base@1@@Z
	??R?$less@H@std@@QEBA_NAEBH0@Z
	??R?$less@U?$pair@GG@std@@@std@@QEBA_NAEBU?$pair@GG@1@0@Z
	??R?$less@UDeviceSellectInfo@libeYs3D@@@std@@QEBA_NAEBUDeviceSellectInfo@libeYs3D@@0@Z
	??R?$less@W4IMUPacketSymbol@IMUData@@@std@@QEBA_NAEBW4IMUPacketSymbol@IMUData@@0@Z
	??Y?$_Vector_const_iterator@V?$_Vector_val@U?$_Simple_types@M@std@@@std@@@std@@QEAAAEAV01@_J@Z
	??Y?$_Vector_const_iterator@V?$_Vector_val@U?$_Simple_types@UCloudPoint@@@std@@@std@@@std@@QEAAAEAV01@_J@Z
	??Y?$_Vector_iterator@V?$_Vector_val@U?$_Simple_types@M@std@@@std@@@std@@QEAAAEAV01@_J@Z
	??Y?$_Vector_iterator@V?$_Vector_val@U?$_Simple_types@UCloudPoint@@@std@@@std@@@std@@QEAAAEAV01@_J@Z
	??Y?$basic_string@DU?$char_traits@D@std@@V?$allocator@D@2@@std@@QEAAAEAV01@D@Z
	??_D?$basic_ifstream@DU?$char_traits@D@std@@@std@@QEAAXXZ
	??_D?$basic_ofstream@DU?$char_traits@D@std@@@std@@QEAAXXZ
	??_D?$basic_ostringstream@DU?$char_traits@D@std@@V?$allocator@D@2@@std@@QEAAXXZ
	??_D?$basic_stringstream@DU?$char_traits@D@std@@V?$allocator@D@2@@std@@QEAAXXZ
	??_FFrame@video@libeYs3D@@QEAAXXZ
	??_FPCFrame@video@libeYs3D@@QEAAXXZ
	??_FSensorData@sensors@libeYs3D@@QEAAXXZ
	??_FSensorDataSet@sensors@libeYs3D@@QEAAXXZ
	??_H@YAXPEAX_K1P6APEAX0@Z@Z
	?CF_FILTER@PlyFilter@@SAXAEAV?$vector@EV?$allocator@E@std@@@std@@V23@HHHHAEAV?$vector@MV?$allocator@M@std@@@3@PEAUeSPCtrl_RectLogData@@@Z
	?CF_FILTER@PlyFilter@@SAXAEAV?$vector@EV?$allocator@E@std@@@std@@V23@HHHHAEAV?$vector@MV?$allocator@M@std@@@3@PEAUtagWMedFilter_1Param@@PEAUtagWMedFilterParam@@PEAUtagWMeanFilterFloatParam@@PEAUeSPCtrl_RectLogData@@@Z
	?CF_FILTER_Z14@PlyFilter@@SAXAEAV?$vector@EV?$allocator@E@std@@@std@@V23@HHHHAEAV?$vector@MV?$allocator@M@std@@@3@PEAUeSPCtrl_RectLogData@@@Z
	?CF_FILTER_Z14@PlyFilter@@SAXAEAV?$vector@EV?$allocator@E@std@@@std@@V23@HHHHAEAV?$vector@MV?$allocator@M@std@@@3@PEAUtagWMedFilter_1Param@@PEAUtagWMedFilterParam@@PEAUtagWMeanFilterFloatParam@@PEAUeSPCtrl_RectLogData@@@Z
	?DM_Quality_Register_Setting@RegisterSettings@@SAHPEAXPEAUtagDEVSEL@@G@Z
	?DM_Quality_Register_Setting_For15cm@RegisterSettings@@SAHPEAXPEAUtagDEVSEL@@@Z
	?DM_Quality_Register_Setting_For6cm@RegisterSettings@@SAHPEAXPEAUtagDEVSEL@@@Z
	?DepthDataTypeToDepthImageType@APCImageType@@SA?AW4Value@1@G@Z
	?DmColorMode14@ColorPaletteGenerator@@SAXPEAUtagRGBQUAD@@MM_N@Z
	?DmGrayMode14@ColorPaletteGenerator@@SAXPEAUtagRGBQUAD@@MM_N@Z
	?ForEx8053Mode9@RegisterSettings@@SAHPEAXPEAUtagDEVSEL@@@Z
	?FrameSync8053_8059@RegisterSettings@@SAHPEAXPEAUtagDEVSEL@@@Z
	?FrameSync8053_8059_Clock@RegisterSettings@@SAHPEAXPEAUtagDEVSEL@@@Z
	?FrameSync8053_8059_Reset@RegisterSettings@@SAHPEAXPEAUtagDEVSEL@@@Z
	?Framesync@RegisterSettings@@SAHPEAXPEAUtagDEVSEL@@1HHHH_NHH@Z
	?FramesyncD0@RegisterSettings@@SAHPEAXPEAUtagDEVSEL@@HHHH_NH@Z
	?FramesyncFor8040S@RegisterSettings@@SAHPEAXPEAUtagDEVSEL@@HHHH_NH@Z
	?FramesyncFor8054@RegisterSettings@@SAHPEAXPEAUtagDEVSEL@@HHHH_NH@Z
	?GetFilterParams@PlyFilter@@SAXPEAUtagWMedFilter_1Param@@PEAUtagWMedFilterParam@@PEAUtagWMeanFilterFloatParam@@@Z
	?GetIMU_Type@ModeConfig@@QEAA?AW4IMU_TYPE@1@H@Z
	?GetModeConfigList@ModeConfig@@QEAAAEBV?$vector@UMODE_CONFIG@ModeConfig@@V?$allocator@UMODE_CONFIG@ModeConfig@@@std@@@std@@H@Z
	?GetModes@ModeConfigOptions@@QEAA?AV?$vector@UMODE_CONFIG@ModeConfig@@V?$allocator@UMODE_CONFIG@ModeConfig@@@std@@@std@@XZ
	?HSV_to_RGB@ColorPaletteGenerator@@CAXNNNAEAN00@Z
	?IsImageColor@APCImageType@@SA_NW4Value@1@@Z
	?IsImageDepth@APCImageType@@SA_NW4Value@1@@Z
	?LOG_COLOR_PRODUCER_TICK@@YAXPEBD0ZZ
	?LOG_DEBUG_S@@YAXPEBD0ZZ
	?LOG_DEPTH_ACCURACY@@YAXPEBD0ZZ
	?LOG_DEPTH_PRODUCER_TICK@@YAXPEBD0ZZ
	?LOG_ERR_S@@YAXPEBD0ZZ
	?LOG_IMU_PRODUCER_TICK@@YAXPEBD0ZZ
	?LOG_INFO@@YAXPEBD0ZZ
	?LOG_INFO_VITAL@@YAXPEBD0ZZ
	?LOG_PC_PRODUCER_TICK@@YAXPEBD0ZZ
	?LOG_PERFORMANCE@@YAXPEBD0ZZ
	?LOG_VERBOSE_S@@YAXPEBD0ZZ
	?LOG_WARN@@YAXPEBD0ZZ
	?MakeGaussTab@PlyFilter@@SAXPEAMM@Z
	?MakeMeanTab@PlyFilter@@SAXPEAMM@Z
	?MemoryAllocator__allocate@devices@libeYs3D@@YAPEAXPEAVCameraDevice@12@_K@Z
	?MemoryAllocator__deallocate@devices@libeYs3D@@YAXPEAVCameraDevice@12@PEAX_K@Z
	?MemoryAllocator__max_size@devices@libeYs3D@@YA_KPEAVCameraDevice@12@@Z
	?MonoBilinearFineScaler@PlyWriter@@SAXPEAE0HHHHH@Z
	?MonoBilinearFineScaler@PlyWriter@@SAXPEAE0HHHHHH@Z
	?MonoBilinearFineScaler_float@PlyWriter@@SAXPEAM0HHHHH@Z
	?MonoBilinearFineScaler_short@PlyWriter@@SAXPEAG0HHHHH@Z
	?OnThreadExit@ThreadStoreBase@base@libeYs3D@@SAXXZ
	?ReadModeConfig@ModeConfig@@AEAAXPEBD@Z
	?SetPixelUnit@CameraDevice@devices@libeYs3D@@QEAAXF@Z
	?UnavailableDisparityCancellation@PlyFilter@@SAXAEAV?$vector@EV?$allocator@E@std@@@std@@HHH@Z
	?UpdateFocalLength@CameraDevice@devices@libeYs3D@@QEAAXXZ
	?UpdatePixelUnit@CameraDevice@devices@libeYs3D@@QEAAXXZ
	?WMeanFilter@PlyFilter@@SAXPEAEPEAG1PEAMHHPEAUtagWMeanFilterParam@@@Z
	?WMeanFilterFloat@PlyFilter@@SAXPEAM00HHPEAUtagWMeanFilterFloatParam@@@Z
	?WMedFilter@PlyFilter@@SAXPEAEPEAG1PEAMHHPEAUtagWMedFilterParam@@@Z
	?WMedFilter_1@PlyFilter@@SAXPEAEPEAG1PEAMHHPEAUtagWMedFilter_1Param@@@Z
	?_Adjust_manually_vector_aligned@std@@YAXAEAPEAXAEA_K@Z
	?_Adopt@_Iterator_base0@std@@QEAAXPEBX@Z
	?_Adopt@_Iterator_base12@std@@QEAAXPEBU_Container_base12@2@@Z
	?_Alloc_proxy@?$_List_alloc@U?$_List_base_types@V?$vector@FV?$allocator@F@std@@@std@@V?$allocator@V?$vector@FV?$allocator@F@std@@@std@@@2@@std@@@std@@QEAAXXZ
	?_Alloc_proxy@?$_String_alloc@U?$_String_base_types@DV?$allocator@D@std@@@std@@@std@@QEAAXXZ
	?_Alloc_proxy@?$_Tree_comp_alloc@V?$_Tmap_traits@HHU?$less@H@std@@V?$allocator@U?$pair@$$CBHH@std@@@2@$0A@@std@@@std@@QEAAXXZ
	?_Alloc_proxy@?$_Tree_comp_alloc@V?$_Tmap_traits@HUPID_TABLE@ModeConfig@@U?$less@H@std@@V?$allocator@U?$pair@$$CBHUPID_TABLE@ModeConfig@@@std@@@4@$0A@@std@@@std@@QEAAXXZ
	?_Alloc_proxy@?$_Tree_comp_alloc@V?$_Tmap_traits@U?$pair@GG@std@@V?$vector@V?$basic_string@DU?$char_traits@D@std@@V?$allocator@D@2@@std@@V?$allocator@V?$basic_string@DU?$char_traits@D@std@@V?$allocator@D@2@@std@@@2@@2@U?$less@U?$pair@GG@std@@@2@V?$allocator@U?$pair@$$CBU?$pair@GG@std@@V?$vector@V?$basic_string@DU?$char_traits@D@std@@V?$allocator@D@2@@std@@V?$allocator@V?$basic_string@DU?$char_traits@D@std@@V?$allocator@D@2@@std@@@2@@2@@std@@@2@$0A@@std@@@std@@QEAAXXZ
	?_Alloc_proxy@?$_Tree_comp_alloc@V?$_Tmap_traits@UDeviceSellectInfo@libeYs3D@@V?$shared_ptr@VCameraDevice@devices@libeYs3D@@@std@@U?$less@UDeviceSellectInfo@libeYs3D@@@4@V?$allocator@U?$pair@$$CBUDeviceSellectInfo@libeYs3D@@V?$shared_ptr@VCameraDevice@devices@libeYs3D@@@std@@@std@@@4@$0A@@std@@@std@@QEAAXXZ
	?_Alloc_proxy@?$_Tree_comp_alloc@V?$_Tmap_traits@W4IMUPacketSymbol@IMUData@@_KU?$less@W4IMUPacketSymbol@IMUData@@@std@@V?$allocator@U?$pair@$$CBW4IMUPacketSymbol@IMUData@@_K@std@@@4@$0A@@std@@@std@@QEAAXXZ
	?_Alloc_proxy@?$_Vector_alloc@U?$_Vec_base_types@EV?$allocator@E@std@@@std@@@std@@QEAAXXZ
	?_Alloc_proxy@?$_Vector_alloc@U?$_Vec_base_types@FV?$allocator@F@std@@@std@@@std@@QEAAXXZ
	?_Alloc_proxy@?$_Vector_alloc@U?$_Vec_base_types@GV?$allocator@G@std@@@std@@@std@@QEAAXXZ
	?_Alloc_proxy@?$_Vector_alloc@U?$_Vec_base_types@HV?$allocator@H@std@@@std@@@std@@QEAAXXZ
	?_Alloc_proxy@?$_Vector_alloc@U?$_Vec_base_types@MV?$allocator@M@std@@@std@@@std@@QEAAXXZ
	?_Alloc_proxy@?$_Vector_alloc@U?$_Vec_base_types@UCloudPoint@@V?$allocator@UCloudPoint@@@std@@@std@@@std@@QEAAXXZ
	?_Alloc_proxy@?$_Vector_alloc@U?$_Vec_base_types@UCommand@?$WorkerThread@V?$Optional@VCallbackWorkItem@sensors@libeYs3D@@@base@libeYs3D@@@base@libeYs3D@@V?$allocator@UCommand@?$WorkerThread@V?$Optional@VCallbackWorkItem@sensors@libeYs3D@@@base@libeYs3D@@@base@libeYs3D@@@std@@@std@@@std@@QEAAXXZ
	?_Alloc_proxy@?$_Vector_alloc@U?$_Vec_base_types@UCommand@?$WorkerThread@V?$Optional@VCallbackWorkItem@video@libeYs3D@@@base@libeYs3D@@@base@libeYs3D@@V?$allocator@UCommand@?$WorkerThread@V?$Optional@VCallbackWorkItem@video@libeYs3D@@@base@libeYs3D@@@base@libeYs3D@@@std@@@std@@@std@@QEAAXXZ
	?_Alloc_proxy@?$_Vector_alloc@U?$_Vec_base_types@UCommand@?$WorkerThread@V?$Optional@VDACalculateWorkItem@video@libeYs3D@@@base@libeYs3D@@@base@libeYs3D@@V?$allocator@UCommand@?$WorkerThread@V?$Optional@VDACalculateWorkItem@video@libeYs3D@@@base@libeYs3D@@@base@libeYs3D@@@std@@@std@@@std@@QEAAXXZ
	?_Alloc_proxy@?$_Vector_alloc@U?$_Vec_base_types@UMODE_CONFIG@ModeConfig@@V?$allocator@UMODE_CONFIG@ModeConfig@@@std@@@std@@@std@@QEAAXXZ
	?_Alloc_proxy@?$_Vector_alloc@U?$_Vec_base_types@USensorData@sensors@libeYs3D@@V?$allocator@USensorData@sensors@libeYs3D@@@std@@@std@@@std@@QEAAXXZ
	?_Alloc_proxy@?$_Vector_alloc@U?$_Vec_base_types@UtagAPC_STREAM_INFO@@V?$allocator@UtagAPC_STREAM_INFO@@@std@@@std@@@std@@QEAAXXZ
	?_Alloc_proxy@?$_Vector_alloc@U?$_Vec_base_types@V?$Optional@V?$WorkerThread@V?$Optional@VCallbackWorkItem@sensors@libeYs3D@@@base@libeYs3D@@@base@libeYs3D@@@base@libeYs3D@@V?$allocator@V?$Optional@V?$WorkerThread@V?$Optional@VCallbackWorkItem@sensors@libeYs3D@@@base@libeYs3D@@@base@libeYs3D@@@base@libeYs3D@@@std@@@std@@@std@@QEAAXXZ
	?_Alloc_proxy@?$_Vector_alloc@U?$_Vec_base_types@V?$Optional@V?$WorkerThread@V?$Optional@VCallbackWorkItem@video@libeYs3D@@@base@libeYs3D@@@base@libeYs3D@@@base@libeYs3D@@V?$allocator@V?$Optional@V?$WorkerThread@V?$Optional@VCallbackWorkItem@video@libeYs3D@@@base@libeYs3D@@@base@libeYs3D@@@base@libeYs3D@@@std@@@std@@@std@@QEAAXXZ
	?_Alloc_proxy@?$_Vector_alloc@U?$_Vec_base_types@V?$Optional@V?$WorkerThread@V?$Optional@VDACalculateWorkItem@video@libeYs3D@@@base@libeYs3D@@@base@libeYs3D@@@base@libeYs3D@@V?$allocator@V?$Optional@V?$WorkerThread@V?$Optional@VDACalculateWorkItem@video@libeYs3D@@@base@libeYs3D@@@base@libeYs3D@@@base@libeYs3D@@@std@@@std@@@std@@QEAAXXZ
	?_Alloc_proxy@?$_Vector_alloc@U?$_Vec_base_types@V?$basic_string@DU?$char_traits@D@std@@V?$allocator@D@2@@std@@V?$allocator@V?$basic_string@DU?$char_traits@D@std@@V?$allocator@D@2@@std@@@2@@std@@@std@@QEAAXXZ
	?_Alloc_proxy@?$_Vector_alloc@U?$_Vec_base_types@W4IMU_DATA_FORMAT@IMUDevice@devices@libeYs3D@@V?$allocator@W4IMU_DATA_FORMAT@IMUDevice@devices@libeYs3D@@@std@@@std@@@std@@QEAAXXZ
	?_Allocate@_Default_allocate_traits@std@@SAPEAX_K@Z
	?_Assign_rv_contents_with_alloc_always_equal@?$basic_string@DU?$char_traits@D@std@@V?$allocator@D@2@@std@@QEAAX$$QEAV12@U?$integral_constant@_N$00@2@@Z
	?_Atomic_fetch_add_4@std@@YAKPECKKW4memory_order@1@@Z
	?_Buy@?$vector@EV?$allocator@E@std@@@std@@AEAA_N_K@Z
	?_Buy@?$vector@GV?$allocator@G@std@@@std@@AEAA_N_K@Z
	?_Buy@?$vector@HV?$allocator@H@std@@@std@@AEAA_N_K@Z
	?_Buy@?$vector@MV?$allocator@M@std@@@std@@AEAA_N_K@Z
	?_Buy@?$vector@UCloudPoint@@V?$allocator@UCloudPoint@@@std@@@std@@AEAA_N_K@Z
	?_Buy@?$vector@UMODE_CONFIG@ModeConfig@@V?$allocator@UMODE_CONFIG@ModeConfig@@@std@@@std@@AEAA_N_K@Z
	?_Buy@?$vector@USensorData@sensors@libeYs3D@@V?$allocator@USensorData@sensors@libeYs3D@@@std@@@std@@AEAA_N_K@Z
	?_Buy@?$vector@V?$Optional@V?$WorkerThread@V?$Optional@VCallbackWorkItem@sensors@libeYs3D@@@base@libeYs3D@@@base@libeYs3D@@@base@libeYs3D@@V?$allocator@V?$Optional@V?$WorkerThread@V?$Optional@VCallbackWorkItem@sensors@libeYs3D@@@base@libeYs3D@@@base@libeYs3D@@@base@libeYs3D@@@std@@@std@@AEAA_N_K@Z
	?_Buy@?$vector@V?$Optional@V?$WorkerThread@V?$Optional@VCallbackWorkItem@video@libeYs3D@@@base@libeYs3D@@@base@libeYs3D@@@base@libeYs3D@@V?$allocator@V?$Optional@V?$WorkerThread@V?$Optional@VCallbackWorkItem@video@libeYs3D@@@base@libeYs3D@@@base@libeYs3D@@@base@libeYs3D@@@std@@@std@@AEAA_N_K@Z
	?_Buy@?$vector@V?$Optional@V?$WorkerThread@V?$Optional@VDACalculateWorkItem@video@libeYs3D@@@base@libeYs3D@@@base@libeYs3D@@@base@libeYs3D@@V?$allocator@V?$Optional@V?$WorkerThread@V?$Optional@VDACalculateWorkItem@video@libeYs3D@@@base@libeYs3D@@@base@libeYs3D@@@base@libeYs3D@@@std@@@std@@AEAA_N_K@Z
	?_Buy@?$vector@V?$basic_string@DU?$char_traits@D@std@@V?$allocator@D@2@@std@@V?$allocator@V?$basic_string@DU?$char_traits@D@std@@V?$allocator@D@2@@std@@@2@@std@@AEAA_N_K@Z
	?_Buy@?$vector@W4IMU_DATA_FORMAT@IMUDevice@devices@libeYs3D@@V?$allocator@W4IMU_DATA_FORMAT@IMUDevice@devices@libeYs3D@@@std@@@std@@AEAA_N_K@Z
	?_Buyheadnode@?$_List_alloc@U?$_List_base_types@V?$vector@FV?$allocator@F@std@@@std@@V?$allocator@V?$vector@FV?$allocator@F@std@@@std@@@2@@std@@@std@@QEAAPEAU?$_List_node@V?$vector@FV?$allocator@F@std@@@std@@PEAX@2@XZ
	?_Buyheadnode@?$_Tree_comp_alloc@V?$_Tmap_traits@HHU?$less@H@std@@V?$allocator@U?$pair@$$CBHH@std@@@2@$0A@@std@@@std@@QEAAPEAU?$_Tree_node@U?$pair@$$CBHH@std@@PEAX@2@XZ
	?_Buyheadnode@?$_Tree_comp_alloc@V?$_Tmap_traits@HUPID_TABLE@ModeConfig@@U?$less@H@std@@V?$allocator@U?$pair@$$CBHUPID_TABLE@ModeConfig@@@std@@@4@$0A@@std@@@std@@QEAAPEAU?$_Tree_node@U?$pair@$$CBHUPID_TABLE@ModeConfig@@@std@@PEAX@2@XZ
	?_Buyheadnode@?$_Tree_comp_alloc@V?$_Tmap_traits@U?$pair@GG@std@@V?$vector@V?$basic_string@DU?$char_traits@D@std@@V?$allocator@D@2@@std@@V?$allocator@V?$basic_string@DU?$char_traits@D@std@@V?$allocator@D@2@@std@@@2@@2@U?$less@U?$pair@GG@std@@@2@V?$allocator@U?$pair@$$CBU?$pair@GG@std@@V?$vector@V?$basic_string@DU?$char_traits@D@std@@V?$allocator@D@2@@std@@V?$allocator@V?$basic_string@DU?$char_traits@D@std@@V?$allocator@D@2@@std@@@2@@2@@std@@@2@$0A@@std@@@std@@QEAAPEAU?$_Tree_node@U?$pair@$$CBU?$pair@GG@std@@V?$vector@V?$basic_string@DU?$char_traits@D@std@@V?$allocator@D@2@@std@@V?$allocator@V?$basic_string@DU?$char_traits@D@std@@V?$allocator@D@2@@std@@@2@@2@@std@@PEAX@2@XZ
	?_Buyheadnode@?$_Tree_comp_alloc@V?$_Tmap_traits@UDeviceSellectInfo@libeYs3D@@V?$shared_ptr@VCameraDevice@devices@libeYs3D@@@std@@U?$less@UDeviceSellectInfo@libeYs3D@@@4@V?$allocator@U?$pair@$$CBUDeviceSellectInfo@libeYs3D@@V?$shared_ptr@VCameraDevice@devices@libeYs3D@@@std@@@std@@@4@$0A@@std@@@std@@QEAAPEAU?$_Tree_node@U?$pair@$$CBUDeviceSellectInfo@libeYs3D@@V?$shared_ptr@VCameraDevice@devices@libeYs3D@@@std@@@std@@PEAX@2@XZ
	?_Buyheadnode@?$_Tree_comp_alloc@V?$_Tmap_traits@W4IMUPacketSymbol@IMUData@@_KU?$less@W4IMUPacketSymbol@IMUData@@@std@@V?$allocator@U?$pair@$$CBW4IMUPacketSymbol@IMUData@@_K@std@@@4@$0A@@std@@@std@@QEAAPEAU?$_Tree_node@U?$pair@$$CBW4IMUPacketSymbol@IMUData@@_K@std@@PEAX@2@XZ
	?_Buynode0@?$_List_alloc@U?$_List_base_types@V?$vector@FV?$allocator@F@std@@@std@@V?$allocator@V?$vector@FV?$allocator@F@std@@@std@@@2@@std@@@std@@QEAAPEAU?$_List_node@V?$vector@FV?$allocator@F@std@@@std@@PEAX@2@PEAU32@0@Z
	?_Buynode0@?$_Tree_comp_alloc@V?$_Tmap_traits@HHU?$less@H@std@@V?$allocator@U?$pair@$$CBHH@std@@@2@$0A@@std@@@std@@QEAAPEAU?$_Tree_node@U?$pair@$$CBHH@std@@PEAX@2@XZ
	?_Buynode0@?$_Tree_comp_alloc@V?$_Tmap_traits@HUPID_TABLE@ModeConfig@@U?$less@H@std@@V?$allocator@U?$pair@$$CBHUPID_TABLE@ModeConfig@@@std@@@4@$0A@@std@@@std@@QEAAPEAU?$_Tree_node@U?$pair@$$CBHUPID_TABLE@ModeConfig@@@std@@PEAX@2@XZ
	?_Buynode0@?$_Tree_comp_alloc@V?$_Tmap_traits@U?$pair@GG@std@@V?$vector@V?$basic_string@DU?$char_traits@D@std@@V?$allocator@D@2@@std@@V?$allocator@V?$basic_string@DU?$char_traits@D@std@@V?$allocator@D@2@@std@@@2@@2@U?$less@U?$pair@GG@std@@@2@V?$allocator@U?$pair@$$CBU?$pair@GG@std@@V?$vector@V?$basic_string@DU?$char_traits@D@std@@V?$allocator@D@2@@std@@V?$allocator@V?$basic_string@DU?$char_traits@D@std@@V?$allocator@D@2@@std@@@2@@2@@std@@@2@$0A@@std@@@std@@QEAAPEAU?$_Tree_node@U?$pair@$$CBU?$pair@GG@std@@V?$vector@V?$basic_string@DU?$char_traits@D@std@@V?$allocator@D@2@@std@@V?$allocator@V?$basic_string@DU?$char_traits@D@std@@V?$allocator@D@2@@std@@@2@@2@@std@@PEAX@2@XZ
	?_Buynode0@?$_Tree_comp_alloc@V?$_Tmap_traits@UDeviceSellectInfo@libeYs3D@@V?$shared_ptr@VCameraDevice@devices@libeYs3D@@@std@@U?$less@UDeviceSellectInfo@libeYs3D@@@4@V?$allocator@U?$pair@$$CBUDeviceSellectInfo@libeYs3D@@V?$shared_ptr@VCameraDevice@devices@libeYs3D@@@std@@@std@@@4@$0A@@std@@@std@@QEAAPEAU?$_Tree_node@U?$pair@$$CBUDeviceSellectInfo@libeYs3D@@V?$shared_ptr@VCameraDevice@devices@libeYs3D@@@std@@@std@@PEAX@2@XZ
	?_Buynode0@?$_Tree_comp_alloc@V?$_Tmap_traits@W4IMUPacketSymbol@IMUData@@_KU?$less@W4IMUPacketSymbol@IMUData@@@std@@V?$allocator@U?$pair@$$CBW4IMUPacketSymbol@IMUData@@_K@std@@@4@$0A@@std@@@std@@QEAAPEAU?$_Tree_node@U?$pair@$$CBW4IMUPacketSymbol@IMUData@@_K@std@@PEAX@2@XZ
	?_Calculate_growth@?$basic_string@DU?$char_traits@D@std@@V?$allocator@D@2@@std@@QEBA_K_K@Z
	?_Calculate_growth@?$vector@EV?$allocator@E@std@@@std@@AEBA_K_K@Z
	?_Calculate_growth@?$vector@FV?$allocator@F@std@@@std@@AEBA_K_K@Z
	?_Calculate_growth@?$vector@GV?$allocator@G@std@@@std@@AEBA_K_K@Z
	?_Calculate_growth@?$vector@HV?$allocator@H@std@@@std@@AEBA_K_K@Z
	?_Calculate_growth@?$vector@MV?$allocator@M@std@@@std@@AEBA_K_K@Z
	?_Calculate_growth@?$vector@UCloudPoint@@V?$allocator@UCloudPoint@@@std@@@std@@AEBA_K_K@Z
	?_Calculate_growth@?$vector@UCommand@?$WorkerThread@V?$Optional@VCallbackWorkItem@sensors@libeYs3D@@@base@libeYs3D@@@base@libeYs3D@@V?$allocator@UCommand@?$WorkerThread@V?$Optional@VCallbackWorkItem@sensors@libeYs3D@@@base@libeYs3D@@@base@libeYs3D@@@std@@@std@@AEBA_K_K@Z
	?_Calculate_growth@?$vector@UCommand@?$WorkerThread@V?$Optional@VCallbackWorkItem@video@libeYs3D@@@base@libeYs3D@@@base@libeYs3D@@V?$allocator@UCommand@?$WorkerThread@V?$Optional@VCallbackWorkItem@video@libeYs3D@@@base@libeYs3D@@@base@libeYs3D@@@std@@@std@@AEBA_K_K@Z
	?_Calculate_growth@?$vector@UCommand@?$WorkerThread@V?$Optional@VDACalculateWorkItem@video@libeYs3D@@@base@libeYs3D@@@base@libeYs3D@@V?$allocator@UCommand@?$WorkerThread@V?$Optional@VDACalculateWorkItem@video@libeYs3D@@@base@libeYs3D@@@base@libeYs3D@@@std@@@std@@AEBA_K_K@Z
	?_Calculate_growth@?$vector@UMODE_CONFIG@ModeConfig@@V?$allocator@UMODE_CONFIG@ModeConfig@@@std@@@std@@AEBA_K_K@Z
	?_Calculate_growth@?$vector@USensorData@sensors@libeYs3D@@V?$allocator@USensorData@sensors@libeYs3D@@@std@@@std@@AEBA_K_K@Z
	?_Calculate_growth@?$vector@UtagAPC_STREAM_INFO@@V?$allocator@UtagAPC_STREAM_INFO@@@std@@@std@@AEBA_K_K@Z
	?_Calculate_growth@?$vector@V?$basic_string@DU?$char_traits@D@std@@V?$allocator@D@2@@std@@V?$allocator@V?$basic_string@DU?$char_traits@D@std@@V?$allocator@D@2@@std@@@2@@std@@AEBA_K_K@Z
	?_Change_array@?$vector@EV?$allocator@E@std@@@std@@AEAAXQEAE_K1@Z
	?_Change_array@?$vector@FV?$allocator@F@std@@@std@@AEAAXQEAF_K1@Z
	?_Change_array@?$vector@GV?$allocator@G@std@@@std@@AEAAXQEAG_K1@Z
	?_Change_array@?$vector@HV?$allocator@H@std@@@std@@AEAAXQEAH_K1@Z
	?_Change_array@?$vector@MV?$allocator@M@std@@@std@@AEAAXQEAM_K1@Z
	?_Change_array@?$vector@UCloudPoint@@V?$allocator@UCloudPoint@@@std@@@std@@AEAAXQEAUCloudPoint@@_K1@Z
	?_Change_array@?$vector@UCommand@?$WorkerThread@V?$Optional@VCallbackWorkItem@sensors@libeYs3D@@@base@libeYs3D@@@base@libeYs3D@@V?$allocator@UCommand@?$WorkerThread@V?$Optional@VCallbackWorkItem@sensors@libeYs3D@@@base@libeYs3D@@@base@libeYs3D@@@std@@@std@@AEAAXQEAUCommand@?$WorkerThread@V?$Optional@VCallbackWorkItem@sensors@libeYs3D@@@base@libeYs3D@@@base@libeYs3D@@_K1@Z
	?_Change_array@?$vector@UCommand@?$WorkerThread@V?$Optional@VCallbackWorkItem@video@libeYs3D@@@base@libeYs3D@@@base@libeYs3D@@V?$allocator@UCommand@?$WorkerThread@V?$Optional@VCallbackWorkItem@video@libeYs3D@@@base@libeYs3D@@@base@libeYs3D@@@std@@@std@@AEAAXQEAUCommand@?$WorkerThread@V?$Optional@VCallbackWorkItem@video@libeYs3D@@@base@libeYs3D@@@base@libeYs3D@@_K1@Z
	?_Change_array@?$vector@UCommand@?$WorkerThread@V?$Optional@VDACalculateWorkItem@video@libeYs3D@@@base@libeYs3D@@@base@libeYs3D@@V?$allocator@UCommand@?$WorkerThread@V?$Optional@VDACalculateWorkItem@video@libeYs3D@@@base@libeYs3D@@@base@libeYs3D@@@std@@@std@@AEAAXQEAUCommand@?$WorkerThread@V?$Optional@VDACalculateWorkItem@video@libeYs3D@@@base@libeYs3D@@@base@libeYs3D@@_K1@Z
	?_Change_array@?$vector@UMODE_CONFIG@ModeConfig@@V?$allocator@UMODE_CONFIG@ModeConfig@@@std@@@std@@AEAAXQEAUMODE_CONFIG@ModeConfig@@_K1@Z
	?_Change_array@?$vector@USensorData@sensors@libeYs3D@@V?$allocator@USensorData@sensors@libeYs3D@@@std@@@std@@AEAAXQEAUSensorData@sensors@libeYs3D@@_K1@Z
	?_Change_array@?$vector@UtagAPC_STREAM_INFO@@V?$allocator@UtagAPC_STREAM_INFO@@@std@@@std@@AEAAXQEAUtagAPC_STREAM_INFO@@_K1@Z
	?_Change_array@?$vector@V?$basic_string@DU?$char_traits@D@std@@V?$allocator@D@2@@std@@V?$allocator@V?$basic_string@DU?$char_traits@D@std@@V?$allocator@D@2@@std@@@2@@std@@AEAAXQEAV?$basic_string@DU?$char_traits@D@std@@V?$allocator@D@2@@2@_K1@Z
	?_Check_offset@?$_String_val@U?$_Simple_types@D@std@@@std@@QEBAX_K@Z
	?_Clamp_suffix_size@?$_String_val@U?$_Simple_types@D@std@@@std@@QEBA_K_K0@Z
	?_Clone@?$_Func_impl_no_alloc@V<lambda_488c629a0a7c1ecc954ac8047e960599>@@_J$$V@std@@AEBAPEAV?$_Func_base@_J$$V@2@PEAXU?$integral_constant@_N$0A@@2@@Z
	?_Clone@?$_Func_impl_no_alloc@V<lambda_4cde73e63763cb313bd212247f8ddbb0>@@W4WorkerProcessingResult@base@libeYs3D@@$$QEAV?$Optional@VDACalculateWorkItem@video@libeYs3D@@@34@@std@@AEBAPEAV?$_Func_base@W4WorkerProcessingResult@base@libeYs3D@@$$QEAV?$Optional@VDACalculateWorkItem@video@libeYs3D@@@23@@2@PEAXU?$integral_constant@_N$0A@@2@@Z
	?_Clone@?$_Func_impl_no_alloc@V<lambda_530843cc44829e3530ea01af34e42038>@@W4WorkerProcessingResult@base@libeYs3D@@$$QEAV?$Optional@VCallbackWorkItem@sensors@libeYs3D@@@34@@std@@AEBAPEAV?$_Func_base@W4WorkerProcessingResult@base@libeYs3D@@$$QEAV?$Optional@VCallbackWorkItem@sensors@libeYs3D@@@23@@2@PEAXU?$integral_constant@_N$0A@@2@@Z
	?_Clone@?$_Func_impl_no_alloc@V<lambda_69d578ede27bd906c7e1bc689c004001>@@_J$$V@std@@AEBAPEAV?$_Func_base@_J$$V@2@PEAXU?$integral_constant@_N$0A@@2@@Z
	?_Clone@?$_Func_impl_no_alloc@V<lambda_9f92d7825455e143dbf3293131d714f3>@@W4WorkerProcessingResult@base@libeYs3D@@$$QEAV?$Optional@VCallbackWorkItem@video@libeYs3D@@@34@@std@@AEBAPEAV?$_Func_base@W4WorkerProcessingResult@base@libeYs3D@@$$QEAV?$Optional@VCallbackWorkItem@video@libeYs3D@@@23@@2@PEAXU?$integral_constant@_N$0A@@2@@Z
	?_Clone@?$_Func_impl_no_alloc@V<lambda_fd68a9891d2d9d887c20652be0ece82a>@@_J$$V@std@@AEBAPEAV?$_Func_base@_J$$V@2@PEAXU?$integral_constant@_N$0A@@2@@Z
	?_Clone@?$_Func_impl_no_alloc@V?$_Binder@U_Unforced@std@@P8DepthFrameProducer@video@libeYs3D@@EAAXPEAVFrame@45@@ZPEAV345@AEBU?$_Ph@$00@2@@std@@XPEAVFrame@video@libeYs3D@@@std@@AEBAPEAV?$_Func_base@XPEAVFrame@video@libeYs3D@@@2@PEAXU?$integral_constant@_N$0A@@2@@Z
	?_Clone@?$_Func_impl_no_alloc@V?$_Binder@U_Unforced@std@@P8FrameProducer@video@libeYs3D@@EAA_NPEBUSensorDataSet@sensors@5@@ZPEAV345@AEBU?$_Ph@$00@2@@std@@_NPEBUSensorDataSet@sensors@libeYs3D@@@std@@AEBAPEAV?$_Func_base@_NPEBUSensorDataSet@sensors@libeYs3D@@@2@PEAXU?$integral_constant@_N$0A@@2@@Z
	?_Clone@?$_Func_impl_no_alloc@V?$_Binder@U_Unforced@std@@P8FrameProducer@video@libeYs3D@@EAA_NPEBVFrame@45@@ZPEAV345@AEBU?$_Ph@$00@2@@std@@_NPEBVFrame@video@libeYs3D@@@std@@AEBAPEAV?$_Func_base@_NPEBVFrame@video@libeYs3D@@@2@PEAXU?$integral_constant@_N$0A@@2@@Z
	?_Clone@?$_Func_impl_no_alloc@V?$_Binder@U_Unforced@std@@P8FrameSetPipeline@devices@libeYs3D@@EAA_NPEBVFrame@video@5@@ZPEAV345@AEBU?$_Ph@$00@2@@std@@_NPEBVFrame@video@libeYs3D@@@std@@AEBAPEAV?$_Func_base@_NPEBVFrame@video@libeYs3D@@@2@PEAXU?$integral_constant@_N$0A@@2@@Z
	?_Clone@?$_Func_impl_no_alloc@V?$_Binder@U_Unforced@std@@P8FrameSetPipeline@devices@libeYs3D@@EAA_NPEBVPCFrame@video@5@@ZPEAV345@AEBU?$_Ph@$00@2@@std@@_NPEBVPCFrame@video@libeYs3D@@@std@@AEBAPEAV?$_Func_base@_NPEBVPCFrame@video@libeYs3D@@@2@PEAXU?$integral_constant@_N$0A@@2@@Z
	?_Clone@?$_Func_impl_no_alloc@V?$_Binder@U_Unforced@std@@P8PCFrameProducer@video@libeYs3D@@EAA_NPEBVFrame@45@@ZPEAV345@AEBU?$_Ph@$00@2@@std@@_NPEBVFrame@video@libeYs3D@@@std@@AEBAPEAV?$_Func_base@_NPEBVFrame@video@libeYs3D@@@2@PEAXU?$integral_constant@_N$0A@@2@@Z
	?_Clone@?$_Func_impl_no_alloc@V?$_Binder@U_Unforced@std@@P8Pipeline@devices@libeYs3D@@EAA_NPEBUSensorData@sensors@5@@ZPEAV345@AEBU?$_Ph@$00@2@@std@@_NPEBUSensorData@sensors@libeYs3D@@@std@@AEBAPEAV?$_Func_base@_NPEBUSensorData@sensors@libeYs3D@@@2@PEAXU?$integral_constant@_N$0A@@2@@Z
	?_Clone@?$_Func_impl_no_alloc@V?$_Binder@U_Unforced@std@@P8Pipeline@devices@libeYs3D@@EAA_NPEBVFrame@video@5@@ZPEAV345@AEBU?$_Ph@$00@2@@std@@_NPEBVFrame@video@libeYs3D@@@std@@AEBAPEAV?$_Func_base@_NPEBVFrame@video@libeYs3D@@@2@PEAXU?$integral_constant@_N$0A@@2@@Z
	?_Clone@?$_Func_impl_no_alloc@V?$_Binder@U_Unforced@std@@P8Pipeline@devices@libeYs3D@@EAA_NPEBVPCFrame@video@5@@ZPEAV345@AEBU?$_Ph@$00@2@@std@@_NPEBVPCFrame@video@libeYs3D@@@std@@AEBAPEAV?$_Func_base@_NPEBVPCFrame@video@libeYs3D@@@2@PEAXU?$integral_constant@_N$0A@@2@@Z
	?_Clone@?$_Func_impl_no_alloc@V?$_Binder@U_Unforced@std@@P8SensorDataProducer@sensors@libeYs3D@@EAA_NPEBUSensorDataSet@45@@ZPEAV345@AEBU?$_Ph@$00@2@@std@@_NPEBUSensorDataSet@sensors@libeYs3D@@@std@@AEBAPEAV?$_Func_base@_NPEBUSensorDataSet@sensors@libeYs3D@@@2@PEAXU?$integral_constant@_N$0A@@2@@Z
	?_Clrcont@_Iterator_base12@std@@QEAAXXZ
	?_Compare@?$_Tree@V?$_Tmap_traits@HUPID_TABLE@ModeConfig@@U?$less@H@std@@V?$allocator@U?$pair@$$CBHUPID_TABLE@ModeConfig@@@std@@@4@$0A@@std@@@std@@IEBA_NAEBH0@Z
	?_Compare@?$_Tree@V?$_Tmap_traits@U?$pair@GG@std@@V?$vector@V?$basic_string@DU?$char_traits@D@std@@V?$allocator@D@2@@std@@V?$allocator@V?$basic_string@DU?$char_traits@D@std@@V?$allocator@D@2@@std@@@2@@2@U?$less@U?$pair@GG@std@@@2@V?$allocator@U?$pair@$$CBU?$pair@GG@std@@V?$vector@V?$basic_string@DU?$char_traits@D@std@@V?$allocator@D@2@@std@@V?$allocator@V?$basic_string@DU?$char_traits@D@std@@V?$allocator@D@2@@std@@@2@@2@@std@@@2@$0A@@std@@@std@@IEBA_NAEBU?$pair@GG@2@0@Z
	?_Compare@?$_Tree@V?$_Tmap_traits@UDeviceSellectInfo@libeYs3D@@V?$shared_ptr@VCameraDevice@devices@libeYs3D@@@std@@U?$less@UDeviceSellectInfo@libeYs3D@@@4@V?$allocator@U?$pair@$$CBUDeviceSellectInfo@libeYs3D@@V?$shared_ptr@VCameraDevice@devices@libeYs3D@@@std@@@std@@@4@$0A@@std@@@std@@IEBA_NAEBUDeviceSellectInfo@libeYs3D@@0@Z
	?_Compare@?$_Tree@V?$_Tmap_traits@W4IMUPacketSymbol@IMUData@@_KU?$less@W4IMUPacketSymbol@IMUData@@@std@@V?$allocator@U?$pair@$$CBW4IMUPacketSymbol@IMUData@@_K@std@@@4@$0A@@std@@@std@@IEBA_NAEBW4IMUPacketSymbol@IMUData@@0@Z
	?_Compat@?$_Vector_const_iterator@V?$_Vector_val@U?$_Simple_types@UtagAPC_STREAM_INFO@@@std@@@std@@@std@@QEBAXAEBV12@@Z
	?_Construct@?$_Tree_comp_alloc@V?$_Tmap_traits@HHU?$less@H@std@@V?$allocator@U?$pair@$$CBHH@std@@@2@$0A@@std@@@std@@QEAAXXZ
	?_Construct@?$_Tree_comp_alloc@V?$_Tmap_traits@HUPID_TABLE@ModeConfig@@U?$less@H@std@@V?$allocator@U?$pair@$$CBHUPID_TABLE@ModeConfig@@@std@@@4@$0A@@std@@@std@@QEAAXXZ
	?_Construct@?$_Tree_comp_alloc@V?$_Tmap_traits@U?$pair@GG@std@@V?$vector@V?$basic_string@DU?$char_traits@D@std@@V?$allocator@D@2@@std@@V?$allocator@V?$basic_string@DU?$char_traits@D@std@@V?$allocator@D@2@@std@@@2@@2@U?$less@U?$pair@GG@std@@@2@V?$allocator@U?$pair@$$CBU?$pair@GG@std@@V?$vector@V?$basic_string@DU?$char_traits@D@std@@V?$allocator@D@2@@std@@V?$allocator@V?$basic_string@DU?$char_traits@D@std@@V?$allocator@D@2@@std@@@2@@2@@std@@@2@$0A@@std@@@std@@QEAAXXZ
	?_Construct@?$_Tree_comp_alloc@V?$_Tmap_traits@UDeviceSellectInfo@libeYs3D@@V?$shared_ptr@VCameraDevice@devices@libeYs3D@@@std@@U?$less@UDeviceSellectInfo@libeYs3D@@@4@V?$allocator@U?$pair@$$CBUDeviceSellectInfo@libeYs3D@@V?$shared_ptr@VCameraDevice@devices@libeYs3D@@@std@@@std@@@4@$0A@@std@@@std@@QEAAXXZ
	?_Construct@?$_Tree_comp_alloc@V?$_Tmap_traits@W4IMUPacketSymbol@IMUData@@_KU?$less@W4IMUPacketSymbol@IMUData@@@std@@V?$allocator@U?$pair@$$CBW4IMUPacketSymbol@IMUData@@_K@std@@@4@$0A@@std@@@std@@QEAAXXZ
	?_Construct_lv_contents@?$basic_string@DU?$char_traits@D@std@@V?$allocator@D@2@@std@@QEAAXAEBV12@@Z
	?_Copy@?$_Func_impl_no_alloc@V<lambda_488c629a0a7c1ecc954ac8047e960599>@@_J$$V@std@@EEBAPEAV?$_Func_base@_J$$V@2@PEAX@Z
	?_Copy@?$_Func_impl_no_alloc@V<lambda_4cde73e63763cb313bd212247f8ddbb0>@@W4WorkerProcessingResult@base@libeYs3D@@$$QEAV?$Optional@VDACalculateWorkItem@video@libeYs3D@@@34@@std@@EEBAPEAV?$_Func_base@W4WorkerProcessingResult@base@libeYs3D@@$$QEAV?$Optional@VDACalculateWorkItem@video@libeYs3D@@@23@@2@PEAX@Z
	?_Copy@?$_Func_impl_no_alloc@V<lambda_530843cc44829e3530ea01af34e42038>@@W4WorkerProcessingResult@base@libeYs3D@@$$QEAV?$Optional@VCallbackWorkItem@sensors@libeYs3D@@@34@@std@@EEBAPEAV?$_Func_base@W4WorkerProcessingResult@base@libeYs3D@@$$QEAV?$Optional@VCallbackWorkItem@sensors@libeYs3D@@@23@@2@PEAX@Z
	?_Copy@?$_Func_impl_no_alloc@V<lambda_69d578ede27bd906c7e1bc689c004001>@@_J$$V@std@@EEBAPEAV?$_Func_base@_J$$V@2@PEAX@Z
	?_Copy@?$_Func_impl_no_alloc@V<lambda_9f92d7825455e143dbf3293131d714f3>@@W4WorkerProcessingResult@base@libeYs3D@@$$QEAV?$Optional@VCallbackWorkItem@video@libeYs3D@@@34@@std@@EEBAPEAV?$_Func_base@W4WorkerProcessingResult@base@libeYs3D@@$$QEAV?$Optional@VCallbackWorkItem@video@libeYs3D@@@23@@2@PEAX@Z
	?_Copy@?$_Func_impl_no_alloc@V<lambda_fd68a9891d2d9d887c20652be0ece82a>@@_J$$V@std@@EEBAPEAV?$_Func_base@_J$$V@2@PEAX@Z
	?_Copy@?$_Func_impl_no_alloc@V?$_Binder@U_Unforced@std@@P8DepthFrameProducer@video@libeYs3D@@EAAXPEAVFrame@45@@ZPEAV345@AEBU?$_Ph@$00@2@@std@@XPEAVFrame@video@libeYs3D@@@std@@EEBAPEAV?$_Func_base@XPEAVFrame@video@libeYs3D@@@2@PEAX@Z
	?_Copy@?$_Func_impl_no_alloc@V?$_Binder@U_Unforced@std@@P8FrameProducer@video@libeYs3D@@EAA_NPEBUSensorDataSet@sensors@5@@ZPEAV345@AEBU?$_Ph@$00@2@@std@@_NPEBUSensorDataSet@sensors@libeYs3D@@@std@@EEBAPEAV?$_Func_base@_NPEBUSensorDataSet@sensors@libeYs3D@@@2@PEAX@Z
	?_Copy@?$_Func_impl_no_alloc@V?$_Binder@U_Unforced@std@@P8FrameProducer@video@libeYs3D@@EAA_NPEBVFrame@45@@ZPEAV345@AEBU?$_Ph@$00@2@@std@@_NPEBVFrame@video@libeYs3D@@@std@@EEBAPEAV?$_Func_base@_NPEBVFrame@video@libeYs3D@@@2@PEAX@Z
	?_Copy@?$_Func_impl_no_alloc@V?$_Binder@U_Unforced@std@@P8FrameSetPipeline@devices@libeYs3D@@EAA_NPEBVFrame@video@5@@ZPEAV345@AEBU?$_Ph@$00@2@@std@@_NPEBVFrame@video@libeYs3D@@@std@@EEBAPEAV?$_Func_base@_NPEBVFrame@video@libeYs3D@@@2@PEAX@Z
	?_Copy@?$_Func_impl_no_alloc@V?$_Binder@U_Unforced@std@@P8FrameSetPipeline@devices@libeYs3D@@EAA_NPEBVPCFrame@video@5@@ZPEAV345@AEBU?$_Ph@$00@2@@std@@_NPEBVPCFrame@video@libeYs3D@@@std@@EEBAPEAV?$_Func_base@_NPEBVPCFrame@video@libeYs3D@@@2@PEAX@Z
	?_Copy@?$_Func_impl_no_alloc@V?$_Binder@U_Unforced@std@@P8PCFrameProducer@video@libeYs3D@@EAA_NPEBVFrame@45@@ZPEAV345@AEBU?$_Ph@$00@2@@std@@_NPEBVFrame@video@libeYs3D@@@std@@EEBAPEAV?$_Func_base@_NPEBVFrame@video@libeYs3D@@@2@PEAX@Z
	?_Copy@?$_Func_impl_no_alloc@V?$_Binder@U_Unforced@std@@P8Pipeline@devices@libeYs3D@@EAA_NPEBUSensorData@sensors@5@@ZPEAV345@AEBU?$_Ph@$00@2@@std@@_NPEBUSensorData@sensors@libeYs3D@@@std@@EEBAPEAV?$_Func_base@_NPEBUSensorData@sensors@libeYs3D@@@2@PEAX@Z
	?_Copy@?$_Func_impl_no_alloc@V?$_Binder@U_Unforced@std@@P8Pipeline@devices@libeYs3D@@EAA_NPEBVFrame@video@5@@ZPEAV345@AEBU?$_Ph@$00@2@@std@@_NPEBVFrame@video@libeYs3D@@@std@@EEBAPEAV?$_Func_base@_NPEBVFrame@video@libeYs3D@@@2@PEAX@Z
	?_Copy@?$_Func_impl_no_alloc@V?$_Binder@U_Unforced@std@@P8Pipeline@devices@libeYs3D@@EAA_NPEBVPCFrame@video@5@@ZPEAV345@AEBU?$_Ph@$00@2@@std@@_NPEBVPCFrame@video@libeYs3D@@@std@@EEBAPEAV?$_Func_base@_NPEBVPCFrame@video@libeYs3D@@@2@PEAX@Z
	?_Copy@?$_Func_impl_no_alloc@V?$_Binder@U_Unforced@std@@P8SensorDataProducer@sensors@libeYs3D@@EAA_NPEBUSensorDataSet@45@@ZPEAV345@AEBU?$_Ph@$00@2@@std@@_NPEBUSensorDataSet@sensors@libeYs3D@@@std@@EEBAPEAV?$_Func_base@_NPEBUSensorDataSet@sensors@libeYs3D@@@2@PEAX@Z
	?_Copy_alloc@?$_Vector_alloc@U?$_Vec_base_types@EV?$allocator@E@std@@@std@@@std@@QEAAXAEBV?$allocator@E@2@@Z
	?_Decref@?$_Ptr_base@VCameraDevice@devices@libeYs3D@@@std@@IEAAXXZ
	?_Decref@?$_Ptr_base@VEYS3DSystem@libeYs3D@@@std@@IEAAXXZ
	?_Decref@?$_Ptr_base@VFrameSetPipeline@devices@libeYs3D@@@std@@IEAAXXZ
	?_Decref@?$_Ptr_base@VPipeline@devices@libeYs3D@@@std@@IEAAXXZ
	?_Decref@_Ref_count_base@std@@QEAAXXZ
	?_Decwref@_Ref_count_base@std@@QEAAXXZ
	?_Delete_this@?$_Func_impl_no_alloc@V<lambda_488c629a0a7c1ecc954ac8047e960599>@@_J$$V@std@@EEAAX_N@Z
	?_Delete_this@?$_Func_impl_no_alloc@V<lambda_4cde73e63763cb313bd212247f8ddbb0>@@W4WorkerProcessingResult@base@libeYs3D@@$$QEAV?$Optional@VDACalculateWorkItem@video@libeYs3D@@@34@@std@@EEAAX_N@Z
	?_Delete_this@?$_Func_impl_no_alloc@V<lambda_530843cc44829e3530ea01af34e42038>@@W4WorkerProcessingResult@base@libeYs3D@@$$QEAV?$Optional@VCallbackWorkItem@sensors@libeYs3D@@@34@@std@@EEAAX_N@Z
	?_Delete_this@?$_Func_impl_no_alloc@V<lambda_69d578ede27bd906c7e1bc689c004001>@@_J$$V@std@@EEAAX_N@Z
	?_Delete_this@?$_Func_impl_no_alloc@V<lambda_9f92d7825455e143dbf3293131d714f3>@@W4WorkerProcessingResult@base@libeYs3D@@$$QEAV?$Optional@VCallbackWorkItem@video@libeYs3D@@@34@@std@@EEAAX_N@Z
	?_Delete_this@?$_Func_impl_no_alloc@V<lambda_fd68a9891d2d9d887c20652be0ece82a>@@_J$$V@std@@EEAAX_N@Z
	?_Delete_this@?$_Func_impl_no_alloc@V?$_Binder@U_Unforced@std@@P8DepthFrameProducer@video@libeYs3D@@EAAXPEAVFrame@45@@ZPEAV345@AEBU?$_Ph@$00@2@@std@@XPEAVFrame@video@libeYs3D@@@std@@EEAAX_N@Z
	?_Delete_this@?$_Func_impl_no_alloc@V?$_Binder@U_Unforced@std@@P8FrameProducer@video@libeYs3D@@EAA_NPEBUSensorDataSet@sensors@5@@ZPEAV345@AEBU?$_Ph@$00@2@@std@@_NPEBUSensorDataSet@sensors@libeYs3D@@@std@@EEAAX_N@Z
	?_Delete_this@?$_Func_impl_no_alloc@V?$_Binder@U_Unforced@std@@P8FrameProducer@video@libeYs3D@@EAA_NPEBVFrame@45@@ZPEAV345@AEBU?$_Ph@$00@2@@std@@_NPEBVFrame@video@libeYs3D@@@std@@EEAAX_N@Z
	?_Delete_this@?$_Func_impl_no_alloc@V?$_Binder@U_Unforced@std@@P8FrameSetPipeline@devices@libeYs3D@@EAA_NPEBVFrame@video@5@@ZPEAV345@AEBU?$_Ph@$00@2@@std@@_NPEBVFrame@video@libeYs3D@@@std@@EEAAX_N@Z
	?_Delete_this@?$_Func_impl_no_alloc@V?$_Binder@U_Unforced@std@@P8FrameSetPipeline@devices@libeYs3D@@EAA_NPEBVPCFrame@video@5@@ZPEAV345@AEBU?$_Ph@$00@2@@std@@_NPEBVPCFrame@video@libeYs3D@@@std@@EEAAX_N@Z
	?_Delete_this@?$_Func_impl_no_alloc@V?$_Binder@U_Unforced@std@@P8PCFrameProducer@video@libeYs3D@@EAA_NPEBVFrame@45@@ZPEAV345@AEBU?$_Ph@$00@2@@std@@_NPEBVFrame@video@libeYs3D@@@std@@EEAAX_N@Z
	?_Delete_this@?$_Func_impl_no_alloc@V?$_Binder@U_Unforced@std@@P8Pipeline@devices@libeYs3D@@EAA_NPEBUSensorData@sensors@5@@ZPEAV345@AEBU?$_Ph@$00@2@@std@@_NPEBUSensorData@sensors@libeYs3D@@@std@@EEAAX_N@Z
	?_Delete_this@?$_Func_impl_no_alloc@V?$_Binder@U_Unforced@std@@P8Pipeline@devices@libeYs3D@@EAA_NPEBVFrame@video@5@@ZPEAV345@AEBU?$_Ph@$00@2@@std@@_NPEBVFrame@video@libeYs3D@@@std@@EEAAX_N@Z
	?_Delete_this@?$_Func_impl_no_alloc@V?$_Binder@U_Unforced@std@@P8Pipeline@devices@libeYs3D@@EAA_NPEBVPCFrame@video@5@@ZPEAV345@AEBU?$_Ph@$00@2@@std@@_NPEBVPCFrame@video@libeYs3D@@@std@@EEAAX_N@Z
	?_Delete_this@?$_Func_impl_no_alloc@V?$_Binder@U_Unforced@std@@P8SensorDataProducer@sensors@libeYs3D@@EAA_NPEBUSensorDataSet@45@@ZPEAV345@AEBU?$_Ph@$00@2@@std@@_NPEBUSensorDataSet@sensors@libeYs3D@@@std@@EEAAX_N@Z
	?_Delete_this@?$_Ref_count@VCameraDevice@devices@libeYs3D@@@std@@EEAAXXZ
	?_Delete_this@?$_Ref_count@VEYS3DSystem@libeYs3D@@@std@@EEAAXXZ
	?_Delete_this@?$_Ref_count@VFrameSetPipeline@devices@libeYs3D@@@std@@EEAAXXZ
	?_Delete_this@?$_Ref_count@VPipeline@devices@libeYs3D@@@std@@EEAAXXZ
	?_Destroy@?$_Ref_count@VCameraDevice@devices@libeYs3D@@@std@@EEAAXXZ
	?_Destroy@?$_Ref_count@VEYS3DSystem@libeYs3D@@@std@@EEAAXXZ
	?_Destroy@?$_Ref_count@VFrameSetPipeline@devices@libeYs3D@@@std@@EEAAXXZ
	?_Destroy@?$_Ref_count@VPipeline@devices@libeYs3D@@@std@@EEAAXXZ
	?_Destroy@?$vector@EV?$allocator@E@std@@@std@@AEAAXPEAE0@Z
	?_Destroy@?$vector@FV?$allocator@F@std@@@std@@AEAAXPEAF0@Z
	?_Destroy@?$vector@GV?$allocator@G@std@@@std@@AEAAXPEAG0@Z
	?_Destroy@?$vector@HV?$allocator@H@std@@@std@@AEAAXPEAH0@Z
	?_Destroy@?$vector@MV?$allocator@M@std@@@std@@AEAAXPEAM0@Z
	?_Destroy@?$vector@UCloudPoint@@V?$allocator@UCloudPoint@@@std@@@std@@AEAAXPEAUCloudPoint@@0@Z
