EXPORTS 
	??_R0?AV<lambda_488c629a0a7c1ecc954ac8047e960599>@@@8 	 DATA
	??_R0?AV<lambda_4cde73e63763cb313bd212247f8ddbb0>@@@8 	 DATA
	??_R0?AV<lambda_530843cc44829e3530ea01af34e42038>@@@8 	 DATA
	??_R0?AV<lambda_69d578ede27bd906c7e1bc689c004001>@@@8 	 DATA
	??_R0?AV<lambda_9f92d7825455e143dbf3293131d714f3>@@@8 	 DATA
	??_R0?AV<lambda_fd68a9891d2d9d887c20652be0ece82a>@@@8 	 DATA
	??_R0?AV?$_Binder@U_Unforced@std@@P8DepthFrameProducer@video@libeYs3D@@EAAXPEAVFrame@45@@ZPEAV345@AEBU?$_Ph@$00@2@@std@@@8 	 DATA
	??_R0?AV?$_Binder@U_Unforced@std@@P8FrameProducer@video@libeYs3D@@EAA_NPEBUSensorDataSet@sensors@5@@ZPEAV345@AEBU?$_Ph@$00@2@@std@@@8 	 DATA
	??_R0?AV?$_Binder@U_Unforced@std@@P8FrameProducer@video@libeYs3D@@EAA_NPEBVFrame@45@@ZPEAV345@AEBU?$_Ph@$00@2@@std@@@8 	 DATA
	??_R0?AV?$_Binder@U_Unforced@std@@P8FrameSetPipeline@devices@libeYs3D@@EAA_NPEBVFrame@video@5@@ZPEAV345@AEBU?$_Ph@$00@2@@std@@@8 	 DATA
	??_R0?AV?$_Binder@U_Unforced@std@@P8FrameSetPipeline@devices@libeYs3D@@EAA_NPEBVPCFrame@video@5@@ZPEAV345@AEBU?$_Ph@$00@2@@std@@@8 	 DATA
	??_R0?AV?$_Binder@U_Unforced@std@@P8PCFrameProducer@video@libeYs3D@@EAA_NPEBVFrame@45@@ZPEAV345@AEBU?$_Ph@$00@2@@std@@@8 	 DATA
	??_R0?AV?$_Binder@U_Unforced@std@@P8Pipeline@devices@libeYs3D@@EAA_NPEBUSensorData@sensors@5@@ZPEAV345@AEBU?$_Ph@$00@2@@std@@@8 	 DATA
	??_R0?AV?$_Binder@U_Unforced@std@@P8Pipeline@devices@libeYs3D@@EAA_NPEBVFrame@video@5@@ZPEAV345@AEBU?$_Ph@$00@2@@std@@@8 	 DATA
	??_R0?AV?$_Binder@U_Unforced@std@@P8Pipeline@devices@libeYs3D@@EAA_NPEBVPCFrame@video@5@@ZPEAV345@AEBU?$_Ph@$00@2@@std@@@8 	 DATA
	??_R0?AV?$_Binder@U_Unforced@std@@P8SensorDataProducer@sensors@libeYs3D@@EAA_NPEBUSensorDataSet@45@@ZPEAV345@AEBU?$_Ph@$00@2@@std@@@8 	 DATA
	??_R0?AV?$_Func_base@W4WorkerProcessingResult@base@libeYs3D@@$$QEAV?$Optional@VCallbackWorkItem@sensors@libeYs3D@@@23@@std@@@8 	 DATA
	??_R0?AV?$_Func_base@W4WorkerProcessingResult@base@libeYs3D@@$$QEAV?$Optional@VCallbackWorkItem@video@libeYs3D@@@23@@std@@@8 	 DATA
	??_R0?AV?$_Func_base@W4WorkerProcessingResult@base@libeYs3D@@$$QEAV?$Optional@VDACalculateWorkItem@video@libeYs3D@@@23@@std@@@8 	 DATA
	??_R0?AV?$_Func_base@X$$QEAVCallbackWorkItem@sensors@libeYs3D@@@std@@@8 	 DATA
	??_R0?AV?$_Func_base@X$$QEAVCallbackWorkItem@video@libeYs3D@@@std@@@8 	 DATA
	??_R0?AV?$_Func_base@X$$QEAVDACalculateWorkItem@video@libeYs3D@@@std@@@8 	 DATA
	??_R0?AV?$_Func_base@XPEAVFrame@video@libeYs3D@@@std@@@8 	 DATA
	??_R0?AV?$_Func_base@_J$$V@std@@@8 	 DATA
	??_R0?AV?$_Func_base@_NPEBUSensorData@sensors@libeYs3D@@@std@@@8 	 DATA
	??_R0?AV?$_Func_base@_NPEBUSensorDataSet@sensors@libeYs3D@@@std@@@8 	 DATA
	??_R0?AV?$_Func_base@_NPEBVFrame@video@libeYs3D@@@std@@@8 	 DATA
	??_R0?AV?$_Func_base@_NPEBVPCFrame@video@libeYs3D@@@std@@@8 	 DATA
	??_R0?AV?$_Func_impl_no_alloc@P6A_NPEBVFrame@video@libeYs3D@@@Z_NPEBV123@@std@@@8 	 DATA
	??_R0?AV?$_Func_impl_no_alloc@P6A_NPEBVPCFrame@video@libeYs3D@@@Z_NPEBV123@@std@@@8 	 DATA
	??_R0?AV?$_Func_impl_no_alloc@V<lambda_488c629a0a7c1ecc954ac8047e960599>@@_J$$V@std@@@8 	 DATA
	??_R0?AV?$_Func_impl_no_alloc@V<lambda_4cde73e63763cb313bd212247f8ddbb0>@@W4WorkerProcessingResult@base@libeYs3D@@$$QEAV?$Optional@VDACalculateWorkItem@video@libeYs3D@@@34@@std@@@8 	 DATA
	??_R0?AV?$_Func_impl_no_alloc@V<lambda_530843cc44829e3530ea01af34e42038>@@W4WorkerProcessingResult@base@libeYs3D@@$$QEAV?$Optional@VCallbackWorkItem@sensors@libeYs3D@@@34@@std@@@8 	 DATA
	??_R0?AV?$_Func_impl_no_alloc@V<lambda_69d578ede27bd906c7e1bc689c004001>@@_J$$V@std@@@8 	 DATA
	??_R0?AV?$_Func_impl_no_alloc@V<lambda_9f92d7825455e143dbf3293131d714f3>@@W4WorkerProcessingResult@base@libeYs3D@@$$QEAV?$Optional@VCallbackWorkItem@video@libeYs3D@@@34@@std@@@8 	 DATA
	??_R0?AV?$_Func_impl_no_alloc@V<lambda_fd68a9891d2d9d887c20652be0ece82a>@@_J$$V@std@@@8 	 DATA
	??_R0?AV?$_Func_impl_no_alloc@V?$_Binder@U_Unforced@std@@P8DepthFrameProducer@video@libeYs3D@@EAAXPEAVFrame@45@@ZPEAV345@AEBU?$_Ph@$00@2@@std@@XPEAVFrame@video@libeYs3D@@@std@@@8 	 DATA
	??_R0?AV?$_Func_impl_no_alloc@V?$_Binder@U_Unforced@std@@P8FrameProducer@video@libeYs3D@@EAA_NPEBUSensorDataSet@sensors@5@@ZPEAV345@AEBU?$_Ph@$00@2@@std@@_NPEBUSensorDataSet@sensors@libeYs3D@@@std@@@8 	 DATA
	??_R0?AV?$_Func_impl_no_alloc@V?$_Binder@U_Unforced@std@@P8FrameProducer@video@libeYs3D@@EAA_NPEBVFrame@45@@ZPEAV345@AEBU?$_Ph@$00@2@@std@@_NPEBVFrame@video@libeYs3D@@@std@@@8 	 DATA
	??_R0?AV?$_Func_impl_no_alloc@V?$_Binder@U_Unforced@std@@P8FrameSetPipeline@devices@libeYs3D@@EAA_NPEBVFrame@video@5@@ZPEAV345@AEBU?$_Ph@$00@2@@std@@_NPEBVFrame@video@libeYs3D@@@std@@@8 	 DATA
	??_R0?AV?$_Func_impl_no_alloc@V?$_Binder@U_Unforced@std@@P8FrameSetPipeline@devices@libeYs3D@@EAA_NPEBVPCFrame@video@5@@ZPEAV345@AEBU?$_Ph@$00@2@@std@@_NPEBVPCFrame@video@libeYs3D@@@std@@@8 	 DATA
	??_R0?AV?$_Func_impl_no_alloc@V?$_Binder@U_Unforced@std@@P8PCFrameProducer@video@libeYs3D@@EAA_NPEBVFrame@45@@ZPEAV345@AEBU?$_Ph@$00@2@@std@@_NPEBVFrame@video@libeYs3D@@@std@@@8 	 DATA
	??_R0?AV?$_Func_impl_no_alloc@V?$_Binder@U_Unforced@std@@P8Pipeline@devices@libeYs3D@@EAA_NPEBUSensorData@sensors@5@@ZPEAV345@AEBU?$_Ph@$00@2@@std@@_NPEBUSensorData@sensors@libeYs3D@@@std@@@8 	 DATA
	??_R0?AV?$_Func_impl_no_alloc@V?$_Binder@U_Unforced@std@@P8Pipeline@devices@libeYs3D@@EAA_NPEBVFrame@video@5@@ZPEAV345@AEBU?$_Ph@$00@2@@std@@_NPEBVFrame@video@libeYs3D@@@std@@@8 	 DATA
	??_R0?AV?$_Func_impl_no_alloc@V?$_Binder@U_Unforced@std@@P8Pipeline@devices@libeYs3D@@EAA_NPEBVPCFrame@video@5@@ZPEAV345@AEBU?$_Ph@$00@2@@std@@_NPEBVPCFrame@video@libeYs3D@@@std@@@8 	 DATA
	??_R0?AV?$_Func_impl_no_alloc@V?$_Binder@U_Unforced@std@@P8SensorDataProducer@sensors@libeYs3D@@EAA_NPEBUSensorDataSet@45@@ZPEAV345@AEBU?$_Ph@$00@2@@std@@_NPEBUSensorDataSet@sensors@libeYs3D@@@std@@@8 	 DATA
	??_R0?AV?$_Iosb@H@std@@@8 	 DATA
	??_R0?AV?$_Ref_count@VCameraDevice@devices@libeYs3D@@@std@@@8 	 DATA
	??_R0?AV?$_Ref_count@VEYS3DSystem@libeYs3D@@@std@@@8 	 DATA
	??_R0?AV?$_Ref_count@VFrameSetPipeline@devices@libeYs3D@@@std@@@8 	 DATA
	??_R0?AV?$_Ref_count@VPipeline@devices@libeYs3D@@@std@@@8 	 DATA
	??_R0?AV?$basic_filebuf@DU?$char_traits@D@std@@@std@@@8 	 DATA
	??_R0?AV?$basic_ifstream@DU?$char_traits@D@std@@@std@@@8 	 DATA
	??_R0?AV?$basic_ios@DU?$char_traits@D@std@@@std@@@8 	 DATA
	??_R0?AV?$basic_iostream@DU?$char_traits@D@std@@@std@@@8 	 DATA
	??_R0?AV?$basic_istream@DU?$char_traits@D@std@@@std@@@8 	 DATA
	??_R0?AV?$basic_ofstream@DU?$char_traits@D@std@@@std@@@8 	 DATA
	??_R0?AV?$basic_ostream@DU?$char_traits@D@std@@@std@@@8 	 DATA
	??_R0?AV?$basic_ostringstream@DU?$char_traits@D@std@@V?$allocator@D@2@@std@@@8 	 DATA
	??_R0?AV?$basic_streambuf@DU?$char_traits@D@std@@@std@@@8 	 DATA
	??_R0?AV?$basic_stringbuf@DU?$char_traits@D@std@@V?$allocator@D@2@@std@@@8 	 DATA
	??_R0?AV?$basic_stringstream@DU?$char_traits@D@std@@V?$allocator@D@2@@std@@@8 	 DATA
	??_R0?AVCameraDevice8036@devices@libeYs3D@@@8 	 DATA
	??_R0?AVCameraDevice8037@devices@libeYs3D@@@8 	 DATA
	??_R0?AVCameraDevice8052@devices@libeYs3D@@@8 	 DATA
	??_R0?AVCameraDevice8053@devices@libeYs3D@@@8 	 DATA
	??_R0?AVCameraDevice8059@devices@libeYs3D@@@8 	 DATA
	??_R0?AVCameraDevice8062@devices@libeYs3D@@@8 	 DATA
	??_R0?AVCameraDevice8067@devices@libeYs3D@@@8 	 DATA
	??_R0?AVCameraDevice@devices@libeYs3D@@@8 	 DATA
	??_R0?AVCameraDeviceHypatia@devices@libeYs3D@@@8 	 DATA
	??_R0?AVColorFrameProducer@video@libeYs3D@@@8 	 DATA
	??_R0?AVDepthFrameProducer@video@libeYs3D@@@8 	 DATA
	??_R0?AVEYS3DSystem@libeYs3D@@@8 	 DATA
	??_R0?AVFrameProducer@video@libeYs3D@@@8 	 DATA
	??_R0?AVFrameSetPipeline@devices@libeYs3D@@@8 	 DATA
	??_R0?AVFunctorThread@base@libeYs3D@@@8 	 DATA
	??_R0?AVIMUDataProducer@sensors@libeYs3D@@@8 	 DATA
	??_R0?AVIMUDevice8062@devices@libeYs3D@@@8 	 DATA
	??_R0?AVIMUDevice@devices@libeYs3D@@@8 	 DATA
	??_R0?AVPCFrameProducer@video@libeYs3D@@@8 	 DATA
	??_R0?AVPCProducer@video@libeYs3D@@@8 	 DATA
	??_R0?AVPipeline@devices@libeYs3D@@@8 	 DATA
	??_R0?AVProducer@video@libeYs3D@@@8 	 DATA
	??_R0?AVRegisterReadWriteController@devices@libeYs3D@@@8 	 DATA
	??_R0?AVSensorDataProducer@sensors@libeYs3D@@@8 	 DATA
	??_R0?AVThread@base@libeYs3D@@@8 	 DATA
	??_R0?AV_Ref_count_base@std@@@8 	 DATA
	??_R0?AVbad_cast@std@@@8 	 DATA
	??_R0?AVexception@std@@@8 	 DATA
	??_R0?AVios_base@std@@@8 	 DATA
	??_R0?AVruntime_error@std@@@8 	 DATA
	??_R0P6A_NPEBVFrame@video@libeYs3D@@@Z@8 	 DATA
	??_R0P6A_NPEBVPCFrame@video@libeYs3D@@@Z@8 	 DATA
	?_OptionsStorage@?1??__local_stdio_printf_options@@9@4_KA 	 DATA
	?_OptionsStorage@?1??__local_stdio_scanf_options@@9@4_KA 	 DATA
	?_Psave@?$_Facetptr@V?$codecvt@DDU_Mbstatet@@@std@@@std@@2PEBVfacet@locale@2@EB 	 DATA
	?_Stinit@?1??_Init@?$basic_filebuf@DU?$char_traits@D@std@@@std@@IEAAXPEAU_iobuf@@W4_Initfl@23@@Z@4U_Mbstatet@@A 	 DATA
	?color_frame@@3PEAEEA 	 DATA
	?color_frame_out@@3PEAEEA 	 DATA
	?config@@3UCameraOpenConfig@@A 	 DATA
	?defaultAlpha@ColorPaletteGenerator@@0HA 	 DATA
	?depth_frame@@3PEAEEA 	 DATA
	?depth_frame_out@@3PEAMEA 	 DATA
	?gColorImgSize@@3_KA 	 DATA
	?gColorSerial@@3IA 	 DATA
	?gDefaultFar@@3GA 	 DATA
	?gDefaultNear@@3GA 	 DATA
	?gDepthImgSize@@3_KA 	 DATA
	?gDepthSerial@@3IA 	 DATA
	?gGlobalState@?A0xa7fd18e7@base@libeYs3D@@3U?$LazyInstance@VGlobalState@?A0xa7fd18e7@base@libeYs3D@@@23@A 	 DATA
	?gPCRGBSize@@3_KA 	 DATA
	?gPCSerial@@3IA 	 DATA
	?gPCXYZSize@@3_KA 	 DATA
	?haveColor@@3_NA 	 DATA
	?haveDepth@@3_NA 	 DATA
	?maxHueAngle@ColorPaletteGenerator@@0NA 	 DATA
	?modeConfigOptions@@3V?$unique_ptr@VModeConfigOptions@@U?$default_delete@VModeConfigOptions@@@std@@@std@@A 	 DATA
	?modeConfigs@@3V?$vector@UMODE_CONFIG@ModeConfig@@V?$allocator@UMODE_CONFIG@ModeConfig@@@std@@@std@@A 	 DATA
	?sEYS3DSystem@EYS3DSystem@libeYs3D@@0V?$shared_ptr@VEYS3DSystem@libeYs3D@@@std@@A 	 DATA
	?s_color_producer_tick_logger@@3VLogger@log4cplus@@A 	 DATA
	?s_console_logger@@3VLogger@log4cplus@@A 	 DATA
	?s_depth_accuracy_logger@@3VLogger@log4cplus@@A 	 DATA
	?s_depth_producer_tick_logger@@3VLogger@log4cplus@@A 	 DATA
	?s_imu_producer_tick_logger@@3VLogger@log4cplus@@A 	 DATA
	?s_pc_producer_tick_logger@@3VLogger@log4cplus@@A 	 DATA
	?s_performance_logger@@3VLogger@log4cplus@@A 	 DATA
	?sizeTable@IMUData@@2V?$map@W4IMUPacketSymbol@IMUData@@_KU?$less@W4IMUPacketSymbol@IMUData@@@std@@V?$allocator@U?$pair@$$CBW4IMUPacketSymbol@IMUData@@_K@std@@@4@@std@@A 	 DATA
	?sizeTable_DMP@IMUData@@2V?$map@W4IMUPacketSymbol@IMUData@@_KU?$less@W4IMUPacketSymbol@IMUData@@@std@@V?$allocator@U?$pair@$$CBW4IMUPacketSymbol@IMUData@@_K@std@@@4@@std@@A 	 DATA
	?sizeTable_Quaternion@IMUData@@2V?$map@W4IMUPacketSymbol@IMUData@@_KU?$less@W4IMUPacketSymbol@IMUData@@@std@@V?$allocator@U?$pair@$$CBW4IMUPacketSymbol@IMUData@@_K@std@@@4@@std@@A 	 DATA
	?tmpColorBuf@devices@libeYs3D@@3PEAEEA 	 DATA
	?tmpColorHeight@devices@libeYs3D@@3HA 	 DATA
	?tmpColorSerialNumber@devices@libeYs3D@@3HA 	 DATA
	?tmpColorSize@devices@libeYs3D@@3HA 	 DATA
	?tmpColorWidth@devices@libeYs3D@@3HA 	 DATA
	?tmpDepthBuf@devices@libeYs3D@@3PEAEEA 	 DATA
	?tmpDepthHeight@devices@libeYs3D@@3HA 	 DATA
	?tmpDepthSerialNumber@devices@libeYs3D@@3HA 	 DATA
	?tmpDepthSize@devices@libeYs3D@@3HA 	 DATA
	?tmpDepthWidth@devices@libeYs3D@@3HA 	 DATA
	?unity_depth_raw_data_type@@3HA 	 DATA
	?unity_device@@3V?$shared_ptr@VCameraDevice@devices@libeYs3D@@@std@@A 	 DATA
	?unity_eYs3DSystem@@3V?$shared_ptr@VEYS3DSystem@libeYs3D@@@std@@A 	 DATA
	?unity_mode_config@@3UMODE_CONFIG@ModeConfig@@A 	 DATA
	?updateColorHandle@@3PEAXEA 	 DATA
	?updateColorHandle@devices@libeYs3D@@3PEAXEA 	 DATA
	?updateDepthHandle@@3PEAXEA 	 DATA
	?updateDepthHandle@devices@libeYs3D@@3PEAXEA 	 DATA
	?updatePCHandle@@3PEAXEA 	 DATA
	?useInterleaveMode@@3_NA 	 DATA
	?used_pif@@3HA 	 DATA
	?zdTable@@3PEAGEA 	 DATA
	ProductID 	 DATA
	VendorID 	 DATA
	sqlite3_data_directory 	 DATA
	sqlite3_temp_directory 	 DATA
	??$<move>@AEAV<lambda_644b0c6f6f426dfd6f91480300661176>@@@@YA$$QEAV<lambda_644b0c6f6f426dfd6f91480300661176>@@AEAV0@@Z
	??$<move>@AEAV<lambda_c26ef134520f1d4904a3b959b66e0c10>@@@@YA$$QEAV<lambda_c26ef134520f1d4904a3b959b66e0c10>@@AEAV0@@Z
	??$<move>@AEAV<lambda_dbbb479bfc9ffc0a9f130fbf77aabe71>@@@@YA$$QEAV<lambda_dbbb479bfc9ffc0a9f130fbf77aabe71>@@AEAV0@@Z
	??$?6U?$char_traits@D@std@@@std@@YAAEAV?$basic_ostream@DU?$char_traits@D@std@@@0@AEAV10@D@Z
	??$?6U?$char_traits@D@std@@@std@@YAAEAV?$basic_ostream@DU?$char_traits@D@std@@@0@AEAV10@PEBD@Z
	??$?9_K@base@libeYs3D@@YA_NAEB_KAEBV?$Optional@_K@01@@Z
	??$?IW4ThreadFlags@base@libeYs3D@@@EnumFlags@base@libeYs3D@@YA?AW4ThreadFlags@12@W4312@0@Z
	??$?UW4ThreadFlags@base@libeYs3D@@@EnumFlags@base@libeYs3D@@YA?AW4ThreadFlags@12@W4312@0@Z
	??$_Buynode@$$V@?$_List_buy@V?$vector@FV?$allocator@F@std@@@std@@V?$allocator@V?$vector@FV?$allocator@F@std@@@std@@@2@@std@@QEAAPEAU?$_List_node@V?$vector@FV?$allocator@F@std@@@std@@PEAX@1@PEAU21@0@Z
	??$_Buynode@AEBU?$pair@$$CBW4IMUPacketSymbol@IMUData@@_K@std@@@?$_Tree_comp_alloc@V?$_Tmap_traits@W4IMUPacketSymbol@IMUData@@_KU?$less@W4IMUPacketSymbol@IMUData@@@std@@V?$allocator@U?$pair@$$CBW4IMUPacketSymbol@IMUData@@_K@std@@@4@$0A@@std@@@std@@QEAAPEAU?$_Tree_node@U?$pair@$$CBW4IMUPacketSymbol@IMUData@@_K@std@@PEAX@1@AEBU?$pair@$$CBW4IMUPacketSymbol@IMUData@@_K@1@@Z
	??$_Buynode@AEBUpiecewise_construct_t@std@@V?$tuple@$$QEAW4IMUPacketSymbol@IMUData@@@2@V?$tuple@$$V@2@@?$_Tree_comp_alloc@V?$_Tmap_traits@W4IMUPacketSymbol@IMUData@@_KU?$less@W4IMUPacketSymbol@IMUData@@@std@@V?$allocator@U?$pair@$$CBW4IMUPacketSymbol@IMUData@@_K@std@@@4@$0A@@std@@@std@@QEAAPEAU?$_Tree_node@U?$pair@$$CBW4IMUPacketSymbol@IMUData@@_K@std@@PEAX@1@AEBUpiecewise_construct_t@1@$$QEAV?$tuple@$$QEAW4IMUPacketSymbol@IMUData@@@1@$$QEAV?$tuple@$$V@1@@Z
	??$_Buynode@AEBUpiecewise_construct_t@std@@V?$tuple@AEBH@2@V?$tuple@$$V@2@@?$_Tree_comp_alloc@V?$_Tmap_traits@HUPID_TABLE@ModeConfig@@U?$less@H@std@@V?$allocator@U?$pair@$$CBHUPID_TABLE@ModeConfig@@@std@@@4@$0A@@std@@@std@@QEAAPEAU?$_Tree_node@U?$pair@$$CBHUPID_TABLE@ModeConfig@@@std@@PEAX@1@AEBUpiecewise_construct_t@1@$$QEAV?$tuple@AEBH@1@$$QEAV?$tuple@$$V@1@@Z
	??$_Buynode@AEBUpiecewise_construct_t@std@@V?$tuple@AEBU?$pair@GG@std@@@2@V?$tuple@$$V@2@@?$_Tree_comp_alloc@V?$_Tmap_traits@U?$pair@GG@std@@V?$vector@V?$basic_string@DU?$char_traits@D@std@@V?$allocator@D@2@@std@@V?$allocator@V?$basic_string@DU?$char_traits@D@std@@V?$allocator@D@2@@std@@@2@@2@U?$less@U?$pair@GG@std@@@2@V?$allocator@U?$pair@$$CBU?$pair@GG@std@@V?$vector@V?$basic_string@DU?$char_traits@D@std@@V?$allocator@D@2@@std@@V?$allocator@V?$basic_string@DU?$char_traits@D@std@@V?$allocator@D@2@@std@@@2@@2@@std@@@2@$0A@@std@@@std@@QEAAPEAU?$_Tree_node@U?$pair@$$CBU?$pair@GG@std@@V?$vector@V?$basic_string@DU?$char_traits@D@std@@V?$allocator@D@2@@std@@V?$allocator@V?$basic_string@DU?$char_traits@D@std@@V?$allocator@D@2@@std@@@2@@2@@std@@PEAX@1@AEBUpiecewise_construct_t@1@$$QEAV?$tuple@AEBU?$pair@GG@std@@@1@$$QEAV?$tuple@$$V@1@@Z
	??$_Buynode@AEBUpiecewise_construct_t@std@@V?$tuple@AEBUDeviceSellectInfo@libeYs3D@@@2@V?$tuple@$$V@2@@?$_Tree_comp_alloc@V?$_Tmap_traits@UDeviceSellectInfo@libeYs3D@@V?$shared_ptr@VCameraDevice@devices@libeYs3D@@@std@@U?$less@UDeviceSellectInfo@libeYs3D@@@4@V?$allocator@U?$pair@$$CBUDeviceSellectInfo@libeYs3D@@V?$shared_ptr@VCameraDevice@devices@libeYs3D@@@std@@@std@@@4@$0A@@std@@@std@@QEAAPEAU?$_Tree_node@U?$pair@$$CBUDeviceSellectInfo@libeYs3D@@V?$shared_ptr@VCameraDevice@devices@libeYs3D@@@std@@@std@@PEAX@1@AEBUpiecewise_construct_t@1@$$QEAV?$tuple@AEBUDeviceSellectInfo@libeYs3D@@@1@$$QEAV?$tuple@$$V@1@@Z
	??$_Buynode@U?$pair@HH@std@@@?$_Tree_comp_alloc@V?$_Tmap_traits@HHU?$less@H@std@@V?$allocator@U?$pair@$$CBHH@std@@@2@$0A@@std@@@std@@QEAAPEAU?$_Tree_node@U?$pair@$$CBHH@std@@PEAX@1@$$QEAU?$pair@HH@1@@Z
	??$_Destroy_range@V?$allocator@UCommand@?$WorkerThread@V?$Optional@VCallbackWorkItem@sensors@libeYs3D@@@base@libeYs3D@@@base@libeYs3D@@@std@@@std@@YAXPEAUCommand@?$WorkerThread@V?$Optional@VCallbackWorkItem@sensors@libeYs3D@@@base@libeYs3D@@@base@libeYs3D@@0AEAV?$allocator@UCommand@?$WorkerThread@V?$Optional@VCallbackWorkItem@sensors@libeYs3D@@@base@libeYs3D@@@base@libeYs3D@@@0@@Z
	??$_Destroy_range@V?$allocator@UCommand@?$WorkerThread@V?$Optional@VCallbackWorkItem@video@libeYs3D@@@base@libeYs3D@@@base@libeYs3D@@@std@@@std@@YAXPEAUCommand@?$WorkerThread@V?$Optional@VCallbackWorkItem@video@libeYs3D@@@base@libeYs3D@@@base@libeYs3D@@0AEAV?$allocator@UCommand@?$WorkerThread@V?$Optional@VCallbackWorkItem@video@libeYs3D@@@base@libeYs3D@@@base@libeYs3D@@@0@@Z
	??$_Destroy_range@V?$allocator@UCommand@?$WorkerThread@V?$Optional@VDACalculateWorkItem@video@libeYs3D@@@base@libeYs3D@@@base@libeYs3D@@@std@@@std@@YAXPEAUCommand@?$WorkerThread@V?$Optional@VDACalculateWorkItem@video@libeYs3D@@@base@libeYs3D@@@base@libeYs3D@@0AEAV?$allocator@UCommand@?$WorkerThread@V?$Optional@VDACalculateWorkItem@video@libeYs3D@@@base@libeYs3D@@@base@libeYs3D@@@0@@Z
	??$_Destroy_range@V?$allocator@V?$basic_string@DU?$char_traits@D@std@@V?$allocator@D@2@@std@@@std@@@std@@YAXPEAV?$basic_string@DU?$char_traits@D@std@@V?$allocator@D@2@@0@0AEAV?$allocator@V?$basic_string@DU?$char_traits@D@std@@V?$allocator@D@2@@std@@@0@@Z
	??$_Emplace_reallocate@AEBUCloudPoint@@@?$vector@UCloudPoint@@V?$allocator@UCloudPoint@@@std@@@std@@QEAAPEAUCloudPoint@@QEAU2@AEBU2@@Z
	??$_Emplace_reallocate@AEBUMODE_CONFIG@ModeConfig@@@?$vector@UMODE_CONFIG@ModeConfig@@V?$allocator@UMODE_CONFIG@ModeConfig@@@std@@@std@@QEAAPEAUMODE_CONFIG@ModeConfig@@QEAU23@AEBU23@@Z
	??$_Emplace_reallocate@AEBV?$basic_string@DU?$char_traits@D@std@@V?$allocator@D@2@@std@@@?$vector@V?$basic_string@DU?$char_traits@D@std@@V?$allocator@D@2@@std@@V?$allocator@V?$basic_string@DU?$char_traits@D@std@@V?$allocator@D@2@@std@@@2@@std@@QEAAPEAV?$basic_string@DU?$char_traits@D@std@@V?$allocator@D@2@@1@QEAV21@AEBV21@@Z
	??$_Emplace_reallocate@H@?$vector@HV?$allocator@H@std@@@std@@QEAAPEAHQEAH$$QEAH@Z
	??$_Emplace_reallocate@UCommand@?$WorkerThread@V?$Optional@VCallbackWorkItem@sensors@libeYs3D@@@base@libeYs3D@@@base@libeYs3D@@@?$vector@UCommand@?$WorkerThread@V?$Optional@VCallbackWorkItem@sensors@libeYs3D@@@base@libeYs3D@@@base@libeYs3D@@V?$allocator@UCommand@?$WorkerThread@V?$Optional@VCallbackWorkItem@sensors@libeYs3D@@@base@libeYs3D@@@base@libeYs3D@@@std@@@std@@QEAAPEAUCommand@?$WorkerThread@V?$Optional@VCallbackWorkItem@sensors@libeYs3D@@@base@libeYs3D@@@base@libeYs3D@@QEAU2345@$$QEAU2345@@Z
	??$_Emplace_reallocate@UCommand@?$WorkerThread@V?$Optional@VCallbackWorkItem@video@libeYs3D@@@base@libeYs3D@@@base@libeYs3D@@@?$vector@UCommand@?$WorkerThread@V?$Optional@VCallbackWorkItem@video@libeYs3D@@@base@libeYs3D@@@base@libeYs3D@@V?$allocator@UCommand@?$WorkerThread@V?$Optional@VCallbackWorkItem@video@libeYs3D@@@base@libeYs3D@@@base@libeYs3D@@@std@@@std@@QEAAPEAUCommand@?$WorkerThread@V?$Optional@VCallbackWorkItem@video@libeYs3D@@@base@libeYs3D@@@base@libeYs3D@@QEAU2345@$$QEAU2345@@Z
	??$_Emplace_reallocate@UCommand@?$WorkerThread@V?$Optional@VDACalculateWorkItem@video@libeYs3D@@@base@libeYs3D@@@base@libeYs3D@@@?$vector@UCommand@?$WorkerThread@V?$Optional@VDACalculateWorkItem@video@libeYs3D@@@base@libeYs3D@@@base@libeYs3D@@V?$allocator@UCommand@?$WorkerThread@V?$Optional@VDACalculateWorkItem@video@libeYs3D@@@base@libeYs3D@@@base@libeYs3D@@@std@@@std@@QEAAPEAUCommand@?$WorkerThread@V?$Optional@VDACalculateWorkItem@video@libeYs3D@@@base@libeYs3D@@@base@libeYs3D@@QEAU2345@$$QEAU2345@@Z
	??$_Emplace_reallocate@UMODE_CONFIG@ModeConfig@@@?$vector@UMODE_CONFIG@ModeConfig@@V?$allocator@UMODE_CONFIG@ModeConfig@@@std@@@std@@QEAAPEAUMODE_CONFIG@ModeConfig@@QEAU23@$$QEAU23@@Z
	??$_Enable_shared_from_this1@VCameraDevice@devices@libeYs3D@@V123@@std@@YAXAEBV?$shared_ptr@VCameraDevice@devices@libeYs3D@@@0@PEAVCameraDevice@devices@libeYs3D@@U?$integral_constant@_N$0A@@0@@Z
	??$_Enable_shared_from_this1@VEYS3DSystem@libeYs3D@@V12@@std@@YAXAEBV?$shared_ptr@VEYS3DSystem@libeYs3D@@@0@PEAVEYS3DSystem@libeYs3D@@U?$integral_constant@_N$0A@@0@@Z
	??$_Enable_shared_from_this1@VFrameSetPipeline@devices@libeYs3D@@V123@@std@@YAXAEBV?$shared_ptr@VFrameSetPipeline@devices@libeYs3D@@@0@PEAVFrameSetPipeline@devices@libeYs3D@@U?$integral_constant@_N$0A@@0@@Z
	??$_Enable_shared_from_this1@VPipeline@devices@libeYs3D@@V123@@std@@YAXAEBV?$shared_ptr@VPipeline@devices@libeYs3D@@@0@PEAVPipeline@devices@libeYs3D@@U?$integral_constant@_N$0A@@0@@Z
	??$_Enable_shared_from_this@VCameraDevice@devices@libeYs3D@@V123@@std@@YAXAEBV?$shared_ptr@VCameraDevice@devices@libeYs3D@@@0@PEAVCameraDevice@devices@libeYs3D@@@Z
	??$_Enable_shared_from_this@VEYS3DSystem@libeYs3D@@V12@@std@@YAXAEBV?$shared_ptr@VEYS3DSystem@libeYs3D@@@0@PEAVEYS3DSystem@libeYs3D@@@Z
	??$_Enable_shared_from_this@VFrameSetPipeline@devices@libeYs3D@@V123@@std@@YAXAEBV?$shared_ptr@VFrameSetPipeline@devices@libeYs3D@@@0@PEAVFrameSetPipeline@devices@libeYs3D@@@Z
	??$_Enable_shared_from_this@VPipeline@devices@libeYs3D@@V123@@std@@YAXAEBV?$shared_ptr@VPipeline@devices@libeYs3D@@@0@PEAVPipeline@devices@libeYs3D@@@Z
	??$_Guess_median_unchecked@PEAMU?$less@X@std@@@std@@YAXPEAM00U?$less@X@0@@Z
	??$_Insert_at@AEAU?$pair@$$CBHH@std@@PEAU?$_Tree_node@U?$pair@$$CBHH@std@@PEAX@2@@?$_Tree@V?$_Tmap_traits@HHU?$less@H@std@@V?$allocator@U?$pair@$$CBHH@std@@@2@$0A@@std@@@std@@IEAA?AV?$_Tree_iterator@V?$_Tree_val@U?$_Tree_simple_types@U?$pair@$$CBHH@std@@@std@@@std@@@1@_NPEAU?$_Tree_node@U?$pair@$$CBHH@std@@PEAX@1@AEAU?$pair@$$CBHH@1@1@Z
	??$_Insert_at@AEAU?$pair@$$CBHUPID_TABLE@ModeConfig@@@std@@PEAU?$_Tree_node@U?$pair@$$CBHUPID_TABLE@ModeConfig@@@std@@PEAX@2@@?$_Tree@V?$_Tmap_traits@HUPID_TABLE@ModeConfig@@U?$less@H@std@@V?$allocator@U?$pair@$$CBHUPID_TABLE@ModeConfig@@@std@@@4@$0A@@std@@@std@@IEAA?AV?$_Tree_iterator@V?$_Tree_val@U?$_Tree_simple_types@U?$pair@$$CBHUPID_TABLE@ModeConfig@@@std@@@std@@@std@@@1@_NPEAU?$_Tree_node@U?$pair@$$CBHUPID_TABLE@ModeConfig@@@std@@PEAX@1@AEAU?$pair@$$CBHUPID_TABLE@ModeConfig@@@1@1@Z
	??$_Insert_at@AEAU?$pair@$$CBU?$pair@GG@std@@V?$vector@V?$basic_string@DU?$char_traits@D@std@@V?$allocator@D@2@@std@@V?$allocator@V?$basic_string@DU?$char_traits@D@std@@V?$allocator@D@2@@std@@@2@@2@@std@@PEAU?$_Tree_node@U?$pair@$$CBU?$pair@GG@std@@V?$vector@V?$basic_string@DU?$char_traits@D@std@@V?$allocator@D@2@@std@@V?$allocator@V?$basic_string@DU?$char_traits@D@std@@V?$allocator@D@2@@std@@@2@@2@@std@@PEAX@2@@?$_Tree@V?$_Tmap_traits@U?$pair@GG@std@@V?$vector@V?$basic_string@DU?$char_traits@D@std@@V?$allocator@D@2@@std@@V?$allocator@V?$basic_string@DU?$char_traits@D@std@@V?$allocator@D@2@@std@@@2@@2@U?$less@U?$pair@GG@std@@@2@V?$allocator@U?$pair@$$CBU?$pair@GG@std@@V?$vector@V?$basic_string@DU?$char_traits@D@std@@V?$allocator@D@2@@std@@V?$allocator@V?$basic_string@DU?$char_traits@D@std@@V?$allocator@D@2@@std@@@2@@2@@std@@@2@$0A@@std@@@std@@IEAA?AV?$_Tree_iterator@V?$_Tree_val@U?$_Tree_simple_types@U?$pair@$$CBU?$pair@GG@std@@V?$vector@V?$basic_string@DU?$char_traits@D@std@@V?$allocator@D@2@@std@@V?$allocator@V?$basic_string@DU?$char_traits@D@std@@V?$allocator@D@2@@std@@@2@@2@@std@@@std@@@std@@@1@_NPEAU?$_Tree_node@U?$pair@$$CBU?$pair@GG@std@@V?$vector@V?$basic_string@DU?$char_traits@D@std@@V?$allocator@D@2@@std@@V?$allocator@V?$basic_string@DU?$char_traits@D@std@@V?$allocator@D@2@@std@@@2@@2@@std@@PEAX@1@AEAU?$pair@$$CBU?$pair@GG@std@@V?$vector@V?$basic_string@DU?$char_traits@D@std@@V?$allocator@D@2@@std@@V?$allocator@V?$basic_string@DU?$char_traits@D@std@@V?$allocator@D@2@@std@@@2@@2@@1@1@Z
	??$_Insert_at@AEAU?$pair@$$CBUDeviceSellectInfo@libeYs3D@@V?$shared_ptr@VCameraDevice@devices@libeYs3D@@@std@@@std@@PEAU?$_Tree_node@U?$pair@$$CBUDeviceSellectInfo@libeYs3D@@V?$shared_ptr@VCameraDevice@devices@libeYs3D@@@std@@@std@@PEAX@2@@?$_Tree@V?$_Tmap_traits@UDeviceSellectInfo@libeYs3D@@V?$shared_ptr@VCameraDevice@devices@libeYs3D@@@std@@U?$less@UDeviceSellectInfo@libeYs3D@@@4@V?$allocator@U?$pair@$$CBUDeviceSellectInfo@libeYs3D@@V?$shared_ptr@VCameraDevice@devices@libeYs3D@@@std@@@std@@@4@$0A@@std@@@std@@IEAA?AV?$_Tree_iterator@V?$_Tree_val@U?$_Tree_simple_types@U?$pair@$$CBUDeviceSellectInfo@libeYs3D@@V?$shared_ptr@VCameraDevice@devices@libeYs3D@@@std@@@std@@@std@@@std@@@1@_NPEAU?$_Tree_node@U?$pair@$$CBUDeviceSellectInfo@libeYs3D@@V?$shared_ptr@VCameraDevice@devices@libeYs3D@@@std@@@std@@PEAX@1@AEAU?$pair@$$CBUDeviceSellectInfo@libeYs3D@@V?$shared_ptr@VCameraDevice@devices@libeYs3D@@@std@@@1@1@Z
	??$_Insert_at@AEAU?$pair@$$CBW4IMUPacketSymbol@IMUData@@_K@std@@PEAU?$_Tree_node@U?$pair@$$CBW4IMUPacketSymbol@IMUData@@_K@std@@PEAX@2@@?$_Tree@V?$_Tmap_traits@W4IMUPacketSymbol@IMUData@@_KU?$less@W4IMUPacketSymbol@IMUData@@@std@@V?$allocator@U?$pair@$$CBW4IMUPacketSymbol@IMUData@@_K@std@@@4@$0A@@std@@@std@@IEAA?AV?$_Tree_iterator@V?$_Tree_val@U?$_Tree_simple_types@U?$pair@$$CBW4IMUPacketSymbol@IMUData@@_K@std@@@std@@@std@@@1@_NPEAU?$_Tree_node@U?$pair@$$CBW4IMUPacketSymbol@IMUData@@_K@std@@PEAX@1@AEAU?$pair@$$CBW4IMUPacketSymbol@IMUData@@_K@1@1@Z
	??$_Insert_hint@AEAU?$pair@$$CBHUPID_TABLE@ModeConfig@@@std@@PEAU?$_Tree_node@U?$pair@$$CBHUPID_TABLE@ModeConfig@@@std@@PEAX@2@@?$_Tree@V?$_Tmap_traits@HUPID_TABLE@ModeConfig@@U?$less@H@std@@V?$allocator@U?$pair@$$CBHUPID_TABLE@ModeConfig@@@std@@@4@$0A@@std@@@std@@IEAA?AV?$_Tree_iterator@V?$_Tree_val@U?$_Tree_simple_types@U?$pair@$$CBHUPID_TABLE@ModeConfig@@@std@@@std@@@std@@@1@V?$_Tree_const_iterator@V?$_Tree_val@U?$_Tree_simple_types@U?$pair@$$CBHUPID_TABLE@ModeConfig@@@std@@@std@@@std@@@1@AEAU?$pair@$$CBHUPID_TABLE@ModeConfig@@@1@PEAU?$_Tree_node@U?$pair@$$CBHUPID_TABLE@ModeConfig@@@std@@PEAX@1@@Z
	??$_Insert_hint@AEAU?$pair@$$CBU?$pair@GG@std@@V?$vector@V?$basic_string@DU?$char_traits@D@std@@V?$allocator@D@2@@std@@V?$allocator@V?$basic_string@DU?$char_traits@D@std@@V?$allocator@D@2@@std@@@2@@2@@std@@PEAU?$_Tree_node@U?$pair@$$CBU?$pair@GG@std@@V?$vector@V?$basic_string@DU?$char_traits@D@std@@V?$allocator@D@2@@std@@V?$allocator@V?$basic_string@DU?$char_traits@D@std@@V?$allocator@D@2@@std@@@2@@2@@std@@PEAX@2@@?$_Tree@V?$_Tmap_traits@U?$pair@GG@std@@V?$vector@V?$basic_string@DU?$char_traits@D@std@@V?$allocator@D@2@@std@@V?$allocator@V?$basic_string@DU?$char_traits@D@std@@V?$allocator@D@2@@std@@@2@@2@U?$less@U?$pair@GG@std@@@2@V?$allocator@U?$pair@$$CBU?$pair@GG@std@@V?$vector@V?$basic_string@DU?$char_traits@D@std@@V?$allocator@D@2@@std@@V?$allocator@V?$basic_string@DU?$char_traits@D@std@@V?$allocator@D@2@@std@@@2@@2@@std@@@2@$0A@@std@@@std@@IEAA?AV?$_Tree_iterator@V?$_Tree_val@U?$_Tree_simple_types@U?$pair@$$CBU?$pair@GG@std@@V?$vector@V?$basic_string@DU?$char_traits@D@std@@V?$allocator@D@2@@std@@V?$allocator@V?$basic_string@DU?$char_traits@D@std@@V?$allocator@D@2@@std@@@2@@2@@std@@@std@@@std@@@1@V?$_Tree_const_iterator@V?$_Tree_val@U?$_Tree_simple_types@U?$pair@$$CBU?$pair@GG@std@@V?$vector@V?$basic_string@DU?$char_traits@D@std@@V?$allocator@D@2@@std@@V?$allocator@V?$basic_string@DU?$char_traits@D@std@@V?$allocator@D@2@@std@@@2@@2@@std@@@std@@@std@@@1@AEAU?$pair@$$CBU?$pair@GG@std@@V?$vector@V?$basic_string@DU?$char_traits@D@std@@V?$allocator@D@2@@std@@V?$allocator@V?$basic_string@DU?$char_traits@D@std@@V?$allocator@D@2@@std@@@2@@2@@1@PEAU?$_Tree_node@U?$pair@$$CBU?$pair@GG@std@@V?$vector@V?$basic_string@DU?$char_traits@D@std@@V?$allocator@D@2@@std@@V?$allocator@V?$basic_string@DU?$char_traits@D@std@@V?$allocator@D@2@@std@@@2@@2@@std@@PEAX@1@@Z
	??$_Insert_hint@AEAU?$pair@$$CBUDeviceSellectInfo@libeYs3D@@V?$shared_ptr@VCameraDevice@devices@libeYs3D@@@std@@@std@@PEAU?$_Tree_node@U?$pair@$$CBUDeviceSellectInfo@libeYs3D@@V?$shared_ptr@VCameraDevice@devices@libeYs3D@@@std@@@std@@PEAX@2@@?$_Tree@V?$_Tmap_traits@UDeviceSellectInfo@libeYs3D@@V?$shared_ptr@VCameraDevice@devices@libeYs3D@@@std@@U?$less@UDeviceSellectInfo@libeYs3D@@@4@V?$allocator@U?$pair@$$CBUDeviceSellectInfo@libeYs3D@@V?$shared_ptr@VCameraDevice@devices@libeYs3D@@@std@@@std@@@4@$0A@@std@@@std@@IEAA?AV?$_Tree_iterator@V?$_Tree_val@U?$_Tree_simple_types@U?$pair@$$CBUDeviceSellectInfo@libeYs3D@@V?$shared_ptr@VCameraDevice@devices@libeYs3D@@@std@@@std@@@std@@@std@@@1@V?$_Tree_const_iterator@V?$_Tree_val@U?$_Tree_simple_types@U?$pair@$$CBUDeviceSellectInfo@libeYs3D@@V?$shared_ptr@VCameraDevice@devices@libeYs3D@@@std@@@std@@@std@@@std@@@1@AEAU?$pair@$$CBUDeviceSellectInfo@libeYs3D@@V?$shared_ptr@VCameraDevice@devices@libeYs3D@@@std@@@1@PEAU?$_Tree_node@U?$pair@$$CBUDeviceSellectInfo@libeYs3D@@V?$shared_ptr@VCameraDevice@devices@libeYs3D@@@std@@@std@@PEAX@1@@Z
	??$_Insert_hint@AEAU?$pair@$$CBW4IMUPacketSymbol@IMUData@@_K@std@@PEAU?$_Tree_node@U?$pair@$$CBW4IMUPacketSymbol@IMUData@@_K@std@@PEAX@2@@?$_Tree@V?$_Tmap_traits@W4IMUPacketSymbol@IMUData@@_KU?$less@W4IMUPacketSymbol@IMUData@@@std@@V?$allocator@U?$pair@$$CBW4IMUPacketSymbol@IMUData@@_K@std@@@4@$0A@@std@@@std@@IEAA?AV?$_Tree_iterator@V?$_Tree_val@U?$_Tree_simple_types@U?$pair@$$CBW4IMUPacketSymbol@IMUData@@_K@std@@@std@@@std@@@1@V?$_Tree_const_iterator@V?$_Tree_val@U?$_Tree_simple_types@U?$pair@$$CBW4IMUPacketSymbol@IMUData@@_K@std@@@std@@@std@@@1@AEAU?$pair@$$CBW4IMUPacketSymbol@IMUData@@_K@1@PEAU?$_Tree_node@U?$pair@$$CBW4IMUPacketSymbol@IMUData@@_K@std@@PEAX@1@@Z
	??$_Insert_nohint@AEAU?$pair@$$CBHH@std@@PEAU?$_Tree_node@U?$pair@$$CBHH@std@@PEAX@2@@?$_Tree@V?$_Tmap_traits@HHU?$less@H@std@@V?$allocator@U?$pair@$$CBHH@std@@@2@$0A@@std@@@std@@IEAA?AU?$pair@V?$_Tree_iterator@V?$_Tree_val@U?$_Tree_simple_types@U?$pair@$$CBHH@std@@@std@@@std@@@std@@_N@1@_NAEAU?$pair@$$CBHH@1@PEAU?$_Tree_node@U?$pair@$$CBHH@std@@PEAX@1@@Z
	??$_Insert_nohint@AEAU?$pair@$$CBHUPID_TABLE@ModeConfig@@@std@@PEAU?$_Tree_node@U?$pair@$$CBHUPID_TABLE@ModeConfig@@@std@@PEAX@2@@?$_Tree@V?$_Tmap_traits@HUPID_TABLE@ModeConfig@@U?$less@H@std@@V?$allocator@U?$pair@$$CBHUPID_TABLE@ModeConfig@@@std@@@4@$0A@@std@@@std@@IEAA?AU?$pair@V?$_Tree_iterator@V?$_Tree_val@U?$_Tree_simple_types@U?$pair@$$CBHUPID_TABLE@ModeConfig@@@std@@@std@@@std@@@std@@_N@1@_NAEAU?$pair@$$CBHUPID_TABLE@ModeConfig@@@1@PEAU?$_Tree_node@U?$pair@$$CBHUPID_TABLE@ModeConfig@@@std@@PEAX@1@@Z
	??$_Insert_nohint@AEAU?$pair@$$CBU?$pair@GG@std@@V?$vector@V?$basic_string@DU?$char_traits@D@std@@V?$allocator@D@2@@std@@V?$allocator@V?$basic_string@DU?$char_traits@D@std@@V?$allocator@D@2@@std@@@2@@2@@std@@PEAU?$_Tree_node@U?$pair@$$CBU?$pair@GG@std@@V?$vector@V?$basic_string@DU?$char_traits@D@std@@V?$allocator@D@2@@std@@V?$allocator@V?$basic_string@DU?$char_traits@D@std@@V?$allocator@D@2@@std@@@2@@2@@std@@PEAX@2@@?$_Tree@V?$_Tmap_traits@U?$pair@GG@std@@V?$vector@V?$basic_string@DU?$char_traits@D@std@@V?$allocator@D@2@@std@@V?$allocator@V?$basic_string@DU?$char_traits@D@std@@V?$allocator@D@2@@std@@@2@@2@U?$less@U?$pair@GG@std@@@2@V?$allocator@U?$pair@$$CBU?$pair@GG@std@@V?$vector@V?$basic_string@DU?$char_traits@D@std@@V?$allocator@D@2@@std@@V?$allocator@V?$basic_string@DU?$char_traits@D@std@@V?$allocator@D@2@@std@@@2@@2@@std@@@2@$0A@@std@@@std@@IEAA?AU?$pair@V?$_Tree_iterator@V?$_Tree_val@U?$_Tree_simple_types@U?$pair@$$CBU?$pair@GG@std@@V?$vector@V?$basic_string@DU?$char_traits@D@std@@V?$allocator@D@2@@std@@V?$allocator@V?$basic_string@DU?$char_traits@D@std@@V?$allocator@D@2@@std@@@2@@2@@std@@@std@@@std@@@std@@_N@1@_NAEAU?$pair@$$CBU?$pair@GG@std@@V?$vector@V?$basic_string@DU?$char_traits@D@std@@V?$allocator@D@2@@std@@V?$allocator@V?$basic_string@DU?$char_traits@D@std@@V?$allocator@D@2@@std@@@2@@2@@1@PEAU?$_Tree_node@U?$pair@$$CBU?$pair@GG@std@@V?$vector@V?$basic_string@DU?$char_traits@D@std@@V?$allocator@D@2@@std@@V?$allocator@V?$basic_string@DU?$char_traits@D@std@@V?$allocator@D@2@@std@@@2@@2@@std@@PEAX@1@@Z
	??$_Insert_nohint@AEAU?$pair@$$CBUDeviceSellectInfo@libeYs3D@@V?$shared_ptr@VCameraDevice@devices@libeYs3D@@@std@@@std@@PEAU?$_Tree_node@U?$pair@$$CBUDeviceSellectInfo@libeYs3D@@V?$shared_ptr@VCameraDevice@devices@libeYs3D@@@std@@@std@@PEAX@2@@?$_Tree@V?$_Tmap_traits@UDeviceSellectInfo@libeYs3D@@V?$shared_ptr@VCameraDevice@devices@libeYs3D@@@std@@U?$less@UDeviceSellectInfo@libeYs3D@@@4@V?$allocator@U?$pair@$$CBUDeviceSellectInfo@libeYs3D@@V?$shared_ptr@VCameraDevice@devices@libeYs3D@@@std@@@std@@@4@$0A@@std@@@std@@IEAA?AU?$pair@V?$_Tree_iterator@V?$_Tree_val@U?$_Tree_simple_types@U?$pair@$$CBUDeviceSellectInfo@libeYs3D@@V?$shared_ptr@VCameraDevice@devices@libeYs3D@@@std@@@std@@@std@@@std@@@std@@_N@1@_NAEAU?$pair@$$CBUDeviceSellectInfo@libeYs3D@@V?$shared_ptr@VCameraDevice@devices@libeYs3D@@@std@@@1@PEAU?$_Tree_node@U?$pair@$$CBUDeviceSellectInfo@libeYs3D@@V?$shared_ptr@VCameraDevice@devices@libeYs3D@@@std@@@std@@PEAX@1@@Z
	??$_Insert_nohint@AEAU?$pair@$$CBW4IMUPacketSymbol@IMUData@@_K@std@@PEAU?$_Tree_node@U?$pair@$$CBW4IMUPacketSymbol@IMUData@@_K@std@@PEAX@2@@?$_Tree@V?$_Tmap_traits@W4IMUPacketSymbol@IMUData@@_KU?$less@W4IMUPacketSymbol@IMUData@@@std@@V?$allocator@U?$pair@$$CBW4IMUPacketSymbol@IMUData@@_K@std@@@4@$0A@@std@@@std@@IEAA?AU?$pair@V?$_Tree_iterator@V?$_Tree_val@U?$_Tree_simple_types@U?$pair@$$CBW4IMUPacketSymbol@IMUData@@_K@std@@@std@@@std@@@std@@_N@1@_NAEAU?$pair@$$CBW4IMUPacketSymbol@IMUData@@_K@1@PEAU?$_Tree_node@U?$pair@$$CBW4IMUPacketSymbol@IMUData@@_K@std@@PEAX@1@@Z
	??$_Insert_range@PEAE@?$vector@EV?$allocator@E@std@@@std@@AEAAXV?$_Vector_const_iterator@V?$_Vector_val@U?$_Simple_types@E@std@@@std@@@1@PEAE1Uforward_iterator_tag@1@@Z
	??$_Insert_string@DU?$char_traits@D@std@@_K@std@@YAAEAV?$basic_ostream@DU?$char_traits@D@std@@@0@AEAV10@QEBD_K@Z
	??$_Move_unchecked@PEAEPEAE@std@@YAPEAEPEAE00@Z
	??$_Partition_by_median_guess_unchecked@PEAMU?$less@X@std@@@std@@YA?AU?$pair@PEAMPEAM@0@PEAM0U?$less@X@0@@Z
	??$_Range_construct_or_tidy@PEBW4IMU_DATA_FORMAT@IMUDevice@devices@libeYs3D@@@?$vector@W4IMU_DATA_FORMAT@IMUDevice@devices@libeYs3D@@V?$allocator@W4IMU_DATA_FORMAT@IMUDevice@devices@libeYs3D@@@std@@@std@@AEAAXPEBW4IMU_DATA_FORMAT@IMUDevice@devices@libeYs3D@@0Uforward_iterator_tag@1@@Z
	??$_Reallocate_grow_by@V<lambda_319d5e083f45f90dcdce5dce53cbb275>@@D@?$basic_string@DU?$char_traits@D@std@@V?$allocator@D@2@@std@@QEAAAEAV01@_KV<lambda_319d5e083f45f90dcdce5dce53cbb275>@@D@Z
	??$_Reallocate_grow_by@V<lambda_65e615be2a453ca0576c979606f46740>@@PEBD_K@?$basic_string@DU?$char_traits@D@std@@V?$allocator@D@2@@std@@QEAAAEAV01@_KV<lambda_65e615be2a453ca0576c979606f46740>@@PEBD_K@Z
	??$_Resize@V<lambda_1b1d21d4d0a625f2ca46306f492426c3>@@@?$vector@GV?$allocator@G@std@@@std@@AEAAX_KV<lambda_1b1d21d4d0a625f2ca46306f492426c3>@@@Z
	??$_Resize@V<lambda_24780451169aff7b21d8dc81a5c8ea5e>@@@?$vector@UtagAPC_STREAM_INFO@@V?$allocator@UtagAPC_STREAM_INFO@@@std@@@std@@AEAAX_KV<lambda_24780451169aff7b21d8dc81a5c8ea5e>@@@Z
	??$_Resize@V<lambda_2b51424039c320f102fd798e073c89b2>@@@?$vector@EV?$allocator@E@std@@@std@@AEAAX_KV<lambda_2b51424039c320f102fd798e073c89b2>@@@Z
	??$_Resize@V<lambda_5d91c21a7dab2480088f44d5291e9dfa>@@@?$vector@GV?$allocator@G@std@@@std@@AEAAX_KV<lambda_5d91c21a7dab2480088f44d5291e9dfa>@@@Z
	??$_Resize@V<lambda_74be05070710ffacd29b9292ee44c745>@@@?$vector@FV?$allocator@F@std@@@std@@AEAAX_KV<lambda_74be05070710ffacd29b9292ee44c745>@@@Z
	??$_Resize@V<lambda_91e74e7942ac848116ee9e34f55e92a4>@@@?$vector@USensorData@sensors@libeYs3D@@V?$allocator@USensorData@sensors@libeYs3D@@@std@@@std@@AEAAX_KV<lambda_91e74e7942ac848116ee9e34f55e92a4>@@@Z
	??$_Resize@V<lambda_a0fd67340d08d33487be225a22701bdb>@@@?$vector@MV?$allocator@M@std@@@std@@AEAAX_KV<lambda_a0fd67340d08d33487be225a22701bdb>@@@Z
	??$_Setp@VCameraDevice@devices@libeYs3D@@@?$shared_ptr@VCameraDevice@devices@libeYs3D@@@std@@AEAAXPEAVCameraDevice@devices@libeYs3D@@U?$integral_constant@_N$0A@@1@@Z
	??$_Setp@VEYS3DSystem@libeYs3D@@@?$shared_ptr@VEYS3DSystem@libeYs3D@@@std@@AEAAXPEAVEYS3DSystem@libeYs3D@@U?$integral_constant@_N$0A@@1@@Z
	??$_Setp@VFrameSetPipeline@devices@libeYs3D@@@?$shared_ptr@VFrameSetPipeline@devices@libeYs3D@@@std@@AEAAXPEAVFrameSetPipeline@devices@libeYs3D@@U?$integral_constant@_N$0A@@1@@Z
	??$_Setp@VPipeline@devices@libeYs3D@@@?$shared_ptr@VPipeline@devices@libeYs3D@@@std@@AEAAXPEAVPipeline@devices@libeYs3D@@U?$integral_constant@_N$0A@@1@@Z
	??$_Sort_unchecked@PEAMU?$less@X@std@@@std@@YAXPEAM0_JU?$less@X@0@@Z
	??$_Uninitialized_move@PEAUCommand@?$WorkerThread@V?$Optional@VCallbackWorkItem@sensors@libeYs3D@@@base@libeYs3D@@@base@libeYs3D@@PEAU1234@V?$allocator@UCommand@?$WorkerThread@V?$Optional@VCallbackWorkItem@sensors@libeYs3D@@@base@libeYs3D@@@base@libeYs3D@@@std@@@std@@YAPEAUCommand@?$WorkerThread@V?$Optional@VCallbackWorkItem@sensors@libeYs3D@@@base@libeYs3D@@@base@libeYs3D@@QEAU1234@0PEAU1234@AEAV?$allocator@UCommand@?$WorkerThread@V?$Optional@VCallbackWorkItem@sensors@libeYs3D@@@base@libeYs3D@@@base@libeYs3D@@@0@@Z
	??$_Uninitialized_move@PEAUCommand@?$WorkerThread@V?$Optional@VCallbackWorkItem@video@libeYs3D@@@base@libeYs3D@@@base@libeYs3D@@PEAU1234@V?$allocator@UCommand@?$WorkerThread@V?$Optional@VCallbackWorkItem@video@libeYs3D@@@base@libeYs3D@@@base@libeYs3D@@@std@@@std@@YAPEAUCommand@?$WorkerThread@V?$Optional@VCallbackWorkItem@video@libeYs3D@@@base@libeYs3D@@@base@libeYs3D@@QEAU1234@0PEAU1234@AEAV?$allocator@UCommand@?$WorkerThread@V?$Optional@VCallbackWorkItem@video@libeYs3D@@@base@libeYs3D@@@base@libeYs3D@@@0@@Z
	??$_Uninitialized_move@PEAUCommand@?$WorkerThread@V?$Optional@VDACalculateWorkItem@video@libeYs3D@@@base@libeYs3D@@@base@libeYs3D@@PEAU1234@V?$allocator@UCommand@?$WorkerThread@V?$Optional@VDACalculateWorkItem@video@libeYs3D@@@base@libeYs3D@@@base@libeYs3D@@@std@@@std@@YAPEAUCommand@?$WorkerThread@V?$Optional@VDACalculateWorkItem@video@libeYs3D@@@base@libeYs3D@@@base@libeYs3D@@QEAU1234@0PEAU1234@AEAV?$allocator@UCommand@?$WorkerThread@V?$Optional@VDACalculateWorkItem@video@libeYs3D@@@base@libeYs3D@@@base@libeYs3D@@@0@@Z
	??$_Uninitialized_move@PEAUMODE_CONFIG@ModeConfig@@PEAU12@V?$allocator@UMODE_CONFIG@ModeConfig@@@std@@@std@@YAPEAUMODE_CONFIG@ModeConfig@@QEAU12@0PEAU12@AEAV?$allocator@UMODE_CONFIG@ModeConfig@@@0@@Z
	??$_Uninitialized_move@PEAV?$basic_string@DU?$char_traits@D@std@@V?$allocator@D@2@@std@@PEAV12@V?$allocator@V?$basic_string@DU?$char_traits@D@std@@V?$allocator@D@2@@std@@@2@@std@@YAPEAV?$basic_string@DU?$char_traits@D@std@@V?$allocator@D@2@@0@QEAV10@0PEAV10@AEAV?$allocator@V?$basic_string@DU?$char_traits@D@std@@V?$allocator@D@2@@std@@@0@@Z
	??$assign@V?$_Vector_iterator@V?$_Vector_val@U?$_Simple_types@E@std@@@std@@@std@@X@?$vector@EV?$allocator@E@std@@@std@@QEAAXV?$_Vector_iterator@V?$_Vector_val@U?$_Simple_types@E@std@@@std@@@1@0@Z
	??$assign@V?$_Vector_iterator@V?$_Vector_val@U?$_Simple_types@M@std@@@std@@@std@@X@?$vector@MV?$allocator@M@std@@@std@@QEAAXV?$_Vector_iterator@V?$_Vector_val@U?$_Simple_types@M@std@@@std@@@1@0@Z
	??$assign@V?$_Vector_iterator@V?$_Vector_val@U?$_Simple_types@UCloudPoint@@@std@@@std@@@std@@X@?$vector@UCloudPoint@@V?$allocator@UCloudPoint@@@std@@@std@@QEAAXV?$_Vector_iterator@V?$_Vector_val@U?$_Simple_types@UCloudPoint@@@std@@@std@@@1@0@Z
	??$construct@UMODE_CONFIG@ModeConfig@@U12@@?$_Default_allocator_traits@V?$allocator@UMODE_CONFIG@ModeConfig@@@std@@@std@@SAXAEAV?$allocator@UMODE_CONFIG@ModeConfig@@@1@QEAUMODE_CONFIG@ModeConfig@@$$QEAU34@@Z
	??$getline@DU?$char_traits@D@std@@V?$allocator@D@2@@std@@YAAEAV?$basic_istream@DU?$char_traits@D@std@@@0@$$QEAV10@AEAV?$basic_string@DU?$char_traits@D@std@@V?$allocator@D@2@@0@D@Z
	??$string_format@$$V@Debug@@SA?AV?$basic_string@DU?$char_traits@D@std@@V?$allocator@D@2@@std@@AEBV12@@Z
	??$string_format@G@Debug@@SA?AV?$basic_string@DU?$char_traits@D@std@@V?$allocator@D@2@@std@@AEBV12@G@Z
	??$string_format@HHHHHHHHW4DEPTH_RAW_DATA_TYPE@video@libeYs3D@@W4123@W4123@@Debug@@SA?AV?$basic_string@DU?$char_traits@D@std@@V?$allocator@D@2@@std@@AEBV12@HHHHHHHHW4DEPTH_RAW_DATA_TYPE@video@libeYs3D@@11@Z
	??$string_format@PEBD@Debug@@SA?AV?$basic_string@DU?$char_traits@D@std@@V?$allocator@D@2@@std@@AEBV12@PEBD@Z
	??$string_format@PEBDPEAD@Debug@@SA?AV?$basic_string@DU?$char_traits@D@std@@V?$allocator@D@2@@std@@AEBV12@PEBDPEAD@Z
	??$use_facet@V?$codecvt@DDU_Mbstatet@@@std@@@std@@YAAEBV?$codecvt@DDU_Mbstatet@@@0@AEBVlocale@0@@Z
	??0?$CircularQueue@VFrame@video@libeYs3D@@$0EA@@FrameSetPipeline@devices@libeYs3D@@QEAA@XZ
	??0?$CircularQueue@VFrame@video@libeYs3D@@$0EA@@Pipeline@devices@libeYs3D@@QEAA@PEBD@Z
	??0?$Optional@VCallbackWorkItem@sensors@libeYs3D@@@base@libeYs3D@@QEAA@$$QEAV012@@Z
	??0?$Optional@VCallbackWorkItem@video@libeYs3D@@@base@libeYs3D@@QEAA@$$QEAV012@@Z
	??0?$Optional@VDACalculateWorkItem@video@libeYs3D@@@base@libeYs3D@@QEAA@$$QEAV012@@Z
	??0?$ThreadPool@VCallbackWorkItem@sensors@libeYs3D@@@base@libeYs3D@@QEAA@H$$QEAV?$function@$$A6AX$$QEAVCallbackWorkItem@sensors@libeYs3D@@@Z@std@@@Z
	??0?$ThreadPool@VCallbackWorkItem@video@libeYs3D@@@base@libeYs3D@@QEAA@H$$QEAV?$function@$$A6AX$$QEAVCallbackWorkItem@video@libeYs3D@@@Z@std@@@Z
	??0?$ThreadPool@VDACalculateWorkItem@video@libeYs3D@@@base@libeYs3D@@QEAA@H$$QEAV?$function@$$A6AX$$QEAVDACalculateWorkItem@video@libeYs3D@@@Z@std@@@Z
	??0?$basic_ifstream@DU?$char_traits@D@std@@@std@@QEAA@PEBDHH@Z
	??0?$basic_string@DU?$char_traits@D@std@@V?$allocator@D@2@@std@@QEAA@AEBV01@@Z
	??0?$basic_string@DU?$char_traits@D@std@@V?$allocator@D@2@@std@@QEAA@QEBD@Z
	??0?$basic_stringbuf@DU?$char_traits@D@std@@V?$allocator@D@2@@std@@QEAA@AEBV?$basic_string@DU?$char_traits@D@std@@V?$allocator@D@2@@1@H@Z
	??0?$basic_stringbuf@DU?$char_traits@D@std@@V?$allocator@D@2@@std@@QEAA@H@Z
	??0?$function@$$A6A_NPEBUSensorData@sensors@libeYs3D@@@Z@std@@QEAA@AEBV01@@Z
	??0?$function@$$A6A_NPEBUSensorDataSet@sensors@libeYs3D@@@Z@std@@QEAA@$$QEAV01@@Z
	??0?$function@$$A6A_NPEBUSensorDataSet@sensors@libeYs3D@@@Z@std@@QEAA@AEBV01@@Z
	??0?$vector@EV?$allocator@E@std@@@std@@QEAA@AEBV01@@Z
	??0?$vector@EV?$allocator@E@std@@@std@@QEAA@_KAEBEAEBV?$allocator@E@1@@Z
	??0?$vector@EV?$allocator@E@std@@@std@@QEAA@_KAEBV?$allocator@E@1@@Z
	??0?$vector@GV?$allocator@G@std@@@std@@QEAA@_KAEBGAEBV?$allocator@G@1@@Z
	??0?$vector@GV?$allocator@G@std@@@std@@QEAA@_KAEBV?$allocator@G@1@@Z
	??0?$vector@HV?$allocator@H@std@@@std@@QEAA@AEBV01@@Z
	??0?$vector@MV?$allocator@M@std@@@std@@QEAA@_KAEBMAEBV?$allocator@M@1@@Z
	??0?$vector@MV?$allocator@M@std@@@std@@QEAA@_KAEBV?$allocator@M@1@@Z
	??0?$vector@UMODE_CONFIG@ModeConfig@@V?$allocator@UMODE_CONFIG@ModeConfig@@@std@@@std@@QEAA@AEBV01@@Z
	??0?$vector@USensorData@sensors@libeYs3D@@V?$allocator@USensorData@sensors@libeYs3D@@@std@@@std@@QEAA@_KAEBV?$allocator@USensorData@sensors@libeYs3D@@@1@@Z
	??0?$vector@V?$Optional@V?$WorkerThread@V?$Optional@VCallbackWorkItem@sensors@libeYs3D@@@base@libeYs3D@@@base@libeYs3D@@@base@libeYs3D@@V?$allocator@V?$Optional@V?$WorkerThread@V?$Optional@VCallbackWorkItem@sensors@libeYs3D@@@base@libeYs3D@@@base@libeYs3D@@@base@libeYs3D@@@std@@@std@@QEAA@_KAEBV?$allocator@V?$Optional@V?$WorkerThread@V?$Optional@VCallbackWorkItem@sensors@libeYs3D@@@base@libeYs3D@@@base@libeYs3D@@@base@libeYs3D@@@1@@Z
	??0?$vector@V?$Optional@V?$WorkerThread@V?$Optional@VCallbackWorkItem@video@libeYs3D@@@base@libeYs3D@@@base@libeYs3D@@@base@libeYs3D@@V?$allocator@V?$Optional@V?$WorkerThread@V?$Optional@VCallbackWorkItem@video@libeYs3D@@@base@libeYs3D@@@base@libeYs3D@@@base@libeYs3D@@@std@@@std@@QEAA@_KAEBV?$allocator@V?$Optional@V?$WorkerThread@V?$Optional@VCallbackWorkItem@video@libeYs3D@@@base@libeYs3D@@@base@libeYs3D@@@base@libeYs3D@@@1@@Z
	??0?$vector@V?$Optional@V?$WorkerThread@V?$Optional@VDACalculateWorkItem@video@libeYs3D@@@base@libeYs3D@@@base@libeYs3D@@@base@libeYs3D@@V?$allocator@V?$Optional@V?$WorkerThread@V?$Optional@VDACalculateWorkItem@video@libeYs3D@@@base@libeYs3D@@@base@libeYs3D@@@base@libeYs3D@@@std@@@std@@QEAA@_KAEBV?$allocator@V?$Optional@V?$WorkerThread@V?$Optional@VDACalculateWorkItem@video@libeYs3D@@@base@libeYs3D@@@base@libeYs3D@@@base@libeYs3D@@@1@@Z
	??0?$vector@V?$basic_string@DU?$char_traits@D@std@@V?$allocator@D@2@@std@@V?$allocator@V?$basic_string@DU?$char_traits@D@std@@V?$allocator@D@2@@std@@@2@@std@@QEAA@AEBV01@@Z
	??0CallbackWorkItem@video@libeYs3D@@QEAA@AEBV012@@Z
	??0CameraDevice8036@devices@libeYs3D@@IEAA@PEAUtagDEVSEL@@PEAUtagDEVINFORMATION@@@Z
	??0CameraDevice8037@devices@libeYs3D@@IEAA@PEAUtagDEVSEL@@PEAUtagDEVINFORMATION@@@Z
	??0CameraDevice8052@devices@libeYs3D@@IEAA@PEAUtagDEVSEL@@PEAUtagDEVINFORMATION@@@Z
	??0CameraDevice8053@devices@libeYs3D@@IEAA@PEAUtagDEVSEL@@PEAUtagDEVINFORMATION@@@Z
	??0CameraDevice8059@devices@libeYs3D@@IEAA@PEAUtagDEVSEL@@PEAUtagDEVINFORMATION@@@Z
	??0CameraDevice8062@devices@libeYs3D@@IEAA@PEAUtagDEVSEL@@PEAUtagDEVINFORMATION@@@Z
	??0CameraDevice8067@devices@libeYs3D@@IEAA@PEAUtagDEVSEL@@PEAUtagDEVINFORMATION@@@Z
	??0CameraDevice@devices@libeYs3D@@IEAA@PEAUtagDEVSEL@@PEAUtagDEVINFORMATION@@@Z
	??0CameraDeviceHypatia@devices@libeYs3D@@IEAA@PEAUtagDEVSEL@@PEAUtagDEVINFORMATION@@@Z
	??0CameraDeviceProperties@devices@libeYs3D@@IEAA@PEAVCameraDevice@12@@Z
	??0CameraPropertyItem@CameraDeviceProperties@devices@libeYs3D@@QEAA@XZ
	??0ColorFrameProducer@video@libeYs3D@@IEAA@PEAVCameraDevice@devices@2@@Z
	??0DACalculateWorkItem@video@libeYs3D@@QEAA@V?$function@$$A6AXPEAVFrame@video@libeYs3D@@@Z@std@@PEAVFrame@12@@Z
	??0DepthAccuracyOptions@devices@libeYs3D@@IEAA@XZ
	??0DepthFilterOptions@devices@libeYs3D@@IEAA@XZ
	??0DepthFrameProducer@video@libeYs3D@@IEAA@PEAVCameraDevice@devices@2@@Z
	??0EYS3DSystem@libeYs3D@@AEAA@XZ
	??0Frame@video@libeYs3D@@QEAA@$$QEAV012@@Z
	??0Frame@video@libeYs3D@@QEAA@_KE0G0E@Z
	??0FrameProducer@video@libeYs3D@@IEAA@PEAVCameraDevice@devices@2@HHHE@Z
	??0FrameSetPipeline@devices@libeYs3D@@AEAA@PEAVCameraDevice@12@W4TYPE@012@@Z
	??0FunctorThread@base@libeYs3D@@QEAA@$$QEAV?$function@$$A6A_JXZ@std@@W4ThreadFlags@12@@Z
	??0IMUData@@QEAA@XZ
	??0IMUDataProducer@sensors@libeYs3D@@IEAA@PEAVIMUDevice@devices@2@@Z
	??0IMUDevice8062@devices@libeYs3D@@IEAA@UIMUDeviceInfo@IMUDevice@12@PEAVCameraDevice@12@@Z
	??0IMUDevice@devices@libeYs3D@@IEAA@UIMUDeviceInfo@012@PEAVCameraDevice@12@@Z
	??0IRProperty@devices@libeYs3D@@IEAA@G_N@Z
	??0MODE_CONFIG@ModeConfig@@QEAA@AEBU01@@Z
	??0MessageChannelBase@base@libeYs3D@@IEAA@_K@Z
	??0ModeConfig@@QEAA@XZ
	??0ModeConfigOptions@@QEAA@W4USB_PORT_TYPE@@G@Z
	??0PCFrame@video@libeYs3D@@QEAA@$$QEAV012@@Z
	??0PCFrame@video@libeYs3D@@QEAA@IEM@Z
	??0PCFrameProducer@video@libeYs3D@@IEAA@PEAVCameraDevice@devices@2@@Z
	??0Pipeline@devices@libeYs3D@@AEAA@PEAVCameraDevice@12@@Z
	??0PlyFilter@@AEAA@XZ
	??0PlyWriter@@AEAA@XZ
	??0RegisterReadWriteController@devices@libeYs3D@@IEAA@PEAVCameraDevice@12@@Z
	??0RegisterReadWriteOptions@devices@libeYs3D@@IEAA@XZ
	??0RegisterSettings@@AEAA@XZ
	??0SensorData@sensors@libeYs3D@@QEAA@W4SensorDataType@012@@Z
	??0SensorDataProducer@sensors@libeYs3D@@IEAA@W4SensorDataType@SensorData@12@@Z
	??0SensorDataSet@sensors@libeYs3D@@QEAA@W4SensorDataType@SensorData@12@H@Z
	??0Thread@base@libeYs3D@@QEAA@W4ThreadFlags@12@H@Z
	??0ThreadStoreBase@base@libeYs3D@@QEAA@P6AXPEAX@Z@Z
	??0bad_cast@std@@QEAA@AEBV01@@Z
	??0bad_cast@std@@QEAA@XZ
	??0exception@std@@QEAA@AEBV01@@Z
	??0runtime_error@std@@QEAA@AEBV01@@Z
	??0runtime_error@std@@QEAA@PEBD@Z
	??1?$CircularQueue@VFrame@video@libeYs3D@@$0EA@@FrameSetPipeline@devices@libeYs3D@@QEAA@XZ
	??1?$CircularQueue@VFrame@video@libeYs3D@@$0EA@@Pipeline@devices@libeYs3D@@QEAA@XZ
	??1?$CircularQueue@VPCFrame@video@libeYs3D@@$0CA@@FrameSetPipeline@devices@libeYs3D@@QEAA@XZ
	??1?$CircularQueue@VPCFrame@video@libeYs3D@@$0CA@@Pipeline@devices@libeYs3D@@QEAA@XZ
	??1?$MessageChannel@USensorDataSet@sensors@libeYs3D@@$07@base@libeYs3D@@QEAA@XZ
	??1?$MessageChannel@USensorDataSet@sensors@libeYs3D@@$0BA@@base@libeYs3D@@QEAA@XZ
	??1?$MessageChannel@VFrame@video@libeYs3D@@$0BA@@base@libeYs3D@@QEAA@XZ
	??1?$MessageChannel@VPCFrame@video@libeYs3D@@$0BA@@base@libeYs3D@@QEAA@XZ
	??1?$Optional@USensorDataSet@sensors@libeYs3D@@@base@libeYs3D@@QEAA@XZ
	??1?$Optional@VCallbackWorkItem@sensors@libeYs3D@@@base@libeYs3D@@QEAA@XZ
	??1?$Optional@VCallbackWorkItem@video@libeYs3D@@@base@libeYs3D@@QEAA@XZ
	??1?$Optional@VDACalculateWorkItem@video@libeYs3D@@@base@libeYs3D@@QEAA@XZ
	??1?$Optional@VFrame@video@libeYs3D@@@base@libeYs3D@@QEAA@XZ
	??1?$Optional@VPCFrame@video@libeYs3D@@@base@libeYs3D@@QEAA@XZ
	??1?$ThreadPool@VCallbackWorkItem@sensors@libeYs3D@@@base@libeYs3D@@QEAA@XZ
	??1?$ThreadPool@VCallbackWorkItem@video@libeYs3D@@@base@libeYs3D@@QEAA@XZ
	??1?$ThreadPool@VDACalculateWorkItem@video@libeYs3D@@@base@libeYs3D@@QEAA@XZ
	??1?$_Func_class@W4WorkerProcessingResult@base@libeYs3D@@$$QEAV?$Optional@VCallbackWorkItem@sensors@libeYs3D@@@23@@std@@QEAA@XZ
	??1?$_Func_class@W4WorkerProcessingResult@base@libeYs3D@@$$QEAV?$Optional@VCallbackWorkItem@video@libeYs3D@@@23@@std@@QEAA@XZ
	??1?$_Func_class@W4WorkerProcessingResult@base@libeYs3D@@$$QEAV?$Optional@VDACalculateWorkItem@video@libeYs3D@@@23@@std@@QEAA@XZ
	??1?$_Func_class@X$$QEAVCallbackWorkItem@sensors@libeYs3D@@@std@@QEAA@XZ
	??1?$_Func_class@X$$QEAVCallbackWorkItem@video@libeYs3D@@@std@@QEAA@XZ
	??1?$_Func_class@X$$QEAVDACalculateWorkItem@video@libeYs3D@@@std@@QEAA@XZ
	??1?$_Func_class@XPEAVFrame@video@libeYs3D@@@std@@QEAA@XZ
	??1?$_Func_class@_J$$V@std@@QEAA@XZ
	??1?$_Func_class@_NPEBUSensorData@sensors@libeYs3D@@@std@@QEAA@XZ
	??1?$_Func_class@_NPEBUSensorDataSet@sensors@libeYs3D@@@std@@QEAA@XZ
	??1?$_Func_class@_NPEBVFrame@video@libeYs3D@@@std@@QEAA@XZ
	??1?$_Func_class@_NPEBVPCFrame@video@libeYs3D@@@std@@QEAA@XZ
	??1?$_List_buy@V?$vector@FV?$allocator@F@std@@@std@@V?$allocator@V?$vector@FV?$allocator@F@std@@@std@@@2@@std@@QEAA@XZ
	??1?$_Tree@V?$_Tmap_traits@HHU?$less@H@std@@V?$allocator@U?$pair@$$CBHH@std@@@2@$0A@@std@@@std@@QEAA@XZ
	??1?$_Tree@V?$_Tmap_traits@W4IMUPacketSymbol@IMUData@@_KU?$less@W4IMUPacketSymbol@IMUData@@@std@@V?$allocator@U?$pair@$$CBW4IMUPacketSymbol@IMUData@@_K@std@@@4@$0A@@std@@@std@@QEAA@XZ
	??1?$_Uninitialized_backout_al@PEAUCommand@?$WorkerThread@V?$Optional@VCallbackWorkItem@sensors@libeYs3D@@@base@libeYs3D@@@base@libeYs3D@@V?$allocator@UCommand@?$WorkerThread@V?$Optional@VCallbackWorkItem@sensors@libeYs3D@@@base@libeYs3D@@@base@libeYs3D@@@std@@@std@@QEAA@XZ
	??1?$_Uninitialized_backout_al@PEAUCommand@?$WorkerThread@V?$Optional@VCallbackWorkItem@video@libeYs3D@@@base@libeYs3D@@@base@libeYs3D@@V?$allocator@UCommand@?$WorkerThread@V?$Optional@VCallbackWorkItem@video@libeYs3D@@@base@libeYs3D@@@base@libeYs3D@@@std@@@std@@QEAA@XZ
	??1?$_Uninitialized_backout_al@PEAUCommand@?$WorkerThread@V?$Optional@VDACalculateWorkItem@video@libeYs3D@@@base@libeYs3D@@@base@libeYs3D@@V?$allocator@UCommand@?$WorkerThread@V?$Optional@VDACalculateWorkItem@video@libeYs3D@@@base@libeYs3D@@@base@libeYs3D@@@std@@@std@@QEAA@XZ
	??1?$_Uninitialized_backout_al@PEAUMODE_CONFIG@ModeConfig@@V?$allocator@UMODE_CONFIG@ModeConfig@@@std@@@std@@QEAA@XZ
	??1?$_Uninitialized_backout_al@PEAV?$basic_string@DU?$char_traits@D@std@@V?$allocator@D@2@@std@@V?$allocator@V?$basic_string@DU?$char_traits@D@std@@V?$allocator@D@2@@std@@@2@@std@@QEAA@XZ
	??1?$basic_filebuf@DU?$char_traits@D@std@@@std@@UEAA@XZ
	??1?$basic_ifstream@DU?$char_traits@D@std@@@std@@UEAA@XZ
	??1?$basic_ofstream@DU?$char_traits@D@std@@@std@@UEAA@XZ
	??1?$basic_ostringstream@DU?$char_traits@D@std@@V?$allocator@D@2@@std@@UEAA@XZ
	??1?$basic_string@DU?$char_traits@D@std@@V?$allocator@D@2@@std@@QEAA@XZ
	??1?$basic_stringbuf@DU?$char_traits@D@std@@V?$allocator@D@2@@std@@UEAA@XZ
	??1?$basic_stringstream@DU?$char_traits@D@std@@V?$allocator@D@2@@std@@UEAA@XZ
	??1?$function@$$A6A?AW4WorkerProcessingResult@base@libeYs3D@@$$QEAV?$Optional@VCallbackWorkItem@sensors@libeYs3D@@@23@@Z@std@@QEAA@XZ
	??1?$function@$$A6A?AW4WorkerProcessingResult@base@libeYs3D@@$$QEAV?$Optional@VCallbackWorkItem@video@libeYs3D@@@23@@Z@std@@QEAA@XZ
	??1?$function@$$A6A?AW4WorkerProcessingResult@base@libeYs3D@@$$QEAV?$Optional@VDACalculateWorkItem@video@libeYs3D@@@23@@Z@std@@QEAA@XZ
	??1?$function@$$A6AX$$QEAVCallbackWorkItem@sensors@libeYs3D@@@Z@std@@QEAA@XZ
	??1?$function@$$A6AX$$QEAVCallbackWorkItem@video@libeYs3D@@@Z@std@@QEAA@XZ
	??1?$function@$$A6AX$$QEAVDACalculateWorkItem@video@libeYs3D@@@Z@std@@QEAA@XZ
	??1?$function@$$A6AXPEAVFrame@video@libeYs3D@@@Z@std@@QEAA@XZ
	??1?$function@$$A6A_JXZ@std@@QEAA@XZ
	??1?$function@$$A6A_NPEBUSensorData@sensors@libeYs3D@@@Z@std@@QEAA@XZ
	??1?$function@$$A6A_NPEBUSensorDataSet@sensors@libeYs3D@@@Z@std@@QEAA@XZ
	??1?$function@$$A6A_NPEBVFrame@video@libeYs3D@@@Z@std@@QEAA@XZ
	??1?$function@$$A6A_NPEBVPCFrame@video@libeYs3D@@@Z@std@@QEAA@XZ
	??1?$list@V?$vector@FV?$allocator@F@std@@@std@@V?$allocator@V?$vector@FV?$allocator@F@std@@@std@@@2@@std@@QEAA@XZ
	??1?$map@HHU?$less@H@std@@V?$allocator@U?$pair@$$CBHH@std@@@2@@std@@QEAA@XZ
	??1?$map@HUPID_TABLE@ModeConfig@@U?$less@H@std@@V?$allocator@U?$pair@$$CBHUPID_TABLE@ModeConfig@@@std@@@4@@std@@QEAA@XZ
	??1?$map@UDeviceSellectInfo@libeYs3D@@V?$shared_ptr@VCameraDevice@devices@libeYs3D@@@std@@U?$less@UDeviceSellectInfo@libeYs3D@@@4@V?$allocator@U?$pair@$$CBUDeviceSellectInfo@libeYs3D@@V?$shared_ptr@VCameraDevice@devices@libeYs3D@@@std@@@std@@@4@@std@@QEAA@XZ
	??1?$shared_ptr@VEYS3DSystem@libeYs3D@@@std@@QEAA@XZ
	??1?$shared_ptr@VFrameSetPipeline@devices@libeYs3D@@@std@@QEAA@XZ
	??1?$shared_ptr@VPipeline@devices@libeYs3D@@@std@@QEAA@XZ
	??1?$unique_ptr@$$BY0A@DU?$default_delete@$$BY0A@D@std@@@std@@QEAA@XZ
	??1?$unique_ptr@VFrameProducer@video@libeYs3D@@U?$default_delete@VFrameProducer@video@libeYs3D@@@std@@@std@@QEAA@XZ
	??1?$unique_ptr@VModeConfigOptions@@U?$default_delete@VModeConfigOptions@@@std@@@std@@QEAA@XZ
	??1?$unique_ptr@VPCProducer@video@libeYs3D@@U?$default_delete@VPCProducer@video@libeYs3D@@@std@@@std@@QEAA@XZ
	??1?$unique_ptr@V_Facet_base@std@@U?$default_delete@V_Facet_base@std@@@2@@std@@QEAA@XZ
	??1?$vector@EV?$allocator@E@std@@@std@@QEAA@XZ
	??1?$vector@GV?$allocator@G@std@@@std@@QEAA@XZ
	??1?$vector@HV?$allocator@H@std@@@std@@QEAA@XZ
	??1?$vector@MV?$allocator@M@std@@@std@@QEAA@XZ
	??1?$vector@UCloudPoint@@V?$allocator@UCloudPoint@@@std@@@std@@QEAA@XZ
	??1?$vector@UCommand@?$WorkerThread@V?$Optional@VCallbackWorkItem@sensors@libeYs3D@@@base@libeYs3D@@@base@libeYs3D@@V?$allocator@UCommand@?$WorkerThread@V?$Optional@VCallbackWorkItem@sensors@libeYs3D@@@base@libeYs3D@@@base@libeYs3D@@@std@@@std@@QEAA@XZ
	??1?$vector@UCommand@?$WorkerThread@V?$Optional@VCallbackWorkItem@video@libeYs3D@@@base@libeYs3D@@@base@libeYs3D@@V?$allocator@UCommand@?$WorkerThread@V?$Optional@VCallbackWorkItem@video@libeYs3D@@@base@libeYs3D@@@base@libeYs3D@@@std@@@std@@QEAA@XZ
	??1?$vector@UCommand@?$WorkerThread@V?$Optional@VDACalculateWorkItem@video@libeYs3D@@@base@libeYs3D@@@base@libeYs3D@@V?$allocator@UCommand@?$WorkerThread@V?$Optional@VDACalculateWorkItem@video@libeYs3D@@@base@libeYs3D@@@base@libeYs3D@@@std@@@std@@QEAA@XZ
	??1?$vector@UMODE_CONFIG@ModeConfig@@V?$allocator@UMODE_CONFIG@ModeConfig@@@std@@@std@@QEAA@XZ
	??1?$vector@UtagAPC_STREAM_INFO@@V?$allocator@UtagAPC_STREAM_INFO@@@std@@@std@@QEAA@XZ
	??1?$vector@V?$Optional@V?$WorkerThread@V?$Optional@VCallbackWorkItem@sensors@libeYs3D@@@base@libeYs3D@@@base@libeYs3D@@@base@libeYs3D@@V?$allocator@V?$Optional@V?$WorkerThread@V?$Optional@VCallbackWorkItem@sensors@libeYs3D@@@base@libeYs3D@@@base@libeYs3D@@@base@libeYs3D@@@std@@@std@@QEAA@XZ
	??1?$vector@V?$Optional@V?$WorkerThread@V?$Optional@VCallbackWorkItem@video@libeYs3D@@@base@libeYs3D@@@base@libeYs3D@@@base@libeYs3D@@V?$allocator@V?$Optional@V?$WorkerThread@V?$Optional@VCallbackWorkItem@video@libeYs3D@@@base@libeYs3D@@@base@libeYs3D@@@base@libeYs3D@@@std@@@std@@QEAA@XZ
	??1?$vector@V?$Optional@V?$WorkerThread@V?$Optional@VDACalculateWorkItem@video@libeYs3D@@@base@libeYs3D@@@base@libeYs3D@@@base@libeYs3D@@V?$allocator@V?$Optional@V?$WorkerThread@V?$Optional@VDACalculateWorkItem@video@libeYs3D@@@base@libeYs3D@@@base@libeYs3D@@@base@libeYs3D@@@std@@@std@@QEAA@XZ
	??1?$vector@V?$basic_string@DU?$char_traits@D@std@@V?$allocator@D@2@@std@@V?$allocator@V?$basic_string@DU?$char_traits@D@std@@V?$allocator@D@2@@std@@@2@@std@@QEAA@XZ
	??1AutoLock@base@libeYs3D@@QEAA@XZ
	??1AutoWriteLock@base@libeYs3D@@QEAA@XZ
	??1CallbackWorkItem@video@libeYs3D@@QEAA@XZ
	??1CameraDevice8036@devices@libeYs3D@@UEAA@XZ
	??1CameraDevice8037@devices@libeYs3D@@UEAA@XZ
	??1CameraDevice8052@devices@libeYs3D@@UEAA@XZ
	??1CameraDevice8053@devices@libeYs3D@@UEAA@XZ
	??1CameraDevice8059@devices@libeYs3D@@UEAA@XZ
	??1CameraDevice8062@devices@libeYs3D@@UEAA@XZ
	??1CameraDevice8067@devices@libeYs3D@@UEAA@XZ
	??1CameraDevice@devices@libeYs3D@@UEAA@XZ
	??1CameraDeviceHypatia@devices@libeYs3D@@UEAA@XZ
	??1CameraDeviceProperties@devices@libeYs3D@@QEAA@XZ
	??1ColorFrameProducer@video@libeYs3D@@UEAA@XZ
	??1Command@?$WorkerThread@V?$Optional@VCallbackWorkItem@sensors@libeYs3D@@@base@libeYs3D@@@base@libeYs3D@@QEAA@XZ
	??1Command@?$WorkerThread@V?$Optional@VCallbackWorkItem@video@libeYs3D@@@base@libeYs3D@@@base@libeYs3D@@QEAA@XZ
	??1Command@?$WorkerThread@V?$Optional@VDACalculateWorkItem@video@libeYs3D@@@base@libeYs3D@@@base@libeYs3D@@QEAA@XZ
	??1DACalculateWorkItem@video@libeYs3D@@QEAA@XZ
	??1DepthFrameProducer@video@libeYs3D@@UEAA@XZ
	??1EYS3DSystem@libeYs3D@@UEAA@XZ
	??1Frame@video@libeYs3D@@QEAA@XZ
	??1FrameProducer@video@libeYs3D@@UEAA@XZ
	??1FrameSetPipeline@devices@libeYs3D@@UEAA@XZ
	??1FunctorThread@base@libeYs3D@@UEAA@XZ
	??1IMUData@@QEAA@XZ
	??1IMUDataProducer@sensors@libeYs3D@@UEAA@XZ
	??1IMUDevice8062@devices@libeYs3D@@UEAA@XZ
	??1IMUDevice@devices@libeYs3D@@UEAA@XZ
	??1MODE_CONFIG@ModeConfig@@QEAA@XZ
	??1ModeConfig@@QEAA@XZ
	??1PCFrame@video@libeYs3D@@QEAA@XZ
	??1PCFrameProducer@video@libeYs3D@@UEAA@XZ
	??1PCProducer@video@libeYs3D@@UEAA@XZ
	??1PID_TABLE@ModeConfig@@QEAA@XZ
	??1Pipeline@devices@libeYs3D@@UEAA@XZ
	??1Producer@video@libeYs3D@@UEAA@XZ
	??1RegisterReadWriteController@devices@libeYs3D@@UEAA@XZ
	??1SensorDataProducer@sensors@libeYs3D@@UEAA@XZ
	??1SensorDataSet@sensors@libeYs3D@@QEAA@XZ
	??1Thread@base@libeYs3D@@UEAA@XZ
	??1ThreadStoreBase@base@libeYs3D@@QEAA@XZ
	??1_Ref_count_base@std@@UEAA@XZ
	??1_Sentry_base@?$basic_istream@DU?$char_traits@D@std@@@std@@QEAA@XZ
	??1_Sentry_base@?$basic_ostream@DU?$char_traits@D@std@@@std@@QEAA@XZ
	??1bad_cast@std@@UEAA@XZ
	??1exception@std@@UEAA@XZ
	??1locale@std@@QEAA@XZ
	??1runtime_error@std@@UEAA@XZ
	??1sentry@?$basic_istream@DU?$char_traits@D@std@@@std@@QEAA@XZ
	??1sentry@?$basic_ostream@DU?$char_traits@D@std@@@std@@QEAA@XZ
	??4?$basic_string@DU?$char_traits@D@std@@V?$allocator@D@2@@std@@QEAAAEAV01@$$QEAV01@@Z
	??4?$unique_ptr@VFrameProducer@video@libeYs3D@@U?$default_delete@VFrameProducer@video@libeYs3D@@@std@@@std@@QEAAAEAV01@$$QEAV01@@Z
	??4?$vector@HV?$allocator@H@std@@@std@@QEAAAEAV01@$$QEAV01@@Z
	??4Frame@video@libeYs3D@@QEAAAEAV012@$$QEAV012@@Z
	??4SensorDataSet@sensors@libeYs3D@@QEAAAEAU012@$$QEAU012@@Z
	??6RegisterReadWriteOptions@devices@libeYs3D@@QEAAXAEBV012@@Z
	??8IRProperty@devices@libeYs3D@@QEBA_NAEBV012@@Z
	??8RegisterReadWriteOptions@devices@libeYs3D@@QEBA_NAEBV012@@Z
	??A?$map@HUPID_TABLE@ModeConfig@@U?$less@H@std@@V?$allocator@U?$pair@$$CBHUPID_TABLE@ModeConfig@@@std@@@4@@std@@QEAAAEAUPID_TABLE@ModeConfig@@AEBH@Z
	??A?$map@U?$pair@GG@std@@V?$vector@V?$basic_string@DU?$char_traits@D@std@@V?$allocator@D@2@@std@@V?$allocator@V?$basic_string@DU?$char_traits@D@std@@V?$allocator@D@2@@std@@@2@@2@U?$less@U?$pair@GG@std@@@2@V?$allocator@U?$pair@$$CBU?$pair@GG@std@@V?$vector@V?$basic_string@DU?$char_traits@D@std@@V?$allocator@D@2@@std@@V?$allocator@V?$basic_string@DU?$char_traits@D@std@@V?$allocator@D@2@@std@@@2@@2@@std@@@2@@std@@QEAAAEAV?$vector@V?$basic_string@DU?$char_traits@D@std@@V?$allocator@D@2@@std@@V?$allocator@V?$basic_string@DU?$char_traits@D@std@@V?$allocator@D@2@@std@@@2@@1@AEBU?$pair@GG@1@@Z
	??A?$map@W4IMUPacketSymbol@IMUData@@_KU?$less@W4IMUPacketSymbol@IMUData@@@std@@V?$allocator@U?$pair@$$CBW4IMUPacketSymbol@IMUData@@_K@std@@@4@@std@@QEAAAEA_K$$QEAW4IMUPacketSymbol@IMUData@@@Z
	??C?$Optional@USensorData@sensors@libeYs3D@@@base@libeYs3D@@QEAAPEAUSensorData@sensors@2@XZ
	??C?$Optional@V?$WorkerThread@V?$Optional@VCallbackWorkItem@video@libeYs3D@@@base@libeYs3D@@@base@libeYs3D@@@base@libeYs3D@@QEAAPEAV?$WorkerThread@V?$Optional@VCallbackWorkItem@video@libeYs3D@@@base@libeYs3D@@@12@XZ
	??C?$Optional@V?$WorkerThread@V?$Optional@VDACalculateWorkItem@video@libeYs3D@@@base@libeYs3D@@@base@libeYs3D@@@base@libeYs3D@@QEAAPEAV?$WorkerThread@V?$Optional@VDACalculateWorkItem@video@libeYs3D@@@base@libeYs3D@@@12@XZ
	??C?$Optional@VFrame@video@libeYs3D@@@base@libeYs3D@@QEAAPEAVFrame@video@2@XZ
	??D?$Optional@USensorDataSet@sensors@libeYs3D@@@base@libeYs3D@@QEAAAEAUSensorDataSet@sensors@2@XZ
	??D?$Optional@VFrame@video@libeYs3D@@@base@libeYs3D@@QEAAAEAVFrame@video@2@XZ
	??D?$Optional@_K@base@libeYs3D@@QEBAAEB_KXZ
	??E?$_Tree_const_iterator@V?$_Tree_val@U?$_Tree_simple_types@U?$pair@$$CBU?$pair@GG@std@@V?$vector@V?$basic_string@DU?$char_traits@D@std@@V?$allocator@D@2@@std@@V?$allocator@V?$basic_string@DU?$char_traits@D@std@@V?$allocator@D@2@@std@@@2@@2@@std@@@std@@@std@@@std@@QEAAAEAV01@XZ
	??E?$_Tree_const_iterator@V?$_Tree_val@U?$_Tree_simple_types@U?$pair@$$CBUDeviceSellectInfo@libeYs3D@@V?$shared_ptr@VCameraDevice@devices@libeYs3D@@@std@@@std@@@std@@@std@@@std@@QEAAAEAV01@XZ
	??E?$_Tree_const_iterator@V?$_Tree_val@U?$_Tree_simple_types@U?$pair@$$CBW4IMUPacketSymbol@IMUData@@_K@std@@@std@@@std@@@std@@QEAAAEAV01@XZ
	??F?$_Tree_const_iterator@V?$_Tree_val@U?$_Tree_simple_types@U?$pair@$$CBHUPID_TABLE@ModeConfig@@@std@@@std@@@std@@@std@@QEAAAEAV01@XZ
	??F?$_Tree_const_iterator@V?$_Tree_val@U?$_Tree_simple_types@U?$pair@$$CBU?$pair@GG@std@@V?$vector@V?$basic_string@DU?$char_traits@D@std@@V?$allocator@D@2@@std@@V?$allocator@V?$basic_string@DU?$char_traits@D@std@@V?$allocator@D@2@@std@@@2@@2@@std@@@std@@@std@@@std@@QEAAAEAV01@XZ
	??F?$_Tree_const_iterator@V?$_Tree_val@U?$_Tree_simple_types@U?$pair@$$CBUDeviceSellectInfo@libeYs3D@@V?$shared_ptr@VCameraDevice@devices@libeYs3D@@@std@@@std@@@std@@@std@@@std@@QEAAAEAV01@XZ
	??F?$_Tree_const_iterator@V?$_Tree_val@U?$_Tree_simple_types@U?$pair@$$CBW4IMUPacketSymbol@IMUData@@_K@std@@@std@@@std@@@std@@QEAAAEAV01@XZ
	??PRegisterReadWriteOptions@devices@libeYs3D@@QEBA_NAEBV012@@Z
	??R?$default_delete@VModeConfigOptions@@@std@@QEBAXPEAVModeConfigOptions@@@Z
	??_D?$basic_ifstream@DU?$char_traits@D@std@@@std@@QEAAXXZ
	??_D?$basic_ofstream@DU?$char_traits@D@std@@@std@@QEAAXXZ
	??_D?$basic_ostringstream@DU?$char_traits@D@std@@V?$allocator@D@2@@std@@QEAAXXZ
	??_D?$basic_stringstream@DU?$char_traits@D@std@@V?$allocator@D@2@@std@@QEAAXXZ
	??_FFrame@video@libeYs3D@@QEAAXXZ
	??_FPCFrame@video@libeYs3D@@QEAAXXZ
	??_FSensorData@sensors@libeYs3D@@QEAAXXZ
	??_FSensorDataSet@sensors@libeYs3D@@QEAAXXZ
	??_H@YAXPEAX_K1P6APEAX0@Z@Z
	?CF_FILTER@PlyFilter@@SAXAEAV?$vector@EV?$allocator@E@std@@@std@@V23@HHHHAEAV?$vector@MV?$allocator@M@std@@@3@PEAUeSPCtrl_RectLogData@@@Z
	?CF_FILTER@PlyFilter@@SAXAEAV?$vector@EV?$allocator@E@std@@@std@@V23@HHHHAEAV?$vector@MV?$allocator@M@std@@@3@PEAUtagWMedFilter_1Param@@PEAUtagWMedFilterParam@@PEAUtagWMeanFilterFloatParam@@PEAUeSPCtrl_RectLogData@@@Z
	?CF_FILTER_Z14@PlyFilter@@SAXAEAV?$vector@EV?$allocator@E@std@@@std@@V23@HHHHAEAV?$vector@MV?$allocator@M@std@@@3@PEAUeSPCtrl_RectLogData@@@Z
	?CF_FILTER_Z14@PlyFilter@@SAXAEAV?$vector@EV?$allocator@E@std@@@std@@V23@HHHHAEAV?$vector@MV?$allocator@M@std@@@3@PEAUtagWMedFilter_1Param@@PEAUtagWMedFilterParam@@PEAUtagWMeanFilterFloatParam@@PEAUeSPCtrl_RectLogData@@@Z
	?DM_Quality_Register_Setting@RegisterSettings@@SAHPEAXPEAUtagDEVSEL@@G@Z
	?DM_Quality_Register_Setting_For15cm@RegisterSettings@@SAHPEAXPEAUtagDEVSEL@@@Z
	?DM_Quality_Register_Setting_For6cm@RegisterSettings@@SAHPEAXPEAUtagDEVSEL@@@Z
	?DepthDataTypeToDepthImageType@APCImageType@@SA?AW4Value@1@G@Z
	?DmColorMode14@ColorPaletteGenerator@@SAXPEAUtagRGBQUAD@@MM_N@Z
	?DmGrayMode14@ColorPaletteGenerator@@SAXPEAUtagRGBQUAD@@MM_N@Z
	?ForEx8053Mode9@RegisterSettings@@SAHPEAXPEAUtagDEVSEL@@@Z
	?FrameSync8053_8059@RegisterSettings@@SAHPEAXPEAUtagDEVSEL@@@Z
	?FrameSync8053_8059_Clock@RegisterSettings@@SAHPEAXPEAUtagDEVSEL@@@Z
	?FrameSync8053_8059_Reset@RegisterSettings@@SAHPEAXPEAUtagDEVSEL@@@Z
	?Framesync@RegisterSettings@@SAHPEAXPEAUtagDEVSEL@@1HHHH_NHH@Z
	?FramesyncD0@RegisterSettings@@SAHPEAXPEAUtagDEVSEL@@HHHH_NH@Z
	?FramesyncFor8040S@RegisterSettings@@SAHPEAXPEAUtagDEVSEL@@HHHH_NH@Z
	?FramesyncFor8054@RegisterSettings@@SAHPEAXPEAUtagDEVSEL@@HHHH_NH@Z
	?GetCurrentModeInfo@ModeConfigOptions@@QEAA?AUMODE_CONFIG@ModeConfig@@XZ
	?GetFilterParams@PlyFilter@@SAXPEAUtagWMedFilter_1Param@@PEAUtagWMedFilterParam@@PEAUtagWMeanFilterFloatParam@@@Z
	?GetIMU_Type@ModeConfig@@QEAA?AW4IMU_TYPE@1@H@Z
	?GetModeConfigList@ModeConfig@@QEAAAEBV?$vector@UMODE_CONFIG@ModeConfig@@V?$allocator@UMODE_CONFIG@ModeConfig@@@std@@@std@@H@Z
	?HSV_to_RGB@ColorPaletteGenerator@@CAXNNNAEAN00@Z
	?LOG_COLOR_PRODUCER_TICK@@YAXPEBD0ZZ
	?LOG_DEBUG_S@@YAXPEBD0ZZ
	?LOG_DEPTH_ACCURACY@@YAXPEBD0ZZ
	?LOG_DEPTH_PRODUCER_TICK@@YAXPEBD0ZZ
	?LOG_ERR_S@@YAXPEBD0ZZ
	?LOG_IMU_PRODUCER_TICK@@YAXPEBD0ZZ
	?LOG_INFO@@YAXPEBD0ZZ
	?LOG_INFO_VITAL@@YAXPEBD0ZZ
	?LOG_PC_PRODUCER_TICK@@YAXPEBD0ZZ
	?LOG_PERFORMANCE@@YAXPEBD0ZZ
	?LOG_VERBOSE_S@@YAXPEBD0ZZ
	?LOG_WARN@@YAXPEBD0ZZ
	?Log@Debug@@SAXDW4Color@@@Z
	?Log@Debug@@SAXHW4Color@@@Z
	?Log@Debug@@SAXMW4Color@@@Z
	?Log@Debug@@SAXNW4Color@@@Z
	?Log@Debug@@SAXPEBDW4Color@@@Z
	?Log@Debug@@SAXV?$basic_string@DU?$char_traits@D@std@@V?$allocator@D@2@@std@@W4Color@@@Z
	?Log@Debug@@SAX_NW4Color@@@Z
	?MakeGaussTab@PlyFilter@@SAXPEAMM@Z
	?MakeMeanTab@PlyFilter@@SAXPEAMM@Z
	?MemoryAllocator__allocate@devices@libeYs3D@@YAPEAXPEAVCameraDevice@12@_K@Z
	?MemoryAllocator__deallocate@devices@libeYs3D@@YAXPEAVCameraDevice@12@PEAX_K@Z
	?MemoryAllocator__max_size@devices@libeYs3D@@YA_KPEAVCameraDevice@12@@Z
	?MonoBilinearFineScaler@PlyWriter@@SAXPEAE0HHHHH@Z
	?MonoBilinearFineScaler@PlyWriter@@SAXPEAE0HHHHHH@Z
	?MonoBilinearFineScaler_float@PlyWriter@@SAXPEAM0HHHHH@Z
	?MonoBilinearFineScaler_short@PlyWriter@@SAXPEAG0HHHHH@Z
	?OnThreadExit@ThreadStoreBase@base@libeYs3D@@SAXXZ
	?ReadModeConfig@ModeConfig@@AEAAXPEBD@Z
	?SetPixelUnit@CameraDevice@devices@libeYs3D@@QEAAXF@Z
	?UnavailableDisparityCancellation@PlyFilter@@SAXAEAV?$vector@EV?$allocator@E@std@@@std@@HHH@Z
	?UpdateFocalLength@CameraDevice@devices@libeYs3D@@QEAAXXZ
	?UpdatePixelUnit@CameraDevice@devices@libeYs3D@@QEAAXXZ
	?WMeanFilter@PlyFilter@@SAXPEAEPEAG1PEAMHHPEAUtagWMeanFilterParam@@@Z
	?WMeanFilterFloat@PlyFilter@@SAXPEAM00HHPEAUtagWMeanFilterFloatParam@@@Z
	?WMedFilter@PlyFilter@@SAXPEAEPEAG1PEAMHHPEAUtagWMedFilterParam@@@Z
	?WMedFilter_1@PlyFilter@@SAXPEAEPEAG1PEAMHHPEAUtagWMedFilter_1Param@@@Z
	?_Buy@?$vector@EV?$allocator@E@std@@@std@@AEAA_N_K@Z
	?_Buy@?$vector@MV?$allocator@M@std@@@std@@AEAA_N_K@Z
	?_Buyheadnode@?$_Tree_comp_alloc@V?$_Tmap_traits@HHU?$less@H@std@@V?$allocator@U?$pair@$$CBHH@std@@@2@$0A@@std@@@std@@QEAAPEAU?$_Tree_node@U?$pair@$$CBHH@std@@PEAX@2@XZ
	?_Buyheadnode@?$_Tree_comp_alloc@V?$_Tmap_traits@HUPID_TABLE@ModeConfig@@U?$less@H@std@@V?$allocator@U?$pair@$$CBHUPID_TABLE@ModeConfig@@@std@@@4@$0A@@std@@@std@@QEAAPEAU?$_Tree_node@U?$pair@$$CBHUPID_TABLE@ModeConfig@@@std@@PEAX@2@XZ
	?_Buyheadnode@?$_Tree_comp_alloc@V?$_Tmap_traits@U?$pair@GG@std@@V?$vector@V?$basic_string@DU?$char_traits@D@std@@V?$allocator@D@2@@std@@V?$allocator@V?$basic_string@DU?$char_traits@D@std@@V?$allocator@D@2@@std@@@2@@2@U?$less@U?$pair@GG@std@@@2@V?$allocator@U?$pair@$$CBU?$pair@GG@std@@V?$vector@V?$basic_string@DU?$char_traits@D@std@@V?$allocator@D@2@@std@@V?$allocator@V?$basic_string@DU?$char_traits@D@std@@V?$allocator@D@2@@std@@@2@@2@@std@@@2@$0A@@std@@@std@@QEAAPEAU?$_Tree_node@U?$pair@$$CBU?$pair@GG@std@@V?$vector@V?$basic_string@DU?$char_traits@D@std@@V?$allocator@D@2@@std@@V?$allocator@V?$basic_string@DU?$char_traits@D@std@@V?$allocator@D@2@@std@@@2@@2@@std@@PEAX@2@XZ
	?_Buyheadnode@?$_Tree_comp_alloc@V?$_Tmap_traits@UDeviceSellectInfo@libeYs3D@@V?$shared_ptr@VCameraDevice@devices@libeYs3D@@@std@@U?$less@UDeviceSellectInfo@libeYs3D@@@4@V?$allocator@U?$pair@$$CBUDeviceSellectInfo@libeYs3D@@V?$shared_ptr@VCameraDevice@devices@libeYs3D@@@std@@@std@@@4@$0A@@std@@@std@@QEAAPEAU?$_Tree_node@U?$pair@$$CBUDeviceSellectInfo@libeYs3D@@V?$shared_ptr@VCameraDevice@devices@libeYs3D@@@std@@@std@@PEAX@2@XZ
	?_Buyheadnode@?$_Tree_comp_alloc@V?$_Tmap_traits@W4IMUPacketSymbol@IMUData@@_KU?$less@W4IMUPacketSymbol@IMUData@@@std@@V?$allocator@U?$pair@$$CBW4IMUPacketSymbol@IMUData@@_K@std@@@4@$0A@@std@@@std@@QEAAPEAU?$_Tree_node@U?$pair@$$CBW4IMUPacketSymbol@IMUData@@_K@std@@PEAX@2@XZ
	?_Buynode0@?$_List_alloc@U?$_List_base_types@V?$vector@FV?$allocator@F@std@@@std@@V?$allocator@V?$vector@FV?$allocator@F@std@@@std@@@2@@std@@@std@@QEAAPEAU?$_List_node@V?$vector@FV?$allocator@F@std@@@std@@PEAX@2@PEAU32@0@Z
	?_Buynode0@?$_Tree_comp_alloc@V?$_Tmap_traits@HHU?$less@H@std@@V?$allocator@U?$pair@$$CBHH@std@@@2@$0A@@std@@@std@@QEAAPEAU?$_Tree_node@U?$pair@$$CBHH@std@@PEAX@2@XZ
	?_Buynode0@?$_Tree_comp_alloc@V?$_Tmap_traits@HUPID_TABLE@ModeConfig@@U?$less@H@std@@V?$allocator@U?$pair@$$CBHUPID_TABLE@ModeConfig@@@std@@@4@$0A@@std@@@std@@QEAAPEAU?$_Tree_node@U?$pair@$$CBHUPID_TABLE@ModeConfig@@@std@@PEAX@2@XZ
	?_Buynode0@?$_Tree_comp_alloc@V?$_Tmap_traits@U?$pair@GG@std@@V?$vector@V?$basic_string@DU?$char_traits@D@std@@V?$allocator@D@2@@std@@V?$allocator@V?$basic_string@DU?$char_traits@D@std@@V?$allocator@D@2@@std@@@2@@2@U?$less@U?$pair@GG@std@@@2@V?$allocator@U?$pair@$$CBU?$pair@GG@std@@V?$vector@V?$basic_string@DU?$char_traits@D@std@@V?$allocator@D@2@@std@@V?$allocator@V?$basic_string@DU?$char_traits@D@std@@V?$allocator@D@2@@std@@@2@@2@@std@@@2@$0A@@std@@@std@@QEAAPEAU?$_Tree_node@U?$pair@$$CBU?$pair@GG@std@@V?$vector@V?$basic_string@DU?$char_traits@D@std@@V?$allocator@D@2@@std@@V?$allocator@V?$basic_string@DU?$char_traits@D@std@@V?$allocator@D@2@@std@@@2@@2@@std@@PEAX@2@XZ
	?_Buynode0@?$_Tree_comp_alloc@V?$_Tmap_traits@UDeviceSellectInfo@libeYs3D@@V?$shared_ptr@VCameraDevice@devices@libeYs3D@@@std@@U?$less@UDeviceSellectInfo@libeYs3D@@@4@V?$allocator@U?$pair@$$CBUDeviceSellectInfo@libeYs3D@@V?$shared_ptr@VCameraDevice@devices@libeYs3D@@@std@@@std@@@4@$0A@@std@@@std@@QEAAPEAU?$_Tree_node@U?$pair@$$CBUDeviceSellectInfo@libeYs3D@@V?$shared_ptr@VCameraDevice@devices@libeYs3D@@@std@@@std@@PEAX@2@XZ
	?_Buynode0@?$_Tree_comp_alloc@V?$_Tmap_traits@W4IMUPacketSymbol@IMUData@@_KU?$less@W4IMUPacketSymbol@IMUData@@@std@@V?$allocator@U?$pair@$$CBW4IMUPacketSymbol@IMUData@@_K@std@@@4@$0A@@std@@@std@@QEAAPEAU?$_Tree_node@U?$pair@$$CBW4IMUPacketSymbol@IMUData@@_K@std@@PEAX@2@XZ
	?_Change_array@?$vector@GV?$allocator@G@std@@@std@@AEAAXQEAG_K1@Z
	?_Change_array@?$vector@UCommand@?$WorkerThread@V?$Optional@VCallbackWorkItem@sensors@libeYs3D@@@base@libeYs3D@@@base@libeYs3D@@V?$allocator@UCommand@?$WorkerThread@V?$Optional@VCallbackWorkItem@sensors@libeYs3D@@@base@libeYs3D@@@base@libeYs3D@@@std@@@std@@AEAAXQEAUCommand@?$WorkerThread@V?$Optional@VCallbackWorkItem@sensors@libeYs3D@@@base@libeYs3D@@@base@libeYs3D@@_K1@Z
	?_Change_array@?$vector@UCommand@?$WorkerThread@V?$Optional@VCallbackWorkItem@video@libeYs3D@@@base@libeYs3D@@@base@libeYs3D@@V?$allocator@UCommand@?$WorkerThread@V?$Optional@VCallbackWorkItem@video@libeYs3D@@@base@libeYs3D@@@base@libeYs3D@@@std@@@std@@AEAAXQEAUCommand@?$WorkerThread@V?$Optional@VCallbackWorkItem@video@libeYs3D@@@base@libeYs3D@@@base@libeYs3D@@_K1@Z
	?_Change_array@?$vector@UCommand@?$WorkerThread@V?$Optional@VDACalculateWorkItem@video@libeYs3D@@@base@libeYs3D@@@base@libeYs3D@@V?$allocator@UCommand@?$WorkerThread@V?$Optional@VDACalculateWorkItem@video@libeYs3D@@@base@libeYs3D@@@base@libeYs3D@@@std@@@std@@AEAAXQEAUCommand@?$WorkerThread@V?$Optional@VDACalculateWorkItem@video@libeYs3D@@@base@libeYs3D@@@base@libeYs3D@@_K1@Z
	?_Change_array@?$vector@UtagAPC_STREAM_INFO@@V?$allocator@UtagAPC_STREAM_INFO@@@std@@@std@@AEAAXQEAUtagAPC_STREAM_INFO@@_K1@Z
	?_Construct@?$basic_string@DU?$char_traits@D@std@@V?$allocator@D@2@@std@@QEAAXQEAD0Urandom_access_iterator_tag@2@@Z
	?_Copy@?$_Func_impl_no_alloc@P6A_NPEBVFrame@video@libeYs3D@@@Z_NPEBV123@@std@@EEBAPEAV?$_Func_base@_NPEBVFrame@video@libeYs3D@@@2@PEAX@Z
	?_Copy@?$_Func_impl_no_alloc@P6A_NPEBVPCFrame@video@libeYs3D@@@Z_NPEBV123@@std@@EEBAPEAV?$_Func_base@_NPEBVPCFrame@video@libeYs3D@@@2@PEAX@Z
	?_Copy@?$_Func_impl_no_alloc@V<lambda_488c629a0a7c1ecc954ac8047e960599>@@_J$$V@std@@EEBAPEAV?$_Func_base@_J$$V@2@PEAX@Z
	?_Copy@?$_Func_impl_no_alloc@V<lambda_4cde73e63763cb313bd212247f8ddbb0>@@W4WorkerProcessingResult@base@libeYs3D@@$$QEAV?$Optional@VDACalculateWorkItem@video@libeYs3D@@@34@@std@@EEBAPEAV?$_Func_base@W4WorkerProcessingResult@base@libeYs3D@@$$QEAV?$Optional@VDACalculateWorkItem@video@libeYs3D@@@23@@2@PEAX@Z
	?_Copy@?$_Func_impl_no_alloc@V<lambda_530843cc44829e3530ea01af34e42038>@@W4WorkerProcessingResult@base@libeYs3D@@$$QEAV?$Optional@VCallbackWorkItem@sensors@libeYs3D@@@34@@std@@EEBAPEAV?$_Func_base@W4WorkerProcessingResult@base@libeYs3D@@$$QEAV?$Optional@VCallbackWorkItem@sensors@libeYs3D@@@23@@2@PEAX@Z
	?_Copy@?$_Func_impl_no_alloc@V<lambda_69d578ede27bd906c7e1bc689c004001>@@_J$$V@std@@EEBAPEAV?$_Func_base@_J$$V@2@PEAX@Z
	?_Copy@?$_Func_impl_no_alloc@V<lambda_9f92d7825455e143dbf3293131d714f3>@@W4WorkerProcessingResult@base@libeYs3D@@$$QEAV?$Optional@VCallbackWorkItem@video@libeYs3D@@@34@@std@@EEBAPEAV?$_Func_base@W4WorkerProcessingResult@base@libeYs3D@@$$QEAV?$Optional@VCallbackWorkItem@video@libeYs3D@@@23@@2@PEAX@Z
	?_Copy@?$_Func_impl_no_alloc@V<lambda_fd68a9891d2d9d887c20652be0ece82a>@@_J$$V@std@@EEBAPEAV?$_Func_base@_J$$V@2@PEAX@Z
	?_Copy@?$_Func_impl_no_alloc@V?$_Binder@U_Unforced@std@@P8DepthFrameProducer@video@libeYs3D@@EAAXPEAVFrame@45@@ZPEAV345@AEBU?$_Ph@$00@2@@std@@XPEAVFrame@video@libeYs3D@@@std@@EEBAPEAV?$_Func_base@XPEAVFrame@video@libeYs3D@@@2@PEAX@Z
	?_Copy@?$_Func_impl_no_alloc@V?$_Binder@U_Unforced@std@@P8FrameProducer@video@libeYs3D@@EAA_NPEBUSensorDataSet@sensors@5@@ZPEAV345@AEBU?$_Ph@$00@2@@std@@_NPEBUSensorDataSet@sensors@libeYs3D@@@std@@EEBAPEAV?$_Func_base@_NPEBUSensorDataSet@sensors@libeYs3D@@@2@PEAX@Z
	?_Copy@?$_Func_impl_no_alloc@V?$_Binder@U_Unforced@std@@P8FrameProducer@video@libeYs3D@@EAA_NPEBVFrame@45@@ZPEAV345@AEBU?$_Ph@$00@2@@std@@_NPEBVFrame@video@libeYs3D@@@std@@EEBAPEAV?$_Func_base@_NPEBVFrame@video@libeYs3D@@@2@PEAX@Z
	?_Copy@?$_Func_impl_no_alloc@V?$_Binder@U_Unforced@std@@P8FrameSetPipeline@devices@libeYs3D@@EAA_NPEBVFrame@video@5@@ZPEAV345@AEBU?$_Ph@$00@2@@std@@_NPEBVFrame@video@libeYs3D@@@std@@EEBAPEAV?$_Func_base@_NPEBVFrame@video@libeYs3D@@@2@PEAX@Z
	?_Copy@?$_Func_impl_no_alloc@V?$_Binder@U_Unforced@std@@P8FrameSetPipeline@devices@libeYs3D@@EAA_NPEBVPCFrame@video@5@@ZPEAV345@AEBU?$_Ph@$00@2@@std@@_NPEBVPCFrame@video@libeYs3D@@@std@@EEBAPEAV?$_Func_base@_NPEBVPCFrame@video@libeYs3D@@@2@PEAX@Z
	?_Copy@?$_Func_impl_no_alloc@V?$_Binder@U_Unforced@std@@P8PCFrameProducer@video@libeYs3D@@EAA_NPEBVFrame@45@@ZPEAV345@AEBU?$_Ph@$00@2@@std@@_NPEBVFrame@video@libeYs3D@@@std@@EEBAPEAV?$_Func_base@_NPEBVFrame@video@libeYs3D@@@2@PEAX@Z
	?_Copy@?$_Func_impl_no_alloc@V?$_Binder@U_Unforced@std@@P8Pipeline@devices@libeYs3D@@EAA_NPEBUSensorData@sensors@5@@ZPEAV345@AEBU?$_Ph@$00@2@@std@@_NPEBUSensorData@sensors@libeYs3D@@@std@@EEBAPEAV?$_Func_base@_NPEBUSensorData@sensors@libeYs3D@@@2@PEAX@Z
	?_Copy@?$_Func_impl_no_alloc@V?$_Binder@U_Unforced@std@@P8Pipeline@devices@libeYs3D@@EAA_NPEBVFrame@video@5@@ZPEAV345@AEBU?$_Ph@$00@2@@std@@_NPEBVFrame@video@libeYs3D@@@std@@EEBAPEAV?$_Func_base@_NPEBVFrame@video@libeYs3D@@@2@PEAX@Z
	?_Copy@?$_Func_impl_no_alloc@V?$_Binder@U_Unforced@std@@P8Pipeline@devices@libeYs3D@@EAA_NPEBVPCFrame@video@5@@ZPEAV345@AEBU?$_Ph@$00@2@@std@@_NPEBVPCFrame@video@libeYs3D@@@std@@EEBAPEAV?$_Func_base@_NPEBVPCFrame@video@libeYs3D@@@2@PEAX@Z
	?_Copy@?$_Func_impl_no_alloc@V?$_Binder@U_Unforced@std@@P8SensorDataProducer@sensors@libeYs3D@@EAA_NPEBUSensorDataSet@45@@ZPEAV345@AEBU?$_Ph@$00@2@@std@@_NPEBUSensorDataSet@sensors@libeYs3D@@@std@@EEBAPEAV?$_Func_base@_NPEBUSensorDataSet@sensors@libeYs3D@@@2@PEAX@Z
	?_Decref@_Ref_count_base@std@@QEAAXXZ
	?_Delete_this@?$_Func_impl_no_alloc@P6A_NPEBVFrame@video@libeYs3D@@@Z_NPEBV123@@std@@EEAAX_N@Z
	?_Delete_this@?$_Func_impl_no_alloc@P6A_NPEBVPCFrame@video@libeYs3D@@@Z_NPEBV123@@std@@EEAAX_N@Z
	?_Delete_this@?$_Func_impl_no_alloc@V<lambda_488c629a0a7c1ecc954ac8047e960599>@@_J$$V@std@@EEAAX_N@Z
	?_Delete_this@?$_Func_impl_no_alloc@V<lambda_4cde73e63763cb313bd212247f8ddbb0>@@W4WorkerProcessingResult@base@libeYs3D@@$$QEAV?$Optional@VDACalculateWorkItem@video@libeYs3D@@@34@@std@@EEAAX_N@Z
	?_Delete_this@?$_Func_impl_no_alloc@V<lambda_530843cc44829e3530ea01af34e42038>@@W4WorkerProcessingResult@base@libeYs3D@@$$QEAV?$Optional@VCallbackWorkItem@sensors@libeYs3D@@@34@@std@@EEAAX_N@Z
	?_Delete_this@?$_Func_impl_no_alloc@V<lambda_69d578ede27bd906c7e1bc689c004001>@@_J$$V@std@@EEAAX_N@Z
	?_Delete_this@?$_Func_impl_no_alloc@V<lambda_9f92d7825455e143dbf3293131d714f3>@@W4WorkerProcessingResult@base@libeYs3D@@$$QEAV?$Optional@VCallbackWorkItem@video@libeYs3D@@@34@@std@@EEAAX_N@Z
	?_Delete_this@?$_Func_impl_no_alloc@V<lambda_fd68a9891d2d9d887c20652be0ece82a>@@_J$$V@std@@EEAAX_N@Z
	?_Delete_this@?$_Func_impl_no_alloc@V?$_Binder@U_Unforced@std@@P8DepthFrameProducer@video@libeYs3D@@EAAXPEAVFrame@45@@ZPEAV345@AEBU?$_Ph@$00@2@@std@@XPEAVFrame@video@libeYs3D@@@std@@EEAAX_N@Z
	?_Delete_this@?$_Func_impl_no_alloc@V?$_Binder@U_Unforced@std@@P8FrameProducer@video@libeYs3D@@EAA_NPEBUSensorDataSet@sensors@5@@ZPEAV345@AEBU?$_Ph@$00@2@@std@@_NPEBUSensorDataSet@sensors@libeYs3D@@@std@@EEAAX_N@Z
	?_Delete_this@?$_Func_impl_no_alloc@V?$_Binder@U_Unforced@std@@P8FrameProducer@video@libeYs3D@@EAA_NPEBVFrame@45@@ZPEAV345@AEBU?$_Ph@$00@2@@std@@_NPEBVFrame@video@libeYs3D@@@std@@EEAAX_N@Z
	?_Delete_this@?$_Func_impl_no_alloc@V?$_Binder@U_Unforced@std@@P8FrameSetPipeline@devices@libeYs3D@@EAA_NPEBVFrame@video@5@@ZPEAV345@AEBU?$_Ph@$00@2@@std@@_NPEBVFrame@video@libeYs3D@@@std@@EEAAX_N@Z
	?_Delete_this@?$_Func_impl_no_alloc@V?$_Binder@U_Unforced@std@@P8FrameSetPipeline@devices@libeYs3D@@EAA_NPEBVPCFrame@video@5@@ZPEAV345@AEBU?$_Ph@$00@2@@std@@_NPEBVPCFrame@video@libeYs3D@@@std@@EEAAX_N@Z
	?_Delete_this@?$_Func_impl_no_alloc@V?$_Binder@U_Unforced@std@@P8PCFrameProducer@video@libeYs3D@@EAA_NPEBVFrame@45@@ZPEAV345@AEBU?$_Ph@$00@2@@std@@_NPEBVFrame@video@libeYs3D@@@std@@EEAAX_N@Z
	?_Delete_this@?$_Func_impl_no_alloc@V?$_Binder@U_Unforced@std@@P8Pipeline@devices@libeYs3D@@EAA_NPEBUSensorData@sensors@5@@ZPEAV345@AEBU?$_Ph@$00@2@@std@@_NPEBUSensorData@sensors@libeYs3D@@@std@@EEAAX_N@Z
	?_Delete_this@?$_Func_impl_no_alloc@V?$_Binder@U_Unforced@std@@P8Pipeline@devices@libeYs3D@@EAA_NPEBVFrame@video@5@@ZPEAV345@AEBU?$_Ph@$00@2@@std@@_NPEBVFrame@video@libeYs3D@@@std@@EEAAX_N@Z
	?_Delete_this@?$_Func_impl_no_alloc@V?$_Binder@U_Unforced@std@@P8Pipeline@devices@libeYs3D@@EAA_NPEBVPCFrame@video@5@@ZPEAV345@AEBU?$_Ph@$00@2@@std@@_NPEBVPCFrame@video@libeYs3D@@@std@@EEAAX_N@Z
	?_Delete_this@?$_Func_impl_no_alloc@V?$_Binder@U_Unforced@std@@P8SensorDataProducer@sensors@libeYs3D@@EAA_NPEBUSensorDataSet@45@@ZPEAV345@AEBU?$_Ph@$00@2@@std@@_NPEBUSensorDataSet@sensors@libeYs3D@@@std@@EEAAX_N@Z
	?_Delete_this@?$_Ref_count@VCameraDevice@devices@libeYs3D@@@std@@EEAAXXZ
	?_Delete_this@?$_Ref_count@VEYS3DSystem@libeYs3D@@@std@@EEAAXXZ
	?_Delete_this@?$_Ref_count@VFrameSetPipeline@devices@libeYs3D@@@std@@EEAAXXZ
	?_Delete_this@?$_Ref_count@VPipeline@devices@libeYs3D@@@std@@EEAAXXZ
	?_Destroy@?$_Ref_count@VCameraDevice@devices@libeYs3D@@@std@@EEAAXXZ
	?_Destroy@?$_Ref_count@VEYS3DSystem@libeYs3D@@@std@@EEAAXXZ
	?_Destroy@?$_Ref_count@VFrameSetPipeline@devices@libeYs3D@@@std@@EEAAXXZ
	?_Destroy@?$_Ref_count@VPipeline@devices@libeYs3D@@@std@@EEAAXXZ
	?_Destroy@?$vector@UCommand@?$WorkerThread@V?$Optional@VCallbackWorkItem@sensors@libeYs3D@@@base@libeYs3D@@@base@libeYs3D@@V?$allocator@UCommand@?$WorkerThread@V?$Optional@VCallbackWorkItem@sensors@libeYs3D@@@base@libeYs3D@@@base@libeYs3D@@@std@@@std@@AEAAXPEAUCommand@?$WorkerThread@V?$Optional@VCallbackWorkItem@sensors@libeYs3D@@@base@libeYs3D@@@base@libeYs3D@@0@Z
	?_Destroy@?$vector@UCommand@?$WorkerThread@V?$Optional@VCallbackWorkItem@video@libeYs3D@@@base@libeYs3D@@@base@libeYs3D@@V?$allocator@UCommand@?$WorkerThread@V?$Optional@VCallbackWorkItem@video@libeYs3D@@@base@libeYs3D@@@base@libeYs3D@@@std@@@std@@AEAAXPEAUCommand@?$WorkerThread@V?$Optional@VCallbackWorkItem@video@libeYs3D@@@base@libeYs3D@@@base@libeYs3D@@0@Z
	?_Destroy@?$vector@UCommand@?$WorkerThread@V?$Optional@VDACalculateWorkItem@video@libeYs3D@@@base@libeYs3D@@@base@libeYs3D@@V?$allocator@UCommand@?$WorkerThread@V?$Optional@VDACalculateWorkItem@video@libeYs3D@@@base@libeYs3D@@@base@libeYs3D@@@std@@@std@@AEAAXPEAUCommand@?$WorkerThread@V?$Optional@VDACalculateWorkItem@video@libeYs3D@@@base@libeYs3D@@@base@libeYs3D@@0@Z
	?_Destroy@?$vector@UMODE_CONFIG@ModeConfig@@V?$allocator@UMODE_CONFIG@ModeConfig@@@std@@@std@@AEAAXPEAUMODE_CONFIG@ModeConfig@@0@Z
	?_Destroy@?$vector@V?$Optional@V?$WorkerThread@V?$Optional@VCallbackWorkItem@sensors@libeYs3D@@@base@libeYs3D@@@base@libeYs3D@@@base@libeYs3D@@V?$allocator@V?$Optional@V?$WorkerThread@V?$Optional@VCallbackWorkItem@sensors@libeYs3D@@@base@libeYs3D@@@base@libeYs3D@@@base@libeYs3D@@@std@@@std@@AEAAXPEAV?$Optional@V?$WorkerThread@V?$Optional@VCallbackWorkItem@sensors@libeYs3D@@@base@libeYs3D@@@base@libeYs3D@@@base@libeYs3D@@0@Z
	?_Destroy@?$vector@V?$Optional@V?$WorkerThread@V?$Optional@VCallbackWorkItem@video@libeYs3D@@@base@libeYs3D@@@base@libeYs3D@@@base@libeYs3D@@V?$allocator@V?$Optional@V?$WorkerThread@V?$Optional@VCallbackWorkItem@video@libeYs3D@@@base@libeYs3D@@@base@libeYs3D@@@base@libeYs3D@@@std@@@std@@AEAAXPEAV?$Optional@V?$WorkerThread@V?$Optional@VCallbackWorkItem@video@libeYs3D@@@base@libeYs3D@@@base@libeYs3D@@@base@libeYs3D@@0@Z
	?_Destroy@?$vector@V?$basic_string@DU?$char_traits@D@std@@V?$allocator@D@2@@std@@V?$allocator@V?$basic_string@DU?$char_traits@D@std@@V?$allocator@D@2@@std@@@2@@std@@AEAAXPEAV?$basic_string@DU?$char_traits@D@std@@V?$allocator@D@2@@2@0@Z
	?_Destroy_if_node@?$_Tree@V?$_Tmap_traits@HHU?$less@H@std@@V?$allocator@U?$pair@$$CBHH@std@@@2@$0A@@std@@@std@@IEAAXPEAU?$_Tree_node@U?$pair@$$CBHH@std@@PEAX@2@@Z
	?_Destroy_if_node@?$_Tree@V?$_Tmap_traits@HUPID_TABLE@ModeConfig@@U?$less@H@std@@V?$allocator@U?$pair@$$CBHUPID_TABLE@ModeConfig@@@std@@@4@$0A@@std@@@std@@IEAAXPEAU?$_Tree_node@U?$pair@$$CBHUPID_TABLE@ModeConfig@@@std@@PEAX@2@@Z
	?_Destroy_if_node@?$_Tree@V?$_Tmap_traits@U?$pair@GG@std@@V?$vector@V?$basic_string@DU?$char_traits@D@std@@V?$allocator@D@2@@std@@V?$allocator@V?$basic_string@DU?$char_traits@D@std@@V?$allocator@D@2@@std@@@2@@2@U?$less@U?$pair@GG@std@@@2@V?$allocator@U?$pair@$$CBU?$pair@GG@std@@V?$vector@V?$basic_string@DU?$char_traits@D@std@@V?$allocator@D@2@@std@@V?$allocator@V?$basic_string@DU?$char_traits@D@std@@V?$allocator@D@2@@std@@@2@@2@@std@@@2@$0A@@std@@@std@@IEAAXPEAU?$_Tree_node@U?$pair@$$CBU?$pair@GG@std@@V?$vector@V?$basic_string@DU?$char_traits@D@std@@V?$allocator@D@2@@std@@V?$allocator@V?$basic_string@DU?$char_traits@D@std@@V?$allocator@D@2@@std@@@2@@2@@std@@PEAX@2@@Z
	?_Destroy_if_node@?$_Tree@V?$_Tmap_traits@UDeviceSellectInfo@libeYs3D@@V?$shared_ptr@VCameraDevice@devices@libeYs3D@@@std@@U?$less@UDeviceSellectInfo@libeYs3D@@@4@V?$allocator@U?$pair@$$CBUDeviceSellectInfo@libeYs3D@@V?$shared_ptr@VCameraDevice@devices@libeYs3D@@@std@@@std@@@4@$0A@@std@@@std@@IEAAXPEAU?$_Tree_node@U?$pair@$$CBUDeviceSellectInfo@libeYs3D@@V?$shared_ptr@VCameraDevice@devices@libeYs3D@@@std@@@std@@PEAX@2@@Z
	?_Destroy_if_node@?$_Tree@V?$_Tmap_traits@W4IMUPacketSymbol@IMUData@@_KU?$less@W4IMUPacketSymbol@IMUData@@@std@@V?$allocator@U?$pair@$$CBW4IMUPacketSymbol@IMUData@@_K@std@@@4@$0A@@std@@@std@@IEAAXPEAU?$_Tree_node@U?$pair@$$CBW4IMUPacketSymbol@IMUData@@_K@std@@PEAX@2@@Z
	?_Do_call@?$_Func_impl_no_alloc@P6A_NPEBVFrame@video@libeYs3D@@@Z_NPEBV123@@std@@EEAA_N$$QEAPEBVFrame@video@libeYs3D@@@Z
	?_Do_call@?$_Func_impl_no_alloc@P6A_NPEBVPCFrame@video@libeYs3D@@@Z_NPEBV123@@std@@EEAA_N$$QEAPEBVPCFrame@video@libeYs3D@@@Z
	?_Do_call@?$_Func_impl_no_alloc@V<lambda_488c629a0a7c1ecc954ac8047e960599>@@_J$$V@std@@EEAA_JXZ
	?_Do_call@?$_Func_impl_no_alloc@V<lambda_4cde73e63763cb313bd212247f8ddbb0>@@W4WorkerProcessingResult@base@libeYs3D@@$$QEAV?$Optional@VDACalculateWorkItem@video@libeYs3D@@@34@@std@@EEAA?AW4WorkerProcessingResult@base@libeYs3D@@$$QEAV?$Optional@VDACalculateWorkItem@video@libeYs3D@@@45@@Z
	?_Do_call@?$_Func_impl_no_alloc@V<lambda_530843cc44829e3530ea01af34e42038>@@W4WorkerProcessingResult@base@libeYs3D@@$$QEAV?$Optional@VCallbackWorkItem@sensors@libeYs3D@@@34@@std@@EEAA?AW4WorkerProcessingResult@base@libeYs3D@@$$QEAV?$Optional@VCallbackWorkItem@sensors@libeYs3D@@@45@@Z
	?_Do_call@?$_Func_impl_no_alloc@V<lambda_69d578ede27bd906c7e1bc689c004001>@@_J$$V@std@@EEAA_JXZ
	?_Do_call@?$_Func_impl_no_alloc@V<lambda_9f92d7825455e143dbf3293131d714f3>@@W4WorkerProcessingResult@base@libeYs3D@@$$QEAV?$Optional@VCallbackWorkItem@video@libeYs3D@@@34@@std@@EEAA?AW4WorkerProcessingResult@base@libeYs3D@@$$QEAV?$Optional@VCallbackWorkItem@video@libeYs3D@@@45@@Z
	?_Do_call@?$_Func_impl_no_alloc@V<lambda_fd68a9891d2d9d887c20652be0ece82a>@@_J$$V@std@@EEAA_JXZ
	?_Do_call@?$_Func_impl_no_alloc@V?$_Binder@U_Unforced@std@@P8DepthFrameProducer@video@libeYs3D@@EAAXPEAVFrame@45@@ZPEAV345@AEBU?$_Ph@$00@2@@std@@XPEAVFrame@video@libeYs3D@@@std@@EEAAX$$QEAPEAVFrame@video@libeYs3D@@@Z
	?_Do_call@?$_Func_impl_no_alloc@V?$_Binder@U_Unforced@std@@P8FrameProducer@video@libeYs3D@@EAA_NPEBUSensorDataSet@sensors@5@@ZPEAV345@AEBU?$_Ph@$00@2@@std@@_NPEBUSensorDataSet@sensors@libeYs3D@@@std@@EEAA_N$$QEAPEBUSensorDataSet@sensors@libeYs3D@@@Z
	?_Do_call@?$_Func_impl_no_alloc@V?$_Binder@U_Unforced@std@@P8FrameProducer@video@libeYs3D@@EAA_NPEBVFrame@45@@ZPEAV345@AEBU?$_Ph@$00@2@@std@@_NPEBVFrame@video@libeYs3D@@@std@@EEAA_N$$QEAPEBVFrame@video@libeYs3D@@@Z
	?_Do_call@?$_Func_impl_no_alloc@V?$_Binder@U_Unforced@std@@P8FrameSetPipeline@devices@libeYs3D@@EAA_NPEBVFrame@video@5@@ZPEAV345@AEBU?$_Ph@$00@2@@std@@_NPEBVFrame@video@libeYs3D@@@std@@EEAA_N$$QEAPEBVFrame@video@libeYs3D@@@Z
	?_Do_call@?$_Func_impl_no_alloc@V?$_Binder@U_Unforced@std@@P8FrameSetPipeline@devices@libeYs3D@@EAA_NPEBVPCFrame@video@5@@ZPEAV345@AEBU?$_Ph@$00@2@@std@@_NPEBVPCFrame@video@libeYs3D@@@std@@EEAA_N$$QEAPEBVPCFrame@video@libeYs3D@@@Z
	?_Do_call@?$_Func_impl_no_alloc@V?$_Binder@U_Unforced@std@@P8PCFrameProducer@video@libeYs3D@@EAA_NPEBVFrame@45@@ZPEAV345@AEBU?$_Ph@$00@2@@std@@_NPEBVFrame@video@libeYs3D@@@std@@EEAA_N$$QEAPEBVFrame@video@libeYs3D@@@Z
	?_Do_call@?$_Func_impl_no_alloc@V?$_Binder@U_Unforced@std@@P8Pipeline@devices@libeYs3D@@EAA_NPEBUSensorData@sensors@5@@ZPEAV345@AEBU?$_Ph@$00@2@@std@@_NPEBUSensorData@sensors@libeYs3D@@@std@@EEAA_N$$QEAPEBUSensorData@sensors@libeYs3D@@@Z
	?_Do_call@?$_Func_impl_no_alloc@V?$_Binder@U_Unforced@std@@P8Pipeline@devices@libeYs3D@@EAA_NPEBVFrame@video@5@@ZPEAV345@AEBU?$_Ph@$00@2@@std@@_NPEBVFrame@video@libeYs3D@@@std@@EEAA_N$$QEAPEBVFrame@video@libeYs3D@@@Z
	?_Do_call@?$_Func_impl_no_alloc@V?$_Binder@U_Unforced@std@@P8Pipeline@devices@libeYs3D@@EAA_NPEBVPCFrame@video@5@@ZPEAV345@AEBU?$_Ph@$00@2@@std@@_NPEBVPCFrame@video@libeYs3D@@@std@@EEAA_N$$QEAPEBVPCFrame@video@libeYs3D@@@Z
	?_Do_call@?$_Func_impl_no_alloc@V?$_Binder@U_Unforced@std@@P8SensorDataProducer@sensors@libeYs3D@@EAA_NPEBUSensorDataSet@45@@ZPEAV345@AEBU?$_Ph@$00@2@@std@@_NPEBUSensorDataSet@sensors@libeYs3D@@@std@@EEAA_N$$QEAPEBUSensorDataSet@sensors@libeYs3D@@@Z
	?_Endwrite@?$basic_filebuf@DU?$char_traits@D@std@@@std@@IEAA_NXZ
	?_Erase@?$_Tree@V?$_Tmap_traits@HHU?$less@H@std@@V?$allocator@U?$pair@$$CBHH@std@@@2@$0A@@std@@@std@@IEAAXPEAU?$_Tree_node@U?$pair@$$CBHH@std@@PEAX@2@@Z
	?_Erase@?$_Tree@V?$_Tmap_traits@HUPID_TABLE@ModeConfig@@U?$less@H@std@@V?$allocator@U?$pair@$$CBHUPID_TABLE@ModeConfig@@@std@@@4@$0A@@std@@@std@@IEAAXPEAU?$_Tree_node@U?$pair@$$CBHUPID_TABLE@ModeConfig@@@std@@PEAX@2@@Z
	?_Erase@?$_Tree@V?$_Tmap_traits@U?$pair@GG@std@@V?$vector@V?$basic_string@DU?$char_traits@D@std@@V?$allocator@D@2@@std@@V?$allocator@V?$basic_string@DU?$char_traits@D@std@@V?$allocator@D@2@@std@@@2@@2@U?$less@U?$pair@GG@std@@@2@V?$allocator@U?$pair@$$CBU?$pair@GG@std@@V?$vector@V?$basic_string@DU?$char_traits@D@std@@V?$allocator@D@2@@std@@V?$allocator@V?$basic_string@DU?$char_traits@D@std@@V?$allocator@D@2@@std@@@2@@2@@std@@@2@$0A@@std@@@std@@IEAAXPEAU?$_Tree_node@U?$pair@$$CBU?$pair@GG@std@@V?$vector@V?$basic_string@DU?$char_traits@D@std@@V?$allocator@D@2@@std@@V?$allocator@V?$basic_string@DU?$char_traits@D@std@@V?$allocator@D@2@@std@@@2@@2@@std@@PEAX@2@@Z
	?_Erase@?$_Tree@V?$_Tmap_traits@UDeviceSellectInfo@libeYs3D@@V?$shared_ptr@VCameraDevice@devices@libeYs3D@@@std@@U?$less@UDeviceSellectInfo@libeYs3D@@@4@V?$allocator@U?$pair@$$CBUDeviceSellectInfo@libeYs3D@@V?$shared_ptr@VCameraDevice@devices@libeYs3D@@@std@@@std@@@4@$0A@@std@@@std@@IEAAXPEAU?$_Tree_node@U?$pair@$$CBUDeviceSellectInfo@libeYs3D@@V?$shared_ptr@VCameraDevice@devices@libeYs3D@@@std@@@std@@PEAX@2@@Z
	?_Erase@?$_Tree@V?$_Tmap_traits@W4IMUPacketSymbol@IMUData@@_KU?$less@W4IMUPacketSymbol@IMUData@@@std@@V?$allocator@U?$pair@$$CBW4IMUPacketSymbol@IMUData@@_K@std@@@4@$0A@@std@@@std@@IEAAXPEAU?$_Tree_node@U?$pair@$$CBW4IMUPacketSymbol@IMUData@@_K@std@@PEAX@2@@Z
	?_Extract@?$_Tree_val@U?$_Tree_simple_types@U?$pair@$$CBHUPID_TABLE@ModeConfig@@@std@@@std@@@std@@QEAAPEAU?$_Tree_node@U?$pair@$$CBHUPID_TABLE@ModeConfig@@@std@@PEAX@2@V?$_Tree_const_iterator@V?$_Tree_val@U?$_Tree_simple_types@U?$pair@$$CBHUPID_TABLE@ModeConfig@@@std@@@std@@@std@@@2@@Z
	?_Extract@?$_Tree_val@U?$_Tree_simple_types@U?$pair@$$CBUDeviceSellectInfo@libeYs3D@@V?$shared_ptr@VCameraDevice@devices@libeYs3D@@@std@@@std@@@std@@@std@@QEAAPEAU?$_Tree_node@U?$pair@$$CBUDeviceSellectInfo@libeYs3D@@V?$shared_ptr@VCameraDevice@devices@libeYs3D@@@std@@@std@@PEAX@2@V?$_Tree_const_iterator@V?$_Tree_val@U?$_Tree_simple_types@U?$pair@$$CBUDeviceSellectInfo@libeYs3D@@V?$shared_ptr@VCameraDevice@devices@libeYs3D@@@std@@@std@@@std@@@std@@@2@@Z
	?_Freenode0@?$_Tree_comp_alloc@V?$_Tmap_traits@HHU?$less@H@std@@V?$allocator@U?$pair@$$CBHH@std@@@2@$0A@@std@@@std@@QEAAXPEAU?$_Tree_node@U?$pair@$$CBHH@std@@PEAX@2@@Z
	?_Freenode0@?$_Tree_comp_alloc@V?$_Tmap_traits@HUPID_TABLE@ModeConfig@@U?$less@H@std@@V?$allocator@U?$pair@$$CBHUPID_TABLE@ModeConfig@@@std@@@4@$0A@@std@@@std@@QEAAXPEAU?$_Tree_node@U?$pair@$$CBHUPID_TABLE@ModeConfig@@@std@@PEAX@2@@Z
	?_Freenode0@?$_Tree_comp_alloc@V?$_Tmap_traits@U?$pair@GG@std@@V?$vector@V?$basic_string@DU?$char_traits@D@std@@V?$allocator@D@2@@std@@V?$allocator@V?$basic_string@DU?$char_traits@D@std@@V?$allocator@D@2@@std@@@2@@2@U?$less@U?$pair@GG@std@@@2@V?$allocator@U?$pair@$$CBU?$pair@GG@std@@V?$vector@V?$basic_string@DU?$char_traits@D@std@@V?$allocator@D@2@@std@@V?$allocator@V?$basic_string@DU?$char_traits@D@std@@V?$allocator@D@2@@std@@@2@@2@@std@@@2@$0A@@std@@@std@@QEAAXPEAU?$_Tree_node@U?$pair@$$CBU?$pair@GG@std@@V?$vector@V?$basic_string@DU?$char_traits@D@std@@V?$allocator@D@2@@std@@V?$allocator@V?$basic_string@DU?$char_traits@D@std@@V?$allocator@D@2@@std@@@2@@2@@std@@PEAX@2@@Z
	?_Freenode0@?$_Tree_comp_alloc@V?$_Tmap_traits@UDeviceSellectInfo@libeYs3D@@V?$shared_ptr@VCameraDevice@devices@libeYs3D@@@std@@U?$less@UDeviceSellectInfo@libeYs3D@@@4@V?$allocator@U?$pair@$$CBUDeviceSellectInfo@libeYs3D@@V?$shared_ptr@VCameraDevice@devices@libeYs3D@@@std@@@std@@@4@$0A@@std@@@std@@QEAAXPEAU?$_Tree_node@U?$pair@$$CBUDeviceSellectInfo@libeYs3D@@V?$shared_ptr@VCameraDevice@devices@libeYs3D@@@std@@@std@@PEAX@2@@Z
	?_Freenode0@?$_Tree_comp_alloc@V?$_Tmap_traits@W4IMUPacketSymbol@IMUData@@_KU?$less@W4IMUPacketSymbol@IMUData@@@std@@V?$allocator@U?$pair@$$CBW4IMUPacketSymbol@IMUData@@_K@std@@@4@$0A@@std@@@std@@QEAAXPEAU?$_Tree_node@U?$pair@$$CBW4IMUPacketSymbol@IMUData@@_K@std@@PEAX@2@@Z
	?_Freenode@?$_List_buy@V?$vector@FV?$allocator@F@std@@@std@@V?$allocator@V?$vector@FV?$allocator@F@std@@@std@@@2@@std@@QEAAXPEAU?$_List_node@V?$vector@FV?$allocator@F@std@@@std@@PEAX@2@@Z
	?_Get@?$_Func_impl_no_alloc@P6A_NPEBVFrame@video@libeYs3D@@@Z_NPEBV123@@std@@EEBAPEBXXZ
	?_Get@?$_Func_impl_no_alloc@P6A_NPEBVPCFrame@video@libeYs3D@@@Z_NPEBV123@@std@@EEBAPEBXXZ
	?_Get@?$_Func_impl_no_alloc@V<lambda_488c629a0a7c1ecc954ac8047e960599>@@_J$$V@std@@EEBAPEBXXZ
	?_Get@?$_Func_impl_no_alloc@V<lambda_4cde73e63763cb313bd212247f8ddbb0>@@W4WorkerProcessingResult@base@libeYs3D@@$$QEAV?$Optional@VDACalculateWorkItem@video@libeYs3D@@@34@@std@@EEBAPEBXXZ
	?_Get@?$_Func_impl_no_alloc@V<lambda_530843cc44829e3530ea01af34e42038>@@W4WorkerProcessingResult@base@libeYs3D@@$$QEAV?$Optional@VCallbackWorkItem@sensors@libeYs3D@@@34@@std@@EEBAPEBXXZ
	?_Get@?$_Func_impl_no_alloc@V<lambda_69d578ede27bd906c7e1bc689c004001>@@_J$$V@std@@EEBAPEBXXZ
	?_Get@?$_Func_impl_no_alloc@V<lambda_9f92d7825455e143dbf3293131d714f3>@@W4WorkerProcessingResult@base@libeYs3D@@$$QEAV?$Optional@VCallbackWorkItem@video@libeYs3D@@@34@@std@@EEBAPEBXXZ
	?_Get@?$_Func_impl_no_alloc@V<lambda_fd68a9891d2d9d887c20652be0ece82a>@@_J$$V@std@@EEBAPEBXXZ
	?_Get@?$_Func_impl_no_alloc@V?$_Binder@U_Unforced@std@@P8DepthFrameProducer@video@libeYs3D@@EAAXPEAVFrame@45@@ZPEAV345@AEBU?$_Ph@$00@2@@std@@XPEAVFrame@video@libeYs3D@@@std@@EEBAPEBXXZ
	?_Get@?$_Func_impl_no_alloc@V?$_Binder@U_Unforced@std@@P8FrameProducer@video@libeYs3D@@EAA_NPEBUSensorDataSet@sensors@5@@ZPEAV345@AEBU?$_Ph@$00@2@@std@@_NPEBUSensorDataSet@sensors@libeYs3D@@@std@@EEBAPEBXXZ
	?_Get@?$_Func_impl_no_alloc@V?$_Binder@U_Unforced@std@@P8FrameProducer@video@libeYs3D@@EAA_NPEBVFrame@45@@ZPEAV345@AEBU?$_Ph@$00@2@@std@@_NPEBVFrame@video@libeYs3D@@@std@@EEBAPEBXXZ
	?_Get@?$_Func_impl_no_alloc@V?$_Binder@U_Unforced@std@@P8FrameSetPipeline@devices@libeYs3D@@EAA_NPEBVFrame@video@5@@ZPEAV345@AEBU?$_Ph@$00@2@@std@@_NPEBVFrame@video@libeYs3D@@@std@@EEBAPEBXXZ
	?_Get@?$_Func_impl_no_alloc@V?$_Binder@U_Unforced@std@@P8FrameSetPipeline@devices@libeYs3D@@EAA_NPEBVPCFrame@video@5@@ZPEAV345@AEBU?$_Ph@$00@2@@std@@_NPEBVPCFrame@video@libeYs3D@@@std@@EEBAPEBXXZ
	?_Get@?$_Func_impl_no_alloc@V?$_Binder@U_Unforced@std@@P8PCFrameProducer@video@libeYs3D@@EAA_NPEBVFrame@45@@ZPEAV345@AEBU?$_Ph@$00@2@@std@@_NPEBVFrame@video@libeYs3D@@@std@@EEBAPEBXXZ
	?_Get@?$_Func_impl_no_alloc@V?$_Binder@U_Unforced@std@@P8Pipeline@devices@libeYs3D@@EAA_NPEBUSensorData@sensors@5@@ZPEAV345@AEBU?$_Ph@$00@2@@std@@_NPEBUSensorData@sensors@libeYs3D@@@std@@EEBAPEBXXZ
	?_Get@?$_Func_impl_no_alloc@V?$_Binder@U_Unforced@std@@P8Pipeline@devices@libeYs3D@@EAA_NPEBVFrame@video@5@@ZPEAV345@AEBU?$_Ph@$00@2@@std@@_NPEBVFrame@video@libeYs3D@@@std@@EEBAPEBXXZ
	?_Get@?$_Func_impl_no_alloc@V?$_Binder@U_Unforced@std@@P8Pipeline@devices@libeYs3D@@EAA_NPEBVPCFrame@video@5@@ZPEAV345@AEBU?$_Ph@$00@2@@std@@_NPEBVPCFrame@video@libeYs3D@@@std@@EEBAPEBXXZ
	?_Get@?$_Func_impl_no_alloc@V?$_Binder@U_Unforced@std@@P8SensorDataProducer@sensors@libeYs3D@@EAA_NPEBUSensorDataSet@45@@ZPEAV345@AEBU?$_Ph@$00@2@@std@@_NPEBUSensorDataSet@sensors@libeYs3D@@@std@@EEBAPEBXXZ
	?_Get_deleter@_Ref_count_base@std@@UEBAPEAXAEBVtype_info@@@Z
	?_Getal@?$_Vector_alloc@U?$_Vec_base_types@EV?$allocator@E@std@@@std@@@std@@QEAAAEAV?$allocator@E@2@XZ
	?_Getal@?$_Vector_alloc@U?$_Vec_base_types@FV?$allocator@F@std@@@std@@@std@@QEAAAEAV?$allocator@F@2@XZ
	?_Getal@?$_Vector_alloc@U?$_Vec_base_types@GV?$allocator@G@std@@@std@@@std@@QEAAAEAV?$allocator@G@2@XZ
	?_Getal@?$_Vector_alloc@U?$_Vec_base_types@MV?$allocator@M@std@@@std@@@std@@QEAAAEAV?$allocator@M@2@XZ
	?_Getal@?$_Vector_alloc@U?$_Vec_base_types@UCommand@?$WorkerThread@V?$Optional@VCallbackWorkItem@sensors@libeYs3D@@@base@libeYs3D@@@base@libeYs3D@@V?$allocator@UCommand@?$WorkerThread@V?$Optional@VCallbackWorkItem@sensors@libeYs3D@@@base@libeYs3D@@@base@libeYs3D@@@std@@@std@@@std@@QEAAAEAV?$allocator@UCommand@?$WorkerThread@V?$Optional@VCallbackWorkItem@sensors@libeYs3D@@@base@libeYs3D@@@base@libeYs3D@@@2@XZ
	?_Getal@?$_Vector_alloc@U?$_Vec_base_types@UCommand@?$WorkerThread@V?$Optional@VCallbackWorkItem@video@libeYs3D@@@base@libeYs3D@@@base@libeYs3D@@V?$allocator@UCommand@?$WorkerThread@V?$Optional@VCallbackWorkItem@video@libeYs3D@@@base@libeYs3D@@@base@libeYs3D@@@std@@@std@@@std@@QEAAAEAV?$allocator@UCommand@?$WorkerThread@V?$Optional@VCallbackWorkItem@video@libeYs3D@@@base@libeYs3D@@@base@libeYs3D@@@2@XZ
	?_Getal@?$_Vector_alloc@U?$_Vec_base_types@UCommand@?$WorkerThread@V?$Optional@VDACalculateWorkItem@video@libeYs3D@@@base@libeYs3D@@@base@libeYs3D@@V?$allocator@UCommand@?$WorkerThread@V?$Optional@VDACalculateWorkItem@video@libeYs3D@@@base@libeYs3D@@@base@libeYs3D@@@std@@@std@@@std@@QEAAAEAV?$allocator@UCommand@?$WorkerThread@V?$Optional@VDACalculateWorkItem@video@libeYs3D@@@base@libeYs3D@@@base@libeYs3D@@@2@XZ
	?_Getal@?$_Vector_alloc@U?$_Vec_base_types@USensorData@sensors@libeYs3D@@V?$allocator@USensorData@sensors@libeYs3D@@@std@@@std@@@std@@QEAAAEAV?$allocator@USensorData@sensors@libeYs3D@@@2@XZ
	?_Getal@?$_Vector_alloc@U?$_Vec_base_types@UtagAPC_STREAM_INFO@@V?$allocator@UtagAPC_STREAM_INFO@@@std@@@std@@@std@@QEAAAEAV?$allocator@UtagAPC_STREAM_INFO@@@2@XZ
	?_Init@?$basic_filebuf@DU?$char_traits@D@std@@@std@@IEAAXPEAU_iobuf@@W4_Initfl@12@@Z
	?_Lock@?$basic_filebuf@DU?$char_traits@D@std@@@std@@UEAAXXZ
	?_Lrotate@?$_Tree_val@U?$_Tree_simple_types@U?$pair@$$CBHUPID_TABLE@ModeConfig@@@std@@@std@@@std@@QEAAXPEAU?$_Tree_node@U?$pair@$$CBHUPID_TABLE@ModeConfig@@@std@@PEAX@2@@Z
	?_Lrotate@?$_Tree_val@U?$_Tree_simple_types@U?$pair@$$CBUDeviceSellectInfo@libeYs3D@@V?$shared_ptr@VCameraDevice@devices@libeYs3D@@@std@@@std@@@std@@@std@@QEAAXPEAU?$_Tree_node@U?$pair@$$CBUDeviceSellectInfo@libeYs3D@@V?$shared_ptr@VCameraDevice@devices@libeYs3D@@@std@@@std@@PEAX@2@@Z
	?_Move@?$_Func_impl_no_alloc@P6A_NPEBVFrame@video@libeYs3D@@@Z_NPEBV123@@std@@EEAAPEAV?$_Func_base@_NPEBVFrame@video@libeYs3D@@@2@PEAX@Z
	?_Move@?$_Func_impl_no_alloc@P6A_NPEBVPCFrame@video@libeYs3D@@@Z_NPEBV123@@std@@EEAAPEAV?$_Func_base@_NPEBVPCFrame@video@libeYs3D@@@2@PEAX@Z
	?_Move@?$_Func_impl_no_alloc@V<lambda_488c629a0a7c1ecc954ac8047e960599>@@_J$$V@std@@EEAAPEAV?$_Func_base@_J$$V@2@PEAX@Z
	?_Move@?$_Func_impl_no_alloc@V<lambda_4cde73e63763cb313bd212247f8ddbb0>@@W4WorkerProcessingResult@base@libeYs3D@@$$QEAV?$Optional@VDACalculateWorkItem@video@libeYs3D@@@34@@std@@EEAAPEAV?$_Func_base@W4WorkerProcessingResult@base@libeYs3D@@$$QEAV?$Optional@VDACalculateWorkItem@video@libeYs3D@@@23@@2@PEAX@Z
	?_Move@?$_Func_impl_no_alloc@V<lambda_530843cc44829e3530ea01af34e42038>@@W4WorkerProcessingResult@base@libeYs3D@@$$QEAV?$Optional@VCallbackWorkItem@sensors@libeYs3D@@@34@@std@@EEAAPEAV?$_Func_base@W4WorkerProcessingResult@base@libeYs3D@@$$QEAV?$Optional@VCallbackWorkItem@sensors@libeYs3D@@@23@@2@PEAX@Z
	?_Move@?$_Func_impl_no_alloc@V<lambda_69d578ede27bd906c7e1bc689c004001>@@_J$$V@std@@EEAAPEAV?$_Func_base@_J$$V@2@PEAX@Z
	?_Move@?$_Func_impl_no_alloc@V<lambda_9f92d7825455e143dbf3293131d714f3>@@W4WorkerProcessingResult@base@libeYs3D@@$$QEAV?$Optional@VCallbackWorkItem@video@libeYs3D@@@34@@std@@EEAAPEAV?$_Func_base@W4WorkerProcessingResult@base@libeYs3D@@$$QEAV?$Optional@VCallbackWorkItem@video@libeYs3D@@@23@@2@PEAX@Z
	?_Move@?$_Func_impl_no_alloc@V<lambda_fd68a9891d2d9d887c20652be0ece82a>@@_J$$V@std@@EEAAPEAV?$_Func_base@_J$$V@2@PEAX@Z
	?_Move@?$_Func_impl_no_alloc@V?$_Binder@U_Unforced@std@@P8DepthFrameProducer@video@libeYs3D@@EAAXPEAVFrame@45@@ZPEAV345@AEBU?$_Ph@$00@2@@std@@XPEAVFrame@video@libeYs3D@@@std@@EEAAPEAV?$_Func_base@XPEAVFrame@video@libeYs3D@@@2@PEAX@Z
	?_Move@?$_Func_impl_no_alloc@V?$_Binder@U_Unforced@std@@P8FrameProducer@video@libeYs3D@@EAA_NPEBUSensorDataSet@sensors@5@@ZPEAV345@AEBU?$_Ph@$00@2@@std@@_NPEBUSensorDataSet@sensors@libeYs3D@@@std@@EEAAPEAV?$_Func_base@_NPEBUSensorDataSet@sensors@libeYs3D@@@2@PEAX@Z
	?_Move@?$_Func_impl_no_alloc@V?$_Binder@U_Unforced@std@@P8FrameProducer@video@libeYs3D@@EAA_NPEBVFrame@45@@ZPEAV345@AEBU?$_Ph@$00@2@@std@@_NPEBVFrame@video@libeYs3D@@@std@@EEAAPEAV?$_Func_base@_NPEBVFrame@video@libeYs3D@@@2@PEAX@Z
	?_Move@?$_Func_impl_no_alloc@V?$_Binder@U_Unforced@std@@P8FrameSetPipeline@devices@libeYs3D@@EAA_NPEBVFrame@video@5@@ZPEAV345@AEBU?$_Ph@$00@2@@std@@_NPEBVFrame@video@libeYs3D@@@std@@EEAAPEAV?$_Func_base@_NPEBVFrame@video@libeYs3D@@@2@PEAX@Z
	?_Move@?$_Func_impl_no_alloc@V?$_Binder@U_Unforced@std@@P8FrameSetPipeline@devices@libeYs3D@@EAA_NPEBVPCFrame@video@5@@ZPEAV345@AEBU?$_Ph@$00@2@@std@@_NPEBVPCFrame@video@libeYs3D@@@std@@EEAAPEAV?$_Func_base@_NPEBVPCFrame@video@libeYs3D@@@2@PEAX@Z
	?_Move@?$_Func_impl_no_alloc@V?$_Binder@U_Unforced@std@@P8PCFrameProducer@video@libeYs3D@@EAA_NPEBVFrame@45@@ZPEAV345@AEBU?$_Ph@$00@2@@std@@_NPEBVFrame@video@libeYs3D@@@std@@EEAAPEAV?$_Func_base@_NPEBVFrame@video@libeYs3D@@@2@PEAX@Z
	?_Move@?$_Func_impl_no_alloc@V?$_Binder@U_Unforced@std@@P8Pipeline@devices@libeYs3D@@EAA_NPEBUSensorData@sensors@5@@ZPEAV345@AEBU?$_Ph@$00@2@@std@@_NPEBUSensorData@sensors@libeYs3D@@@std@@EEAAPEAV?$_Func_base@_NPEBUSensorData@sensors@libeYs3D@@@2@PEAX@Z
	?_Move@?$_Func_impl_no_alloc@V?$_Binder@U_Unforced@std@@P8Pipeline@devices@libeYs3D@@EAA_NPEBVFrame@video@5@@ZPEAV345@AEBU?$_Ph@$00@2@@std@@_NPEBVFrame@video@libeYs3D@@@std@@EEAAPEAV?$_Func_base@_NPEBVFrame@video@libeYs3D@@@2@PEAX@Z
	?_Move@?$_Func_impl_no_alloc@V?$_Binder@U_Unforced@std@@P8Pipeline@devices@libeYs3D@@EAA_NPEBVPCFrame@video@5@@ZPEAV345@AEBU?$_Ph@$00@2@@std@@_NPEBVPCFrame@video@libeYs3D@@@std@@EEAAPEAV?$_Func_base@_NPEBVPCFrame@video@libeYs3D@@@2@PEAX@Z
	?_Move@?$_Func_impl_no_alloc@V?$_Binder@U_Unforced@std@@P8SensorDataProducer@sensors@libeYs3D@@EAA_NPEBUSensorDataSet@45@@ZPEAV345@AEBU?$_Ph@$00@2@@std@@_NPEBUSensorDataSet@sensors@libeYs3D@@@std@@EEAAPEAV?$_Func_base@_NPEBUSensorDataSet@sensors@libeYs3D@@@2@PEAX@Z
	?_Mylast@?$_Vector_alloc@U?$_Vec_base_types@EV?$allocator@E@std@@@std@@@std@@QEAAAEAPEAEXZ
	?_Reallocate_exactly@?$vector@UCommand@?$WorkerThread@V?$Optional@VCallbackWorkItem@sensors@libeYs3D@@@base@libeYs3D@@@base@libeYs3D@@V?$allocator@UCommand@?$WorkerThread@V?$Optional@VCallbackWorkItem@sensors@libeYs3D@@@base@libeYs3D@@@base@libeYs3D@@@std@@@std@@AEAAX_K@Z
	?_Reallocate_exactly@?$vector@UCommand@?$WorkerThread@V?$Optional@VCallbackWorkItem@video@libeYs3D@@@base@libeYs3D@@@base@libeYs3D@@V?$allocator@UCommand@?$WorkerThread@V?$Optional@VCallbackWorkItem@video@libeYs3D@@@base@libeYs3D@@@base@libeYs3D@@@std@@@std@@AEAAX_K@Z
	?_Reallocate_exactly@?$vector@UCommand@?$WorkerThread@V?$Optional@VDACalculateWorkItem@video@libeYs3D@@@base@libeYs3D@@@base@libeYs3D@@V?$allocator@UCommand@?$WorkerThread@V?$Optional@VDACalculateWorkItem@video@libeYs3D@@@base@libeYs3D@@@base@libeYs3D@@@std@@@std@@AEAAX_K@Z
	?_Reallocate_exactly@?$vector@UtagAPC_STREAM_INFO@@V?$allocator@UtagAPC_STREAM_INFO@@@std@@@std@@AEAAX_K@Z
	?_Reset_back@?$basic_filebuf@DU?$char_traits@D@std@@@std@@AEAAXXZ
	?_Reset_move@?$_Func_class@XPEAVFrame@video@libeYs3D@@@std@@IEAAX$$QEAV12@@Z
	?_Reset_move@?$_Func_class@_NPEBUSensorData@sensors@libeYs3D@@@std@@IEAAX$$QEAV12@@Z
	?_Reset_move@?$_Func_class@_NPEBUSensorDataSet@sensors@libeYs3D@@@std@@IEAAX$$QEAV12@@Z
	?_Reset_move@?$_Func_class@_NPEBVFrame@video@libeYs3D@@@std@@IEAAX$$QEAV12@@Z
	?_Reset_move@?$_Func_class@_NPEBVPCFrame@video@libeYs3D@@@std@@IEAAX$$QEAV12@@Z
	?_Rrotate@?$_Tree_val@U?$_Tree_simple_types@U?$pair@$$CBHH@std@@@std@@@std@@QEAAXPEAU?$_Tree_node@U?$pair@$$CBHH@std@@PEAX@2@@Z
	?_Rrotate@?$_Tree_val@U?$_Tree_simple_types@U?$pair@$$CBHUPID_TABLE@ModeConfig@@@std@@@std@@@std@@QEAAXPEAU?$_Tree_node@U?$pair@$$CBHUPID_TABLE@ModeConfig@@@std@@PEAX@2@@Z
	?_Rrotate@?$_Tree_val@U?$_Tree_simple_types@U?$pair@$$CBU?$pair@GG@std@@V?$vector@V?$basic_string@DU?$char_traits@D@std@@V?$allocator@D@2@@std@@V?$allocator@V?$basic_string@DU?$char_traits@D@std@@V?$allocator@D@2@@std@@@2@@2@@std@@@std@@@std@@QEAAXPEAU?$_Tree_node@U?$pair@$$CBU?$pair@GG@std@@V?$vector@V?$basic_string@DU?$char_traits@D@std@@V?$allocator@D@2@@std@@V?$allocator@V?$basic_string@DU?$char_traits@D@std@@V?$allocator@D@2@@std@@@2@@2@@std@@PEAX@2@@Z
	?_Rrotate@?$_Tree_val@U?$_Tree_simple_types@U?$pair@$$CBUDeviceSellectInfo@libeYs3D@@V?$shared_ptr@VCameraDevice@devices@libeYs3D@@@std@@@std@@@std@@@std@@QEAAXPEAU?$_Tree_node@U?$pair@$$CBUDeviceSellectInfo@libeYs3D@@V?$shared_ptr@VCameraDevice@devices@libeYs3D@@@std@@@std@@PEAX@2@@Z
	?_Rrotate@?$_Tree_val@U?$_Tree_simple_types@U?$pair@$$CBW4IMUPacketSymbol@IMUData@@_K@std@@@std@@@std@@QEAAXPEAU?$_Tree_node@U?$pair@$$CBW4IMUPacketSymbol@IMUData@@_K@std@@PEAX@2@@Z
	?_Target_type@?$_Func_impl_no_alloc@P6A_NPEBVFrame@video@libeYs3D@@@Z_NPEBV123@@std@@EEBAAEBVtype_info@@XZ
	?_Target_type@?$_Func_impl_no_alloc@P6A_NPEBVPCFrame@video@libeYs3D@@@Z_NPEBV123@@std@@EEBAAEBVtype_info@@XZ
	?_Target_type@?$_Func_impl_no_alloc@V<lambda_488c629a0a7c1ecc954ac8047e960599>@@_J$$V@std@@EEBAAEBVtype_info@@XZ
	?_Target_type@?$_Func_impl_no_alloc@V<lambda_4cde73e63763cb313bd212247f8ddbb0>@@W4WorkerProcessingResult@base@libeYs3D@@$$QEAV?$Optional@VDACalculateWorkItem@video@libeYs3D@@@34@@std@@EEBAAEBVtype_info@@XZ
	?_Target_type@?$_Func_impl_no_alloc@V<lambda_530843cc44829e3530ea01af34e42038>@@W4WorkerProcessingResult@base@libeYs3D@@$$QEAV?$Optional@VCallbackWorkItem@sensors@libeYs3D@@@34@@std@@EEBAAEBVtype_info@@XZ
	?_Target_type@?$_Func_impl_no_alloc@V<lambda_69d578ede27bd906c7e1bc689c004001>@@_J$$V@std@@EEBAAEBVtype_info@@XZ
	?_Target_type@?$_Func_impl_no_alloc@V<lambda_9f92d7825455e143dbf3293131d714f3>@@W4WorkerProcessingResult@base@libeYs3D@@$$QEAV?$Optional@VCallbackWorkItem@video@libeYs3D@@@34@@std@@EEBAAEBVtype_info@@XZ
	?_Target_type@?$_Func_impl_no_alloc@V<lambda_fd68a9891d2d9d887c20652be0ece82a>@@_J$$V@std@@EEBAAEBVtype_info@@XZ
	?_Target_type@?$_Func_impl_no_alloc@V?$_Binder@U_Unforced@std@@P8DepthFrameProducer@video@libeYs3D@@EAAXPEAVFrame@45@@ZPEAV345@AEBU?$_Ph@$00@2@@std@@XPEAVFrame@video@libeYs3D@@@std@@EEBAAEBVtype_info@@XZ
	?_Target_type@?$_Func_impl_no_alloc@V?$_Binder@U_Unforced@std@@P8FrameProducer@video@libeYs3D@@EAA_NPEBUSensorDataSet@sensors@5@@ZPEAV345@AEBU?$_Ph@$00@2@@std@@_NPEBUSensorDataSet@sensors@libeYs3D@@@std@@EEBAAEBVtype_info@@XZ
	?_Target_type@?$_Func_impl_no_alloc@V?$_Binder@U_Unforced@std@@P8FrameProducer@video@libeYs3D@@EAA_NPEBVFrame@45@@ZPEAV345@AEBU?$_Ph@$00@2@@std@@_NPEBVFrame@video@libeYs3D@@@std@@EEBAAEBVtype_info@@XZ
	?_Target_type@?$_Func_impl_no_alloc@V?$_Binder@U_Unforced@std@@P8FrameSetPipeline@devices@libeYs3D@@EAA_NPEBVFrame@video@5@@ZPEAV345@AEBU?$_Ph@$00@2@@std@@_NPEBVFrame@video@libeYs3D@@@std@@EEBAAEBVtype_info@@XZ
	?_Target_type@?$_Func_impl_no_alloc@V?$_Binder@U_Unforced@std@@P8FrameSetPipeline@devices@libeYs3D@@EAA_NPEBVPCFrame@video@5@@ZPEAV345@AEBU?$_Ph@$00@2@@std@@_NPEBVPCFrame@video@libeYs3D@@@std@@EEBAAEBVtype_info@@XZ
	?_Target_type@?$_Func_impl_no_alloc@V?$_Binder@U_Unforced@std@@P8PCFrameProducer@video@libeYs3D@@EAA_NPEBVFrame@45@@ZPEAV345@AEBU?$_Ph@$00@2@@std@@_NPEBVFrame@video@libeYs3D@@@std@@EEBAAEBVtype_info@@XZ
	?_Target_type@?$_Func_impl_no_alloc@V?$_Binder@U_Unforced@std@@P8Pipeline@devices@libeYs3D@@EAA_NPEBUSensorData@sensors@5@@ZPEAV345@AEBU?$_Ph@$00@2@@std@@_NPEBUSensorData@sensors@libeYs3D@@@std@@EEBAAEBVtype_info@@XZ
	?_Target_type@?$_Func_impl_no_alloc@V?$_Binder@U_Unforced@std@@P8Pipeline@devices@libeYs3D@@EAA_NPEBVFrame@video@5@@ZPEAV345@AEBU?$_Ph@$00@2@@std@@_NPEBVFrame@video@libeYs3D@@@std@@EEBAAEBVtype_info@@XZ
	?_Target_type@?$_Func_impl_no_alloc@V?$_Binder@U_Unforced@std@@P8Pipeline@devices@libeYs3D@@EAA_NPEBVPCFrame@video@5@@ZPEAV345@AEBU?$_Ph@$00@2@@std@@_NPEBVPCFrame@video@libeYs3D@@@std@@EEBAAEBVtype_info@@XZ
	?_Target_type@?$_Func_impl_no_alloc@V?$_Binder@U_Unforced@std@@P8SensorDataProducer@sensors@libeYs3D@@EAA_NPEBUSensorDataSet@45@@ZPEAV345@AEBU?$_Ph@$00@2@@std@@_NPEBUSensorDataSet@sensors@libeYs3D@@@std@@EEBAAEBVtype_info@@XZ
	?_Tidy@?$_Func_class@_NPEBVPCFrame@video@libeYs3D@@@std@@IEAAXXZ
	?_Tidy@?$basic_stringbuf@DU?$char_traits@D@std@@V?$allocator@D@2@@std@@IEAAXXZ
	?_Tidy@?$vector@EV?$allocator@E@std@@@std@@AEAAXXZ
	?_Tidy@?$vector@GV?$allocator@G@std@@@std@@AEAAXXZ
	?_Tidy@?$vector@HV?$allocator@H@std@@@std@@AEAAXXZ
	?_Tidy@?$vector@MV?$allocator@M@std@@@std@@AEAAXXZ
	?_Tidy@?$vector@UMODE_CONFIG@ModeConfig@@V?$allocator@UMODE_CONFIG@ModeConfig@@@std@@@std@@AEAAXXZ
	?_Tidy@?$vector@USensorData@sensors@libeYs3D@@V?$allocator@USensorData@sensors@libeYs3D@@@std@@@std@@AEAAXXZ
	?_Tidy@?$vector@UtagAPC_STREAM_INFO@@V?$allocator@UtagAPC_STREAM_INFO@@@std@@@std@@AEAAXXZ
	?_Tidy@?$vector@V?$Optional@V?$WorkerThread@V?$Optional@VCallbackWorkItem@sensors@libeYs3D@@@base@libeYs3D@@@base@libeYs3D@@@base@libeYs3D@@V?$allocator@V?$Optional@V?$WorkerThread@V?$Optional@VCallbackWorkItem@sensors@libeYs3D@@@base@libeYs3D@@@base@libeYs3D@@@base@libeYs3D@@@std@@@std@@AEAAXXZ
	?_Tidy@?$vector@V?$Optional@V?$WorkerThread@V?$Optional@VCallbackWorkItem@video@libeYs3D@@@base@libeYs3D@@@base@libeYs3D@@@base@libeYs3D@@V?$allocator@V?$Optional@V?$WorkerThread@V?$Optional@VCallbackWorkItem@video@libeYs3D@@@base@libeYs3D@@@base@libeYs3D@@@base@libeYs3D@@@std@@@std@@AEAAXXZ
	?_Tidy@?$vector@V?$Optional@V?$WorkerThread@V?$Optional@VDACalculateWorkItem@video@libeYs3D@@@base@libeYs3D@@@base@libeYs3D@@@base@libeYs3D@@V?$allocator@V?$Optional@V?$WorkerThread@V?$Optional@VDACalculateWorkItem@video@libeYs3D@@@base@libeYs3D@@@base@libeYs3D@@@base@libeYs3D@@@std@@@std@@AEAAXXZ
	?_Tidy@?$vector@V?$basic_string@DU?$char_traits@D@std@@V?$allocator@D@2@@std@@V?$allocator@V?$basic_string@DU?$char_traits@D@std@@V?$allocator@D@2@@std@@@2@@std@@AEAAXXZ
	?_Tidy@?$vector@W4IMU_DATA_FORMAT@IMUDevice@devices@libeYs3D@@V?$allocator@W4IMU_DATA_FORMAT@IMUDevice@devices@libeYs3D@@@std@@@std@@AEAAXXZ
	?_Tidy_deallocate@?$basic_string@DU?$char_traits@D@std@@V?$allocator@D@2@@std@@QEAAXXZ
	?_Udefault@?$vector@USensorData@sensors@libeYs3D@@V?$allocator@USensorData@sensors@libeYs3D@@@std@@@std@@AEAAPEAUSensorData@sensors@libeYs3D@@PEAU345@_K@Z
	?_Umove@?$vector@EV?$allocator@E@std@@@std@@AEAAPEAEPEAE00@Z
	?_Umove@?$vector@UMODE_CONFIG@ModeConfig@@V?$allocator@UMODE_CONFIG@ModeConfig@@@std@@@std@@AEAAPEAUMODE_CONFIG@ModeConfig@@PEAU34@00@Z
	?_Unlock@?$basic_filebuf@DU?$char_traits@D@std@@@std@@UEAAXXZ
	?_Xlen@?$basic_string@DU?$char_traits@D@std@@V?$allocator@D@2@@std@@SAXXZ
	?_Xlength@?$vector@EV?$allocator@E@std@@@std@@CAXXZ
	?_Xlength@?$vector@FV?$allocator@F@std@@@std@@CAXXZ
	?_Xlength@?$vector@GV?$allocator@G@std@@@std@@CAXXZ
	?_Xlength@?$vector@HV?$allocator@H@std@@@std@@CAXXZ
	?_Xlength@?$vector@MV?$allocator@M@std@@@std@@CAXXZ
	?_Xlength@?$vector@UCloudPoint@@V?$allocator@UCloudPoint@@@std@@@std@@CAXXZ
	?_Xlength@?$vector@UCommand@?$WorkerThread@V?$Optional@VCallbackWorkItem@sensors@libeYs3D@@@base@libeYs3D@@@base@libeYs3D@@V?$allocator@UCommand@?$WorkerThread@V?$Optional@VCallbackWorkItem@sensors@libeYs3D@@@base@libeYs3D@@@base@libeYs3D@@@std@@@std@@CAXXZ
	?_Xlength@?$vector@UCommand@?$WorkerThread@V?$Optional@VCallbackWorkItem@video@libeYs3D@@@base@libeYs3D@@@base@libeYs3D@@V?$allocator@UCommand@?$WorkerThread@V?$Optional@VCallbackWorkItem@video@libeYs3D@@@base@libeYs3D@@@base@libeYs3D@@@std@@@std@@CAXXZ
	?_Xlength@?$vector@UCommand@?$WorkerThread@V?$Optional@VDACalculateWorkItem@video@libeYs3D@@@base@libeYs3D@@@base@libeYs3D@@V?$allocator@UCommand@?$WorkerThread@V?$Optional@VDACalculateWorkItem@video@libeYs3D@@@base@libeYs3D@@@base@libeYs3D@@@std@@@std@@CAXXZ
	?_Xlength@?$vector@UMODE_CONFIG@ModeConfig@@V?$allocator@UMODE_CONFIG@ModeConfig@@@std@@@std@@CAXXZ
	?_Xlength@?$vector@USensorData@sensors@libeYs3D@@V?$allocator@USensorData@sensors@libeYs3D@@@std@@@std@@CAXXZ
	?_Xlength@?$vector@UtagAPC_STREAM_INFO@@V?$allocator@UtagAPC_STREAM_INFO@@@std@@@std@@CAXXZ
	?_Xlength@?$vector@V?$Optional@V?$WorkerThread@V?$Optional@VCallbackWorkItem@sensors@libeYs3D@@@base@libeYs3D@@@base@libeYs3D@@@base@libeYs3D@@V?$allocator@V?$Optional@V?$WorkerThread@V?$Optional@VCallbackWorkItem@sensors@libeYs3D@@@base@libeYs3D@@@base@libeYs3D@@@base@libeYs3D@@@std@@@std@@CAXXZ
	?_Xlength@?$vector@V?$Optional@V?$WorkerThread@V?$Optional@VCallbackWorkItem@video@libeYs3D@@@base@libeYs3D@@@base@libeYs3D@@@base@libeYs3D@@V?$allocator@V?$Optional@V?$WorkerThread@V?$Optional@VCallbackWorkItem@video@libeYs3D@@@base@libeYs3D@@@base@libeYs3D@@@base@libeYs3D@@@std@@@std@@CAXXZ
	?_Xlength@?$vector@V?$Optional@V?$WorkerThread@V?$Optional@VDACalculateWorkItem@video@libeYs3D@@@base@libeYs3D@@@base@libeYs3D@@@base@libeYs3D@@V?$allocator@V?$Optional@V?$WorkerThread@V?$Optional@VDACalculateWorkItem@video@libeYs3D@@@base@libeYs3D@@@base@libeYs3D@@@base@libeYs3D@@@std@@@std@@CAXXZ
	?_Xlength@?$vector@V?$basic_string@DU?$char_traits@D@std@@V?$allocator@D@2@@std@@V?$allocator@V?$basic_string@DU?$char_traits@D@std@@V?$allocator@D@2@@std@@@2@@std@@CAXXZ
	?_Xlength@?$vector@W4IMU_DATA_FORMAT@IMUDevice@devices@libeYs3D@@V?$allocator@W4IMU_DATA_FORMAT@IMUDevice@devices@libeYs3D@@@std@@@std@@CAXXZ
	?_Xrange@?$vector@HV?$allocator@H@std@@@std@@CAXXZ
	?__enableColorStream@CameraDevice@devices@libeYs3D@@IEAAXXZ
	?__enableDepthStream@CameraDevice@devices@libeYs3D@@IEAAXXZ
	?__enableIMUStream@CameraDevice@devices@libeYs3D@@IEAAXXZ
	?__enablePCStream@CameraDevice@devices@libeYs3D@@IEAAXXZ
	?__pauseColorStream@CameraDevice@devices@libeYs3D@@IEAAXXZ
	?__pauseDepthStream@CameraDevice@devices@libeYs3D@@IEAAXXZ
	?__pauseIMUStream@CameraDevice@devices@libeYs3D@@IEAAXXZ
	?__pausePCStream@CameraDevice@devices@libeYs3D@@IEAAXXZ
	?addClone@SensorDataSet@sensors@libeYs3D@@QEAAXPEBU123@@Z
	?addClone@SensorDataSet@sensors@libeYs3D@@QEAAXPEBUSensorData@23@@Z
	?adjustDepthInvalidBandPixel@CameraDevice@devices@libeYs3D@@MEAAXXZ
	?adjustRegisters@CameraDevice8053@devices@libeYs3D@@UEAAHXZ
	?adjustRegisters@CameraDevice@devices@libeYs3D@@UEAAHXZ
	?afterRead@MessageChannelBase@base@libeYs3D@@IEAAX_N@Z
	?afterWrite@MessageChannelBase@base@libeYs3D@@IEAAX_N@Z
	?allocate@?$allocator@D@std@@QEAAPEAD_K@Z
	?allocate@?$allocator@E@std@@QEAAPEAE_K@Z
	?allocate@?$allocator@G@std@@QEAAPEAG_K@Z
	?allocate@?$allocator@M@std@@QEAAPEAM_K@Z
	?allocate@?$allocator@UCloudPoint@@@std@@QEAAPEAUCloudPoint@@_K@Z
	?allocate@?$allocator@UCommand@?$WorkerThread@V?$Optional@VCallbackWorkItem@sensors@libeYs3D@@@base@libeYs3D@@@base@libeYs3D@@@std@@QEAAPEAUCommand@?$WorkerThread@V?$Optional@VCallbackWorkItem@sensors@libeYs3D@@@base@libeYs3D@@@base@libeYs3D@@_K@Z
	?allocate@?$allocator@UCommand@?$WorkerThread@V?$Optional@VCallbackWorkItem@video@libeYs3D@@@base@libeYs3D@@@base@libeYs3D@@@std@@QEAAPEAUCommand@?$WorkerThread@V?$Optional@VCallbackWorkItem@video@libeYs3D@@@base@libeYs3D@@@base@libeYs3D@@_K@Z
	?allocate@?$allocator@UCommand@?$WorkerThread@V?$Optional@VDACalculateWorkItem@video@libeYs3D@@@base@libeYs3D@@@base@libeYs3D@@@std@@QEAAPEAUCommand@?$WorkerThread@V?$Optional@VDACalculateWorkItem@video@libeYs3D@@@base@libeYs3D@@@base@libeYs3D@@_K@Z
	?allocate@?$allocator@UMODE_CONFIG@ModeConfig@@@std@@QEAAPEAUMODE_CONFIG@ModeConfig@@_K@Z
	?allocate@?$allocator@USensorData@sensors@libeYs3D@@@std@@QEAAPEAUSensorData@sensors@libeYs3D@@_K@Z
	?allocate@?$allocator@UtagAPC_STREAM_INFO@@@std@@QEAAPEAUtagAPC_STREAM_INFO@@_K@Z
	?allocate@?$allocator@V?$basic_string@DU?$char_traits@D@std@@V?$allocator@D@2@@std@@@std@@QEAAPEAV?$basic_string@DU?$char_traits@D@std@@V?$allocator@D@2@@2@_K@Z
	?appCallbackWorker@SensorDataProducer@sensors@libeYs3D@@AEAAXXZ
	?asprintf@@YAHPEAPEADPEBDZZ
	?assign@?$basic_string@DU?$char_traits@D@std@@V?$allocator@D@2@@std@@QEAAAEAV12@QEBD_K@Z
	?async@base@libeYs3D@@YA_NAEBV?$function@$$A6A_JXZ@std@@W4ThreadFlags@12@@Z
	?attachCallback@Producer@video@libeYs3D@@QEAAXV?$function@$$A6A_NPEBVFrame@video@libeYs3D@@@Z@std@@@Z
	?attachCallbackWorkerCGgroup@ColorFrameProducer@video@libeYs3D@@MEAAXXZ
	?attachCallbackWorkerCGgroup@DepthFrameProducer@video@libeYs3D@@MEAAXXZ
	?attachCallbackWorkerCGgroup@IMUDataProducer@sensors@libeYs3D@@MEAAXXZ
	?attachCallbackWorkerCGgroup@PCFrameProducer@video@libeYs3D@@MEAAXXZ
	?attachCoderCGgroup@PCFrameProducer@video@libeYs3D@@MEAAXXZ
	?attachFilterWorkerCGgroup@ColorFrameProducer@video@libeYs3D@@MEAAXXZ
	?attachFilterWorkerCGgroup@DepthFrameProducer@video@libeYs3D@@MEAAXXZ
	?attachPCCallback@FrameProducer@video@libeYs3D@@UEAAXV?$function@$$A6A_NPEBVFrame@video@libeYs3D@@@Z@std@@@Z
	?attachRGBWorkerCGgroup@ColorFrameProducer@video@libeYs3D@@MEAAXXZ
	?attachRGBWorkerCGgroup@DepthFrameProducer@video@libeYs3D@@MEAAXXZ
	?attachReaderWorkerCGgroup@ColorFrameProducer@video@libeYs3D@@MEAAXXZ
	?attachReaderWorkerCGgroup@DepthFrameProducer@video@libeYs3D@@MEAAXXZ
	?attachReaderWorkerCGgroup@IMUDataProducer@sensors@libeYs3D@@MEAAXXZ
	?attach_to_cgroup@@YAXPEBD0@Z
	?beforeRead@MessageChannelBase@base@libeYs3D@@IEAA_KXZ
	?beforeTimedRead@MessageChannelBase@base@libeYs3D@@IEAA?AV?$Optional@_K@23@_J@Z
	?beforeTryRead@MessageChannelBase@base@libeYs3D@@IEAA?AV?$Optional@_K@23@XZ
	?beforeTryWrite@MessageChannelBase@base@libeYs3D@@IEAA?AV?$Optional@_K@23@XZ
	?beforeWrite@MessageChannelBase@base@libeYs3D@@IEAA_KXZ
	?calculateDepthAccuracyInfo@DepthFrameProducer@video@libeYs3D@@AEAAXPEAVFrame@23@@Z
	?calculateDepthSpatialNoise@DepthFrameProducer@video@libeYs3D@@AEAAXPEAVFrame@23@@Z
	?calculateDepthTemporalNoise@DepthFrameProducer@video@libeYs3D@@AEAAXPEAVFrame@23@@Z
	?callbackWrapper@FrameProducer@video@libeYs3D@@IEAA_NPEBVFrame@23@@Z
	?checkCalibratingStatus@IMUDevice@devices@libeYs3D@@UEAAXPEAD@Z
	?checkIMUDeviceCBEnablement@ColorFrameProducer@video@libeYs3D@@MEAAXXZ
	?checkIMUDeviceCBEnablement@DepthFrameProducer@video@libeYs3D@@MEAAXXZ
	?clear@?$_Tree@V?$_Tmap_traits@U?$pair@GG@std@@V?$vector@V?$basic_string@DU?$char_traits@D@std@@V?$allocator@D@2@@std@@V?$allocator@V?$basic_string@DU?$char_traits@D@std@@V?$allocator@D@2@@std@@@2@@2@U?$less@U?$pair@GG@std@@@2@V?$allocator@U?$pair@$$CBU?$pair@GG@std@@V?$vector@V?$basic_string@DU?$char_traits@D@std@@V?$allocator@D@2@@std@@V?$allocator@V?$basic_string@DU?$char_traits@D@std@@V?$allocator@D@2@@std@@@2@@2@@std@@@2@$0A@@std@@@std@@QEAAXXZ
	?clear@FrameSetPipeline@devices@libeYs3D@@QEAAXXZ
	?clearHID@EYS3DSystem@libeYs3D@@AEAAXXZ
	?clock_gettime@@YAHHPEAUtimespec@@@Z
	?clone@Frame@video@libeYs3D@@QEAAXPEBV123@@Z
	?clone@PCFrame@video@libeYs3D@@QEAAXPEBV123@@Z
	?clone@SensorData@sensors@libeYs3D@@QEAAXPEBU123@@Z
	?clone@SensorDataSet@sensors@libeYs3D@@QEAAXPEBU123@@Z
	?close@?$basic_filebuf@DU?$char_traits@D@std@@@std@@QEAAPEAV12@XZ
	?closeStream@CameraDevice@devices@libeYs3D@@UEAAHXZ
	?closeStream@IMUDevice@devices@libeYs3D@@UEAAXXZ
	?colorCallbackWrapper@SensorDataProducer@sensors@libeYs3D@@IEAA_NPEBUSensorDataSet@23@@Z
	?colorImageCallback@FrameSetPipeline@devices@libeYs3D@@AEAA_NPEBVFrame@video@3@@Z
	?colorImageCallback@Pipeline@devices@libeYs3D@@AEAA_NPEBVFrame@video@3@@Z
	?colorProducerCallback@PCFrameProducer@video@libeYs3D@@IEAA_NPEBVFrame@23@@Z
	?color_image_produce_rgb_frame@video@libeYs3D@@YAHPEBVCameraDevice@devices@2@PEAVFrame@12@@Z
	?commandExecutor@RegisterReadWriteController@devices@libeYs3D@@AEAAXXZ
	?commitReadRegisters@RegisterReadWriteController@devices@libeYs3D@@QEAAXXZ
	?commitWriteRegisters@RegisterReadWriteController@devices@libeYs3D@@QEAAXXZ
	?configurePointCloudInfo@CameraDevice@devices@libeYs3D@@MEAAHXZ
	?convert_yuv_to_rgb_buffer@video@libeYs3D@@YAHPEAE0HHPEA_K@Z
	?createCameradevice@CameraDeviceFactory@devices@libeYs3D@@SAPEAVCameraDevice@23@PEAUtagDEVSEL@@PEAUtagDEVINFORMATION@@@Z
	?createColorFrameProducer@video@libeYs3D@@YA?AV?$unique_ptr@VFrameProducer@video@libeYs3D@@U?$default_delete@VFrameProducer@video@libeYs3D@@@std@@@std@@PEAVCameraDevice@devices@2@@Z
	?createDepthFrameProducer@video@libeYs3D@@YA?AV?$unique_ptr@VFrameProducer@video@libeYs3D@@U?$default_delete@VFrameProducer@video@libeYs3D@@@std@@@std@@PEAVCameraDevice@devices@2@@Z
	?createEYS3DHome@EYS3DSystem@libeYs3D@@AEAAHXZ
	?createPCFrameProducer@video@libeYs3D@@YA?AV?$unique_ptr@VPCProducer@video@libeYs3D@@U?$default_delete@VPCProducer@video@libeYs3D@@@std@@@std@@PEAVCameraDevice@devices@2@@Z
	?create_directory@@YAHPEBD0@Z
	?dataToInfo@CameraDeviceProperties@devices@libeYs3D@@AEAAXW4CAMERA_PROPERTY@123@PEAH@Z
	?deQueue@?$CircularQueue@USensorData@sensors@libeYs3D@@$0BAA@@Pipeline@devices@libeYs3D@@QEAA?AW4RESULT@234@PEAUSensorData@sensors@4@H@Z
	?deQueue@?$CircularQueue@VFrame@video@libeYs3D@@$0EA@@Pipeline@devices@libeYs3D@@QEAA?AW4RESULT@234@PEAVFrame@video@4@H@Z
	?deQueue@?$CircularQueue@VPCFrame@video@libeYs3D@@$0CA@@Pipeline@devices@libeYs3D@@QEAA?AW4RESULT@234@PEAVPCFrame@video@4@H@Z
	?deallocate@?$allocator@D@std@@QEAAXQEAD_K@Z
	?deallocate@?$allocator@E@std@@QEAAXQEAE_K@Z
	?deallocate@?$allocator@F@std@@QEAAXQEAF_K@Z
	?deallocate@?$allocator@G@std@@QEAAXQEAG_K@Z
	?deallocate@?$allocator@H@std@@QEAAXQEAH_K@Z
	?deallocate@?$allocator@M@std@@QEAAXQEAM_K@Z
	?deallocate@?$allocator@U?$_List_node@V?$vector@FV?$allocator@F@std@@@std@@PEAX@std@@@std@@QEAAXQEAU?$_List_node@V?$vector@FV?$allocator@F@std@@@std@@PEAX@2@_K@Z
	?deallocate@?$allocator@U?$_Tree_node@U?$pair@$$CBHH@std@@PEAX@std@@@std@@QEAAXQEAU?$_Tree_node@U?$pair@$$CBHH@std@@PEAX@2@_K@Z
	?deallocate@?$allocator@U?$_Tree_node@U?$pair@$$CBHUPID_TABLE@ModeConfig@@@std@@PEAX@std@@@std@@QEAAXQEAU?$_Tree_node@U?$pair@$$CBHUPID_TABLE@ModeConfig@@@std@@PEAX@2@_K@Z
	?deallocate@?$allocator@U?$_Tree_node@U?$pair@$$CBU?$pair@GG@std@@V?$vector@V?$basic_string@DU?$char_traits@D@std@@V?$allocator@D@2@@std@@V?$allocator@V?$basic_string@DU?$char_traits@D@std@@V?$allocator@D@2@@std@@@2@@2@@std@@PEAX@std@@@std@@QEAAXQEAU?$_Tree_node@U?$pair@$$CBU?$pair@GG@std@@V?$vector@V?$basic_string@DU?$char_traits@D@std@@V?$allocator@D@2@@std@@V?$allocator@V?$basic_string@DU?$char_traits@D@std@@V?$allocator@D@2@@std@@@2@@2@@std@@PEAX@2@_K@Z
	?deallocate@?$allocator@U?$_Tree_node@U?$pair@$$CBUDeviceSellectInfo@libeYs3D@@V?$shared_ptr@VCameraDevice@devices@libeYs3D@@@std@@@std@@PEAX@std@@@std@@QEAAXQEAU?$_Tree_node@U?$pair@$$CBUDeviceSellectInfo@libeYs3D@@V?$shared_ptr@VCameraDevice@devices@libeYs3D@@@std@@@std@@PEAX@2@_K@Z
	?deallocate@?$allocator@U?$_Tree_node@U?$pair@$$CBW4IMUPacketSymbol@IMUData@@_K@std@@PEAX@std@@@std@@QEAAXQEAU?$_Tree_node@U?$pair@$$CBW4IMUPacketSymbol@IMUData@@_K@std@@PEAX@2@_K@Z
	?deallocate@?$allocator@UCloudPoint@@@std@@QEAAXQEAUCloudPoint@@_K@Z
	?deallocate@?$allocator@UCommand@?$WorkerThread@V?$Optional@VCallbackWorkItem@sensors@libeYs3D@@@base@libeYs3D@@@base@libeYs3D@@@std@@QEAAXQEAUCommand@?$WorkerThread@V?$Optional@VCallbackWorkItem@sensors@libeYs3D@@@base@libeYs3D@@@base@libeYs3D@@_K@Z
	?deallocate@?$allocator@UCommand@?$WorkerThread@V?$Optional@VCallbackWorkItem@video@libeYs3D@@@base@libeYs3D@@@base@libeYs3D@@@std@@QEAAXQEAUCommand@?$WorkerThread@V?$Optional@VCallbackWorkItem@video@libeYs3D@@@base@libeYs3D@@@base@libeYs3D@@_K@Z
	?deallocate@?$allocator@UCommand@?$WorkerThread@V?$Optional@VDACalculateWorkItem@video@libeYs3D@@@base@libeYs3D@@@base@libeYs3D@@@std@@QEAAXQEAUCommand@?$WorkerThread@V?$Optional@VDACalculateWorkItem@video@libeYs3D@@@base@libeYs3D@@@base@libeYs3D@@_K@Z
	?deallocate@?$allocator@UMODE_CONFIG@ModeConfig@@@std@@QEAAXQEAUMODE_CONFIG@ModeConfig@@_K@Z
	?deallocate@?$allocator@USensorData@sensors@libeYs3D@@@std@@QEAAXQEAUSensorData@sensors@libeYs3D@@_K@Z
	?deallocate@?$allocator@UtagAPC_STREAM_INFO@@@std@@QEAAXQEAUtagAPC_STREAM_INFO@@_K@Z
	?deallocate@?$allocator@V?$basic_string@DU?$char_traits@D@std@@V?$allocator@D@2@@std@@@std@@QEAAXQEAV?$basic_string@DU?$char_traits@D@std@@V?$allocator@D@2@@2@_K@Z
	?deinitialize_debug_framework@@YAXXZ
	?depthCallbackWrapper@SensorDataProducer@sensors@libeYs3D@@IEAA_NPEBUSensorDataSet@23@@Z
	?depthImageCallback@FrameSetPipeline@devices@libeYs3D@@AEAA_NPEBVFrame@video@3@@Z
	?depthImageCallback@Pipeline@devices@libeYs3D@@AEAA_NPEBVFrame@video@3@@Z
	?depthProducerCallback@PCFrameProducer@video@libeYs3D@@IEAA_NPEBVFrame@23@@Z
	?depth_image_produce_rgb_frame@video@libeYs3D@@YAHPEBVCameraDevice@devices@2@PEAVFrame@12@@Z
	?destruct@?$Optional@V?$WorkerThread@V?$Optional@VCallbackWorkItem@sensors@libeYs3D@@@base@libeYs3D@@@base@libeYs3D@@@base@libeYs3D@@AEAAXXZ
	?destruct@?$Optional@V?$WorkerThread@V?$Optional@VCallbackWorkItem@video@libeYs3D@@@base@libeYs3D@@@base@libeYs3D@@@base@libeYs3D@@AEAAXXZ
	?destruct@?$Optional@V?$WorkerThread@V?$Optional@VDACalculateWorkItem@video@libeYs3D@@@base@libeYs3D@@@base@libeYs3D@@@base@libeYs3D@@AEAAXXZ
	?dirname@@YAPEADPEAD@Z
	?doSnapshot@CameraDevice@devices@libeYs3D@@QEAAXXZ
	?doSnapshot@FrameProducer@video@libeYs3D@@QEAAXXZ
	?doSnapshot@PCFrameProducer@video@libeYs3D@@UEAAXXZ
	?done@?$ThreadPool@VCallbackWorkItem@sensors@libeYs3D@@@base@libeYs3D@@QEAAXXZ
	?done@?$ThreadPool@VCallbackWorkItem@video@libeYs3D@@@base@libeYs3D@@QEAAXXZ
	?done@?$ThreadPool@VDACalculateWorkItem@video@libeYs3D@@@base@libeYs3D@@QEAAXXZ
	?doneConstructing@LazyInstanceState@internal@base@libeYs3D@@QEAAXXZ
	?dumpCameraDeviceProperties@CameraDevice@devices@libeYs3D@@QEAAXXZ
	?dumpFrameInfo@CameraDevice@devices@libeYs3D@@QEAAXH@Z
	?dumpFrameInfo@FrameProducer@video@libeYs3D@@QEAAXH@Z
	?dumpFrameInfo@PCFrameProducer@video@libeYs3D@@UEAAXH@Z
	?dumpIMUData@CameraDevice@devices@libeYs3D@@QEAAXH@Z
	?dumpIMUData@IMUDevice@devices@libeYs3D@@UEAAXH@Z
	?dumpSystemInfo@EYS3DSystem@libeYs3D@@QEAAXXZ
	?enQueue@?$CircularQueue@USensorData@sensors@libeYs3D@@$0BAA@@Pipeline@devices@libeYs3D@@QEAA?AW4RESULT@234@PEBUSensorData@sensors@4@H@Z
	?enQueue@?$CircularQueue@VFrame@video@libeYs3D@@$0EA@@FrameSetPipeline@devices@libeYs3D@@QEAA?AW4RESULT@234@PEBVFrame@video@4@H@Z
	?enQueue@?$CircularQueue@VFrame@video@libeYs3D@@$0EA@@Pipeline@devices@libeYs3D@@QEAA?AW4RESULT@234@PEBVFrame@video@4@H@Z
	?enQueue@?$CircularQueue@VPCFrame@video@libeYs3D@@$0CA@@FrameSetPipeline@devices@libeYs3D@@QEAA?AW4RESULT@234@PEBVPCFrame@video@4@H@Z
	?enQueue@?$CircularQueue@VPCFrame@video@libeYs3D@@$0CA@@Pipeline@devices@libeYs3D@@QEAA?AW4RESULT@234@PEBVPCFrame@video@4@H@Z
	?enable@DepthAccuracyOptions@devices@libeYs3D@@QEAAX_N@Z
	?enable@DepthFilterOptions@devices@libeYs3D@@QEAAX_N@Z
	?enableAppCallback@SensorDataProducer@sensors@libeYs3D@@QEAAXXZ
	?enableAppStream@IMUDevice@devices@libeYs3D@@QEAAXXZ
	?enableBlockingRead@CameraDevice@devices@libeYs3D@@MEAAH_N@Z
	?enableCallback@FrameProducer@video@libeYs3D@@UEAAXXZ
	?enableCallback@PCFrameProducer@video@libeYs3D@@UEAAXXZ
	?enableColorCallback@SensorDataProducer@sensors@libeYs3D@@QEAAXXZ
	?enableColorStream@CameraDevice@devices@libeYs3D@@QEAAXXZ
	?enableColorStream@IMUDevice@devices@libeYs3D@@QEAAXXZ
	?enableDataOutout@IMUDevice@devices@libeYs3D@@MEAAX_N@Z
	?enableDepthCallback@SensorDataProducer@sensors@libeYs3D@@QEAAXXZ
	?enableDepthStream@CameraDevice@devices@libeYs3D@@QEAAXXZ
	?enableDepthStream@IMUDevice@devices@libeYs3D@@QEAAXXZ
	?enableEdgePreServingFilter@DepthFilterOptions@devices@libeYs3D@@QEAAX_N@Z
	?enableFlyingDepthCancellation@DepthFilterOptions@devices@libeYs3D@@QEAAX_N@Z
	?enableHWPP@CameraDevice@devices@libeYs3D@@UEAAH_N@Z
	?enableHoleFill@DepthFilterOptions@devices@libeYs3D@@QEAAX_N@Z
	?enableIMUStream@CameraDevice@devices@libeYs3D@@QEAAXXZ
	?enableInterleaveMode@CameraDevice@devices@libeYs3D@@UEAAH_N@Z
	?enablePCCallback@FrameProducer@video@libeYs3D@@UEAAXXZ
	?enablePCStream@CameraDevice@devices@libeYs3D@@QEAAXXZ
	?enablePlyFilter@CameraDevice@devices@libeYs3D@@QEAAX_N@Z
	?enableStream@CameraDevice@devices@libeYs3D@@QEAAXXZ
	?enableStream@IMUDevice@devices@libeYs3D@@QEAAXXZ
	?enableSubSample@DepthFilterOptions@devices@libeYs3D@@QEAAX_N@Z
	?enableTemporalFilter@DepthFilterOptions@devices@libeYs3D@@QEAAX_N@Z
	?enqueue@?$ThreadPool@VDACalculateWorkItem@video@libeYs3D@@@base@libeYs3D@@QEAAX$$QEAVDACalculateWorkItem@video@3@@Z
	?enqueue@?$WorkerThread@V?$Optional@VCallbackWorkItem@video@libeYs3D@@@base@libeYs3D@@@base@libeYs3D@@QEAAX$$QEAV?$Optional@VCallbackWorkItem@video@libeYs3D@@@23@@Z
	?enqueue@?$WorkerThread@V?$Optional@VDACalculateWorkItem@video@libeYs3D@@@base@libeYs3D@@@base@libeYs3D@@QEAAX$$QEAV?$Optional@VDACalculateWorkItem@video@libeYs3D@@@23@@Z
	?erase@?$_Tree@V?$_Tmap_traits@HUPID_TABLE@ModeConfig@@U?$less@H@std@@V?$allocator@U?$pair@$$CBHUPID_TABLE@ModeConfig@@@std@@@4@$0A@@std@@@std@@QEAA?AV?$_Tree_iterator@V?$_Tree_val@U?$_Tree_simple_types@U?$pair@$$CBHUPID_TABLE@ModeConfig@@@std@@@std@@@std@@@2@V?$_Tree_const_iterator@V?$_Tree_val@U?$_Tree_simple_types@U?$pair@$$CBHUPID_TABLE@ModeConfig@@@std@@@std@@@std@@@2@0@Z
	?erase@?$_Tree@V?$_Tmap_traits@UDeviceSellectInfo@libeYs3D@@V?$shared_ptr@VCameraDevice@devices@libeYs3D@@@std@@U?$less@UDeviceSellectInfo@libeYs3D@@@4@V?$allocator@U?$pair@$$CBUDeviceSellectInfo@libeYs3D@@V?$shared_ptr@VCameraDevice@devices@libeYs3D@@@std@@@std@@@4@$0A@@std@@@std@@QEAA?AV?$_Tree_iterator@V?$_Tree_val@U?$_Tree_simple_types@U?$pair@$$CBUDeviceSellectInfo@libeYs3D@@V?$shared_ptr@VCameraDevice@devices@libeYs3D@@@std@@@std@@@std@@@std@@@2@V?$_Tree_const_iterator@V?$_Tree_val@U?$_Tree_simple_types@U?$pair@$$CBUDeviceSellectInfo@libeYs3D@@V?$shared_ptr@VCameraDevice@devices@libeYs3D@@@std@@@std@@@std@@@std@@@2@0@Z
	?erase@?$_Tree@V?$_Tmap_traits@UDeviceSellectInfo@libeYs3D@@V?$shared_ptr@VCameraDevice@devices@libeYs3D@@@std@@U?$less@UDeviceSellectInfo@libeYs3D@@@4@V?$allocator@U?$pair@$$CBUDeviceSellectInfo@libeYs3D@@V?$shared_ptr@VCameraDevice@devices@libeYs3D@@@std@@@std@@@4@$0A@@std@@@std@@QEAA?AV?$_Tree_iterator@V?$_Tree_val@U?$_Tree_simple_types@U?$pair@$$CBUDeviceSellectInfo@libeYs3D@@V?$shared_ptr@VCameraDevice@devices@libeYs3D@@@std@@@std@@@std@@@std@@@2@V?$_Tree_const_iterator@V?$_Tree_val@U?$_Tree_simple_types@U?$pair@$$CBUDeviceSellectInfo@libeYs3D@@V?$shared_ptr@VCameraDevice@devices@libeYs3D@@@std@@@std@@@std@@@std@@@2@@Z
	?apcFrameTo3D@PlyWriter@@SAHHHAEAV?$vector@EV?$allocator@E@std@@@std@@HH0PEAUeSPCtrl_RectLogData@@W4Value@APCImageType@@AEAV?$vector@UCloudPoint@@V?$allocator@UCloudPoint@@@std@@@3@_NMM44M@Z
	?apcFrameTo3DCylinder@PlyWriter@@SAHHHAEAV?$vector@EV?$allocator@E@std@@@std@@HH0PEAUeSPCtrl_RectLogData@@1W4Value@APCImageType@@AEAV?$vector@UCloudPoint@@V?$allocator@UCloudPoint@@@std@@@3@_NMM4M@Z
	?apcFrameTo3DCylinder@PlyWriter@@SAHHHAEAV?$vector@EV?$allocator@E@std@@@std@@HH0PEAUeSPCtrl_RectLogData@@W4Value@APCImageType@@AEAV?$vector@UCloudPoint@@V?$allocator@UCloudPoint@@@std@@@3@_NMM4M@Z
	?apcFrameTo3DMultiSensor@PlyWriter@@SAHHHAEAV?$vector@EV?$allocator@E@std@@@std@@HH0PEAUeSPCtrl_RectLogData@@1W4Value@APCImageType@@AEAV?$vector@UCloudPoint@@V?$allocator@UCloudPoint@@@std@@@3@_NMM44MH@Z
	?apcFrameTo3DMultiSensorPlyFilterFloat@PlyWriter@@SAHHHAEAV?$vector@MV?$allocator@M@std@@@std@@HHAEAV?$vector@EV?$allocator@E@std@@@3@PEAUeSPCtrl_RectLogData@@2W4Value@APCImageType@@AEAV?$vector@UCloudPoint@@V?$allocator@UCloudPoint@@@std@@@3@_NMM55MH@Z
	?apcFrameTo3D_8029@PlyWriter@@SAHHHAEAV?$vector@EV?$allocator@E@std@@@std@@HH0PEAUeSPCtrl_RectLogData@@W4Value@APCImageType@@AEAV?$vector@UCloudPoint@@V?$allocator@UCloudPoint@@@std@@@3@_NMM44M@Z
	?apcFrameTo3D_PlyFilterFloat@PlyWriter@@SAHHHAEAV?$vector@MV?$allocator@M@std@@@std@@HHAEAV?$vector@EV?$allocator@E@std@@@3@PEAUeSPCtrl_RectLogData@@W4Value@APCImageType@@AEAV?$vector@UCloudPoint@@V?$allocator@UCloudPoint@@@std@@@3@_NMM55M@Z
	?exchange@@YAHH@Z
	?frameFilteringWorker@FrameProducer@video@libeYs3D@@AEAAXXZ
	?generateHeader@PlyWriter@@SA?AV?$basic_string@DU?$char_traits@D@std@@V?$allocator@D@2@@std@@_NH@Z
	?generateModelID@EYS3DSystem@libeYs3D@@QEAAEXZ
	?generatePalette@ColorPaletteGenerator@@SAXPEAEHHH_N@Z
	?generatePalette@ColorPaletteGenerator@@SAXPEAEHHMHM_N@Z
	?generatePalette@ColorPaletteGenerator@@SAXPEAEH_N@Z
	?generatePaletteColor@ColorPaletteGenerator@@SAXPEAUtagRGBQUAD@@HHHH_N@Z
	?generatePaletteGray@ColorPaletteGenerator@@SAXPEAEHHH_N@Z
	?generatePaletteGray@ColorPaletteGenerator@@SAXPEAEHHMHM_N@Z
	?generatePaletteGray@ColorPaletteGenerator@@SAXPEAUtagRGBQUAD@@HHHH_N@Z
	?generate_point_cloud@video@libeYs3D@@YAHPEAVCameraDevice@devices@2@PEBDAEAV?$vector@EV?$allocator@E@std@@@std@@HH2HH_N@Z
	?get@ThreadStoreBase@base@libeYs3D@@QEBAPEAXXZ
	?getCameraDevice@EYS3DSystem@libeYs3D@@QEAA?AV?$shared_ptr@VCameraDevice@devices@libeYs3D@@@std@@H@Z
	?getCameraDeviceProperty@CameraDevice@devices@libeYs3D@@UEAA?AUCameraPropertyItem@CameraDeviceProperties@23@W4CAMERA_PROPERTY@523@@Z
	?getCameraProperty@CameraDeviceProperties@devices@libeYs3D@@QEAA?AUCameraPropertyItem@123@W4CAMERA_PROPERTY@123@@Z
	?getCameraPropertyFlag@CameraDeviceProperties@devices@libeYs3D@@AEAAXW4CAMERA_PROPERTY@123@PEAHPEA_N@Z
	?getCurrentThreadId@base@libeYs3D@@YAKXZ
	?getDataFormat@IMUDevice@devices@libeYs3D@@MEAA?AW4IMU_DATA_FORMAT@123@XZ
	?getDepth@Frame@video@libeYs3D@@QEBAGHH@Z
	?getDepthAccuracyOptions@CameraDevice@devices@libeYs3D@@UEAA?AVDepthAccuracyOptions@23@XZ
	?getDepthAccuracyRegion@CameraDevice@devices@libeYs3D@@UEAA?AURect@@XZ
	?getDepthFilterOptions@CameraDevice@devices@libeYs3D@@UEAA?AVDepthFilterOptions@23@XZ
	?getDepthOfField@CameraDevice@devices@libeYs3D@@QEAAXPEAG0@Z
	?getDeviceCount@EYS3DSystem@libeYs3D@@QEAAHXZ
	?getDeviceName@CameraDeviceProperties@devices@libeYs3D@@QEAA?AV?$basic_string@DU?$char_traits@D@std@@V?$allocator@D@2@@std@@XZ
	?getEYS3DDIHandle@EYS3DSystem@libeYs3D@@QEAAPEAXXZ
	?getEYS3DSystem@EYS3DSystem@libeYs3D@@SA?AV?$shared_ptr@VEYS3DSystem@libeYs3D@@@std@@XZ
	?getFWRegister@CameraDevice@devices@libeYs3D@@QEAAGG@Z
	?getFWVersion@IMUDevice@devices@libeYs3D@@UEAAPEBDXZ
	?getFeatureReport@IMUDevice@devices@libeYs3D@@AEAAXPEAD_K@Z
	?getGroundTruthDistanceMM@DepthAccuracyOptions@devices@libeYs3D@@QEAAMXZ
	?getHIDDeviceList@EYS3DSystem@libeYs3D@@QEAA?AV?$vector@V?$basic_string@DU?$char_traits@D@std@@V?$allocator@D@2@@std@@V?$allocator@V?$basic_string@DU?$char_traits@D@std@@V?$allocator@D@2@@std@@@2@@std@@GG@Z
	?getHWRegister@CameraDevice@devices@libeYs3D@@QEAAGG@Z
	?getIMUDataOutputBytes@IMUDevice@devices@libeYs3D@@MEAAHW4IMU_DATA_FORMAT@123@@Z
	?getIMUDeviceInfo@CameraDevice@devices@libeYs3D@@QEAA?AUIMUDeviceInfo@IMUDevice@23@XZ
	?getIMUDeviceInfo@IMUDevice@devices@libeYs3D@@QEAA?AUIMUDeviceInfo@123@XZ
	?getIRProperty@CameraDevice@devices@libeYs3D@@UEAA?AVIRProperty@23@XZ
	?getManuelExposureTimeMs@CameraDevice@devices@libeYs3D@@UEAAMXZ
	?getManuelExposureTimeMs@CameraDeviceProperties@devices@libeYs3D@@QEAAMXZ
	?getManuelGlobalGain@CameraDevice@devices@libeYs3D@@UEAAMXZ
	?getManuelGlobalGain@CameraDeviceProperties@devices@libeYs3D@@QEAAMXZ
	?getModeConfigOptions@CameraDevice@devices@libeYs3D@@QEAA?AV?$unique_ptr@VModeConfigOptions@@U?$default_delete@VModeConfigOptions@@@std@@@std@@W4USB_PORT_TYPE@@G@Z
	?getModeConfigOptions@CameraDevice@devices@libeYs3D@@QEAA?AV?$unique_ptr@VModeConfigOptions@@U?$default_delete@VModeConfigOptions@@@std@@@std@@XZ
	?getModuleID@CameraDevice@devices@libeYs3D@@QEAAHXZ
	?getModuleName@IMUDevice@devices@libeYs3D@@UEAAPEBDXZ
	?getName@ColorFrameProducer@video@libeYs3D@@UEAAPEBDXZ
	?getName@DepthFrameProducer@video@libeYs3D@@UEAAPEBDXZ
	?getName@FrameProducer@video@libeYs3D@@UEAAPEBDXZ
	?getName@IMUDataProducer@sensors@libeYs3D@@UEAAPEBDXZ
	?getName@IMUDevice8062@devices@libeYs3D@@UEAAPEBDXZ
	?getName@IMUDevice@devices@libeYs3D@@UEAAPEBDXZ
	?getName@PCFrameProducer@video@libeYs3D@@UEAAPEBDXZ
	?getRGB@ColorPaletteGenerator@@CAXNAEAN00_N@Z
	?getRGB_14bits@ColorPaletteGenerator@@CAXNAEAN00_N@Z
	?getRawFormatBytesPerPixel@ColorFrameProducer@video@libeYs3D@@MEAAHI@Z
	?getRawFormatBytesPerPixel@DepthFrameProducer@video@libeYs3D@@MEAAHI@Z
	?getRegionRatio@DepthAccuracyOptions@devices@libeYs3D@@QEAAMXZ
	?getRegisterReadWriteOptions@CameraDevice@devices@libeYs3D@@UEAA?AVRegisterReadWriteOptions@23@XZ
	?getSDKHomePath@EYS3DSystem@libeYs3D@@QEAAPEBDXZ
	?getSensorRegister@CameraDevice@devices@libeYs3D@@QEAAGGW4SENSORMODE_INFO@@H@Z
	?getSerialNumber@IMUDevice@devices@libeYs3D@@UEAAPEBDXZ
	?getStatus@IMUDevice@devices@libeYs3D@@UEAAHXZ
	?getSupportDataFormat@IMUDevice8062@devices@libeYs3D@@MEAA?AV?$vector@W4IMU_DATA_FORMAT@IMUDevice@devices@libeYs3D@@V?$allocator@W4IMU_DATA_FORMAT@IMUDevice@devices@libeYs3D@@@std@@@std@@XZ
	?getSupportDataFormat@IMUDevice@devices@libeYs3D@@MEAA?AV?$vector@W4IMU_DATA_FORMAT@IMUDevice@devices@libeYs3D@@V?$allocator@W4IMU_DATA_FORMAT@IMUDevice@devices@libeYs3D@@@std@@@std@@XZ
	?getType@IMUDevice@devices@libeYs3D@@UEAA?AW4IMU_TYPE@123@XZ
	?getZDTableDataType@CameraDevice@devices@libeYs3D@@MEAAHXZ
	?getZDTableIndex@CameraDevice8036@devices@libeYs3D@@MEAAHXZ
	?getZDTableIndex@CameraDevice8037@devices@libeYs3D@@MEAAHXZ
	?getZDTableIndex@CameraDevice8052@devices@libeYs3D@@MEAAHXZ
	?getZDTableIndex@CameraDevice8053@devices@libeYs3D@@MEAAHXZ
	?getZDTableIndex@CameraDevice8059@devices@libeYs3D@@MEAAHXZ
	?getZDTableIndex@CameraDevice8062@devices@libeYs3D@@MEAAHXZ
	?getZDTableIndex@CameraDevice8067@devices@libeYs3D@@MEAAHXZ
	?getZDTableIndex@CameraDevice@devices@libeYs3D@@MEAAHXZ
	?getZDTableIndex@CameraDeviceHypatia@devices@libeYs3D@@MEAAHXZ
	?getZDTableSize@CameraDevice@devices@libeYs3D@@MEAAHXZ
	?getZValue@Frame@video@libeYs3D@@QEBAGG@Z
	?get_cpu_core_count@@YAHXZ
	?get_executable_dir@@YAHPEADHPEBD@Z
	?get_executable_path@@YAHPEADHPEBD@Z
	?get_process_name@@YAXIPEADH@Z
	?get_time_YYYY_MM_DD_HH_MM_SS@@YAX_JPEAD_K@Z
	?get_usb_type@@YA?AW4USB_PORT_TYPE@@PEBD@Z
	?getenv_to_int@@YAHPEBDH@Z
	?gettimeofday@@YAHPEAUtimeval@@PEAX@Z
	?imbue@?$basic_filebuf@DU?$char_traits@D@std@@@std@@MEAAXAEBVlocale@2@@Z
	?imgCallback@devices@libeYs3D@@YAXW4Value@APCImageType@@HPEAEHHHHPEAX@Z
	?imuDataCallback@Pipeline@devices@libeYs3D@@AEAA_NPEBUSensorData@sensors@3@@Z
	?imuDataSetCallback@FrameProducer@video@libeYs3D@@IEAA_NPEBUSensorDataSet@sensors@3@@Z
	?inInitState@LazyInstanceState@internal@base@libeYs3D@@QEAA_NXZ
	?infoToData@CameraDeviceProperties@devices@libeYs3D@@AEAAXW4CAMERA_PROPERTY@123@PEAH@Z
	?init@CameraDeviceProperties@devices@libeYs3D@@QEAAHXZ
	?initCameraProperties@CameraDeviceProperties@devices@libeYs3D@@QEAAHXZ
	?initDepthAccuracyOptions@CameraDevice@devices@libeYs3D@@MEAAHXZ
	?initDepthFilterOptions@CameraDevice@devices@libeYs3D@@MEAAHXZ
	?initDepthROIOptions@CameraDevice@devices@libeYs3D@@MEAAHXZ
	?initHID@EYS3DSystem@libeYs3D@@AEAAXXZ
	?initIMUDevice@CameraDevice8062@devices@libeYs3D@@MEAAHXZ
	?initIMUDevice@CameraDevice@devices@libeYs3D@@MEAAHXZ
	?initIRProperty@CameraDevice@devices@libeYs3D@@MEAAHXZ
	?initRegisterReadWriteOptions@CameraDevice@devices@libeYs3D@@MEAAHXZ
	?initStream@CameraDevice8036@devices@libeYs3D@@UEAAHW4COLOR_RAW_DATA_TYPE@video@3@HHHW4DEPTH_RAW_DATA_TYPE@53@HHW4DEPTH_TRANSFER_CTRL@@W4CONTROL_MODE@@HV?$function@$$A6A_NPEBVFrame@video@libeYs3D@@@Z@std@@4V?$function@$$A6A_NPEBVPCFrame@video@libeYs3D@@@Z@std@@V?$function@$$A6A_NPEBUSensorData@sensors@libeYs3D@@@Z@std@@@Z
	?initStream@CameraDevice8037@devices@libeYs3D@@UEAAHW4COLOR_RAW_DATA_TYPE@video@3@HHHW4DEPTH_RAW_DATA_TYPE@53@HHW4DEPTH_TRANSFER_CTRL@@W4CONTROL_MODE@@HV?$function@$$A6A_NPEBVFrame@video@libeYs3D@@@Z@std@@4V?$function@$$A6A_NPEBVPCFrame@video@libeYs3D@@@Z@std@@V?$function@$$A6A_NPEBUSensorData@sensors@libeYs3D@@@Z@std@@@Z
	?initStream@CameraDevice8052@devices@libeYs3D@@UEAAHW4COLOR_RAW_DATA_TYPE@video@3@HHHW4DEPTH_RAW_DATA_TYPE@53@HHW4DEPTH_TRANSFER_CTRL@@W4CONTROL_MODE@@HV?$function@$$A6A_NPEBVFrame@video@libeYs3D@@@Z@std@@4V?$function@$$A6A_NPEBVPCFrame@video@libeYs3D@@@Z@std@@V?$function@$$A6A_NPEBUSensorData@sensors@libeYs3D@@@Z@std@@@Z
	?initStream@CameraDevice8053@devices@libeYs3D@@UEAAHW4COLOR_RAW_DATA_TYPE@video@3@HHHW4DEPTH_RAW_DATA_TYPE@53@HHW4DEPTH_TRANSFER_CTRL@@W4CONTROL_MODE@@HV?$function@$$A6A_NPEBVFrame@video@libeYs3D@@@Z@std@@4V?$function@$$A6A_NPEBVPCFrame@video@libeYs3D@@@Z@std@@V?$function@$$A6A_NPEBUSensorData@sensors@libeYs3D@@@Z@std@@@Z
	?initStream@CameraDevice8059@devices@libeYs3D@@UEAAHW4COLOR_RAW_DATA_TYPE@video@3@HHHW4DEPTH_RAW_DATA_TYPE@53@HHW4DEPTH_TRANSFER_CTRL@@W4CONTROL_MODE@@HV?$function@$$A6A_NPEBVFrame@video@libeYs3D@@@Z@std@@4V?$function@$$A6A_NPEBVPCFrame@video@libeYs3D@@@Z@std@@V?$function@$$A6A_NPEBUSensorData@sensors@libeYs3D@@@Z@std@@@Z
	?initStream@CameraDevice8062@devices@libeYs3D@@UEAAHW4COLOR_RAW_DATA_TYPE@video@3@HHHW4DEPTH_RAW_DATA_TYPE@53@HHW4DEPTH_TRANSFER_CTRL@@W4CONTROL_MODE@@HV?$function@$$A6A_NPEBVFrame@video@libeYs3D@@@Z@std@@4V?$function@$$A6A_NPEBVPCFrame@video@libeYs3D@@@Z@std@@V?$function@$$A6A_NPEBUSensorData@sensors@libeYs3D@@@Z@std@@@Z
	?initStream@CameraDevice8067@devices@libeYs3D@@UEAAHW4COLOR_RAW_DATA_TYPE@video@3@HHHW4DEPTH_RAW_DATA_TYPE@53@HHW4DEPTH_TRANSFER_CTRL@@W4CONTROL_MODE@@HV?$function@$$A6A_NPEBVFrame@video@libeYs3D@@@Z@std@@4V?$function@$$A6A_NPEBVPCFrame@video@libeYs3D@@@Z@std@@V?$function@$$A6A_NPEBUSensorData@sensors@libeYs3D@@@Z@std@@@Z
	?initStream@CameraDevice@devices@libeYs3D@@QEAA?AV?$shared_ptr@VPipeline@devices@libeYs3D@@@std@@W4COLOR_RAW_DATA_TYPE@video@3@HHHW4DEPTH_RAW_DATA_TYPE@73@HHW4DEPTH_TRANSFER_CTRL@@W4CONTROL_MODE@@H@Z
	?initStream@CameraDevice@devices@libeYs3D@@UEAAHW4COLOR_RAW_DATA_TYPE@video@3@HHHW4DEPTH_RAW_DATA_TYPE@53@HHW4DEPTH_TRANSFER_CTRL@@W4CONTROL_MODE@@HV?$function@$$A6A_NPEBVFrame@video@libeYs3D@@@Z@std@@4V?$function@$$A6A_NPEBVPCFrame@video@libeYs3D@@@Z@std@@V?$function@$$A6A_NPEBUSensorData@sensors@libeYs3D@@@Z@std@@@Z
	?initStream@CameraDeviceHypatia@devices@libeYs3D@@UEAAHW4COLOR_RAW_DATA_TYPE@video@3@HHHW4DEPTH_RAW_DATA_TYPE@53@HHW4DEPTH_TRANSFER_CTRL@@W4CONTROL_MODE@@HV?$function@$$A6A_NPEBVFrame@video@libeYs3D@@@Z@std@@4V?$function@$$A6A_NPEBVPCFrame@video@libeYs3D@@@Z@std@@V?$function@$$A6A_NPEBUSensorData@sensors@libeYs3D@@@Z@std@@@Z
	?initStream@IMUDevice@devices@libeYs3D@@UEAAHV?$function@$$A6A_NPEBUSensorData@sensors@libeYs3D@@@Z@std@@V?$function@$$A6A_NPEBUSensorDataSet@sensors@libeYs3D@@@Z@5@1@Z
	?initStreamFS@CameraDevice@devices@libeYs3D@@QEAA?AV?$shared_ptr@VFrameSetPipeline@devices@libeYs3D@@@std@@W4COLOR_RAW_DATA_TYPE@video@3@HHHW4DEPTH_RAW_DATA_TYPE@73@HHW4DEPTH_TRANSFER_CTRL@@W4CONTROL_MODE@@H@Z
	?initStreamInfoList@CameraDevice@devices@libeYs3D@@MEAAHXZ
	?initialize@EYS3DSystem@libeYs3D@@AEAAHXZ
	?initialize@FrameProducer@video@libeYs3D@@AEAAXXZ
	?initialize@IMUDevice@devices@libeYs3D@@AEAAHXZ
	?initialize@PCFrameProducer@video@libeYs3D@@AEAAXXZ
	?initialize@SensorDataProducer@sensors@libeYs3D@@AEAAXXZ
	?initialize_cgroup@@YAXXZ
	?initialize_debug_framework@@YAXPEBD@Z
	?insertColorFrame@Pipeline@devices@libeYs3D@@QEAA?AW4RESULT@123@PEBVFrame@video@3@H@Z
	?insertDepthFrame@Pipeline@devices@libeYs3D@@QEAA?AW4RESULT@123@PEBVFrame@video@3@H@Z
	?insertIMUData@Pipeline@devices@libeYs3D@@QEAA?AW4RESULT@123@PEBUSensorData@sensors@3@H@Z
	?insertPCFrame@Pipeline@devices@libeYs3D@@QEAA?AW4RESULT@123@PEBVPCFrame@video@3@H@Z
	?isHWPPEnabled@CameraDevice@devices@libeYs3D@@UEAA_NXZ
	?isHWPPSupported@CameraDevice@devices@libeYs3D@@UEAA_NXZ
	?isIMUConnectedWithCamera@IMUDevice@devices@libeYs3D@@AEAA_NPEAUhid_device_@@@Z
	?isIMUDevicePresent@CameraDevice@devices@libeYs3D@@UEAA_NXZ
	?isIMUDeviceSupported@CameraDevice8059@devices@libeYs3D@@UEAA_NXZ
	?isIMUDeviceSupported@CameraDevice8062@devices@libeYs3D@@UEAA_NXZ
	?isIMUDeviceSupported@CameraDevice@devices@libeYs3D@@UEAA_NXZ
	?isInterleaveModeEnabled@CameraDevice@devices@libeYs3D@@UEAA_NXZ
	?isInterleaveModeSupported@CameraDevice8036@devices@libeYs3D@@UEAA_NXZ
	?isInterleaveModeSupported@CameraDevice8052@devices@libeYs3D@@UEAA_NXZ
	?isInterleaveModeSupported@CameraDevice8053@devices@libeYs3D@@UEAA_NXZ
	?isInterleaveModeSupported@CameraDevice8059@devices@libeYs3D@@UEAA_NXZ
	?isInterleaveModeSupported@CameraDevice8062@devices@libeYs3D@@UEAA_NXZ
	?isInterleaveModeSupported@CameraDevice8067@devices@libeYs3D@@UEAA_NXZ
	?isInterleaveModeSupported@CameraDevice@devices@libeYs3D@@UEAA_NXZ
	?isPlyFilterSupported@CameraDevice@devices@libeYs3D@@UEAA_NXZ
	?isStopped@MessageChannelBase@base@libeYs3D@@QEBA_NXZ
	?isStreamEnabled@IMUDevice@devices@libeYs3D@@QEAA_NXZ
	?isValid@IMUDevice@devices@libeYs3D@@MEAA_NXZ
	?is_big_endian@@YAHXZ
	?join@?$ThreadPool@VDACalculateWorkItem@video@libeYs3D@@@base@libeYs3D@@QEAAXXZ
	?logIMUDataRecord@IMUDevice@devices@libeYs3D@@AEAAXPEAEH@Z
	?logProducerTick@ColorFrameProducer@video@libeYs3D@@MEAAXPEBDZZ
	?logProducerTick@DepthFrameProducer@video@libeYs3D@@MEAAXPEBDZZ
	?logProducerTick@IMUDataProducer@sensors@libeYs3D@@UEAAXPEBDZZ
	?logProducerTick@PCFrameProducer@video@libeYs3D@@UEAAXPEBDZZ
	?logRegisters@RegisterReadWriteController@devices@libeYs3D@@AEAAXXZ
	?main@FrameProducer@video@libeYs3D@@UEAA_JXZ
	?main@FunctorThread@base@libeYs3D@@EEAA_JXZ
	?main@PCFrameProducer@video@libeYs3D@@UEAA_JXZ
	?main@RegisterReadWriteController@devices@libeYs3D@@UEAA_JXZ
	?main@SensorDataProducer@sensors@libeYs3D@@UEAA_JXZ
	?maskAllSignals@Thread@base@libeYs3D@@SAXXZ
	?needConstruction@LazyInstanceState@internal@base@libeYs3D@@QEAA_NXZ
	?now_in_microsecond_high_res_time_MONOTONIC@@YA_JXZ
	?now_in_microsecond_high_res_time_REALTIME@@YA_JXZ
	?now_in_microsecond_unix_time@@YA_JXZ
	?onExit@Thread@base@libeYs3D@@UEAAXXZ
	?overflow@?$basic_filebuf@DU?$char_traits@D@std@@@std@@MEAAHH@Z
	?overflow@?$basic_stringbuf@DU?$char_traits@D@std@@V?$allocator@D@2@@std@@MEAAHH@Z
	?parseBuff@@YAHAEAPEAE_K@Z
	?parseBuff_Float@@YAMAEAPEAE_K@Z
	?parsePacket@IMUData@@QEAAXPEAE_N@Z
	?parsePacket_DMP@IMUData@@QEAAXPEAE@Z
	?parsePacket_Quaternion@IMUData@@QEAAXPEAE@Z
	?pause@RegisterReadWriteController@devices@libeYs3D@@QEAAXXZ
	?pauseAppCallback@SensorDataProducer@sensors@libeYs3D@@QEAAXXZ
	?pauseAppStream@IMUDevice@devices@libeYs3D@@QEAAXXZ
	?pauseCallback@FrameProducer@video@libeYs3D@@UEAAXXZ
	?pauseCallback@PCFrameProducer@video@libeYs3D@@UEAAXXZ
	?pauseColorCallback@SensorDataProducer@sensors@libeYs3D@@QEAAXXZ
	?pauseColorStream@CameraDevice@devices@libeYs3D@@QEAAXXZ
	?pauseColorStream@IMUDevice@devices@libeYs3D@@QEAAXXZ
	?pauseDepthCallback@SensorDataProducer@sensors@libeYs3D@@QEAAXXZ
	?pauseDepthStream@CameraDevice@devices@libeYs3D@@QEAAXXZ
	?pauseDepthStream@IMUDevice@devices@libeYs3D@@QEAAXXZ
	?pauseIMUStream@CameraDevice@devices@libeYs3D@@QEAAXXZ
	?pausePCCallback@FrameProducer@video@libeYs3D@@UEAAXXZ
	?pausePCStream@CameraDevice@devices@libeYs3D@@QEAAXXZ
	?pauseStream@CameraDevice@devices@libeYs3D@@QEAAXXZ
	?pauseStream@IMUDevice@devices@libeYs3D@@QEAAXXZ
	?pbackfail@?$basic_filebuf@DU?$char_traits@D@std@@@std@@MEAAHH@Z
	?pbackfail@?$basic_stringbuf@DU?$char_traits@D@std@@V?$allocator@D@2@@std@@MEAAHH@Z
	?pcCallbackWrapper@FrameProducer@video@libeYs3D@@IEAA_NPEBVFrame@23@@Z
	?pcFrameCallback@FrameSetPipeline@devices@libeYs3D@@AEAA_NPEBVPCFrame@video@3@@Z
	?pcFrameCallback@Pipeline@devices@libeYs3D@@AEAA_NPEBVPCFrame@video@3@@Z
	?performAccuracyComputation@ColorFrameProducer@video@libeYs3D@@MEAAHPEAVFrame@23@@Z
	?performAccuracyComputation@DepthFrameProducer@video@libeYs3D@@MEAAHPEAVFrame@23@@Z
	?performFiltering@ColorFrameProducer@video@libeYs3D@@MEAAHPEAVFrame@23@@Z
	?performFiltering@DepthFrameProducer@video@libeYs3D@@MEAAHPEAVFrame@23@@Z
	?performInterleave@ColorFrameProducer@video@libeYs3D@@MEAAHPEAVFrame@23@@Z
	?performInterleave@DepthFrameProducer@video@libeYs3D@@MEAAHPEAVFrame@23@@Z
	?performROIComputation@ColorFrameProducer@video@libeYs3D@@MEAAHPEAVFrame@23@@Z
	?performROIComputation@DepthFrameProducer@video@libeYs3D@@MEAAHPEAVFrame@23@@Z
	?performSnapshotWork@ColorFrameProducer@video@libeYs3D@@MEAAXPEAVFrame@23@@Z
	?performSnapshotWork@DepthFrameProducer@video@libeYs3D@@MEAAXPEAVFrame@23@@Z
	?performSnapshotWork@PCFrameProducer@video@libeYs3D@@AEAAXPEBVFrame@23@0@Z
	?pokeReceiver@FrameProducer@video@libeYs3D@@QEAAXXZ
	?pokeReceiver@PCFrameProducer@video@libeYs3D@@QEAAXXZ
	?pollColorFrame@Pipeline@devices@libeYs3D@@QEAA?AW4RESULT@123@PEAVFrame@video@3@@Z
	?pollDepthFrame@Pipeline@devices@libeYs3D@@QEAA?AW4RESULT@123@PEAVFrame@video@3@@Z
	?pollFrameSet@FrameSetPipeline@devices@libeYs3D@@QEAA?AW4RESULT@123@PEAUFrameSet@video@3@@Z
	?pollIMUData@Pipeline@devices@libeYs3D@@QEAA?AW4RESULT@123@PEAUSensorData@sensors@3@@Z
	?pollPCFrame@Pipeline@devices@libeYs3D@@QEAA?AW4RESULT@123@PEAVPCFrame@video@3@@Z
	?postInitialize@CameraDevice@devices@libeYs3D@@MEAAHXZ
	?postInitialize@IMUDevice@devices@libeYs3D@@AEAAHXZ
	?producePCFrame@PCFrameProducer@video@libeYs3D@@AEAAHPEAVPCFrame@23@@Z
	?produceRGBFrame@ColorFrameProducer@video@libeYs3D@@MEAAHPEAVFrame@23@@Z
	?produceRGBFrame@DepthFrameProducer@video@libeYs3D@@MEAAHPEAVFrame@23@@Z
	?readCalibrated@IMUDevice@devices@libeYs3D@@UEAAXPEAD@Z
	?readColorFrame@CameraDevice@devices@libeYs3D@@UEAAHPEAE_KPEA_KPEAI@Z
	?readDataOutputFormat@IMUDevice8062@devices@libeYs3D@@MEAAXXZ
	?readDataOutputFormat@IMUDevice@devices@libeYs3D@@MEAAXXZ
	?readDepthFrame@CameraDevice@devices@libeYs3D@@UEAAHPEAE_KPEA_KPEAI@Z
	?readFrame@ColorFrameProducer@video@libeYs3D@@MEAAHPEAVFrame@23@@Z
	?readFrame@DepthFrameProducer@video@libeYs3D@@MEAAHPEAVFrame@23@@Z
	?readIMUData@IMUDevice@devices@libeYs3D@@UEAAHPEAVIMUData@@@Z
	?readPCFrame@CameraDevice@devices@libeYs3D@@UEAAHPEBE0PEAEPEAM@Z
	?readRegisters@RegisterReadWriteController@devices@libeYs3D@@AEAAXXZ
	?readSensorData@IMUDataProducer@sensors@libeYs3D@@UEAAHPEAUSensorData@23@@Z
	?read_fully@@YAHHPEAX_KPEBD@Z
	?receive@?$MessageChannel@USensorDataSet@sensors@libeYs3D@@$0BA@@base@libeYs3D@@QEAA?AV?$Optional@USensorDataSet@sensors@libeYs3D@@@23@XZ
	?receive@?$MessageChannel@VFrame@video@libeYs3D@@$0BA@@base@libeYs3D@@QEAA?AV?$Optional@VFrame@video@libeYs3D@@@23@XZ
	?release@CameraDevice@devices@libeYs3D@@UEAAXXZ
	?releaseIMUDevice@CameraDevice@devices@libeYs3D@@MEAAXXZ
	?reloadCameraDeviceProperties@CameraDevice@devices@libeYs3D@@UEAAHXZ
	?resampleImage@PlyWriter@@SAXHHPEAEHH0H@Z
	?reset@?$CircularQueue@VFrame@video@libeYs3D@@$0EA@@Pipeline@devices@libeYs3D@@QEAAXXZ
	?reset@CameraDeviceProperties@devices@libeYs3D@@QEAAHXZ
	?reset@Pipeline@devices@libeYs3D@@QEAAXXZ
	?reset@SensorDataSet@sensors@libeYs3D@@QEAAXXZ
	?resetDefault@DepthAccuracyOptions@devices@libeYs3D@@QEAAXXZ
	?resetDefault@DepthFilterOptions@devices@libeYs3D@@QEAAXXZ
	?resize@?$list@V?$vector@FV?$allocator@F@std@@@std@@V?$allocator@V?$vector@FV?$allocator@F@std@@@std@@@2@@std@@QEAAX_K@Z
	?resume@RegisterReadWriteController@devices@libeYs3D@@QEAAXXZ
	?rgbFramesWorker@FrameProducer@video@libeYs3D@@AEAAXXZ
	?saveToFile@Frame@video@libeYs3D@@QEBAHPEBD@Z
	?save_bitmap@video@libeYs3D@@YAHPEBDPEAEHH@Z
	?save_ply@video@libeYs3D@@YAHPEBDAEAV?$vector@UCloudPoint@@V?$allocator@UCloudPoint@@@std@@@std@@_N@Z
	?save_yuv@video@libeYs3D@@YAHPEBDPEAEHHH@Z
	?seekoff@?$basic_filebuf@DU?$char_traits@D@std@@@std@@MEAA?AV?$fpos@U_Mbstatet@@@2@_JHH@Z
	?seekoff@?$basic_stringbuf@DU?$char_traits@D@std@@V?$allocator@D@2@@std@@MEAA?AV?$fpos@U_Mbstatet@@@2@_JHH@Z
	?seekpos@?$basic_filebuf@DU?$char_traits@D@std@@@std@@MEAA?AV?$fpos@U_Mbstatet@@@2@V32@H@Z
	?seekpos@?$basic_stringbuf@DU?$char_traits@D@std@@V?$allocator@D@2@@std@@MEAA?AV?$fpos@U_Mbstatet@@@2@V32@H@Z
	?selectDataFormat@IMUDevice8062@devices@libeYs3D@@MEAAHW4IMU_DATA_FORMAT@IMUDevice@23@@Z
	?selectDataFormat@IMUDevice@devices@libeYs3D@@MEAAHW4IMU_DATA_FORMAT@123@@Z
	?sendFeatureReport@IMUDevice@devices@libeYs3D@@AEAAXPEBD_K@Z
	?sendFramesWorker@FrameProducer@video@libeYs3D@@AEAAXXZ
	?sendFramesWorker@PCFrameProducer@video@libeYs3D@@AEAAXXZ
	?sendSensorDataWorker@SensorDataProducer@sensors@libeYs3D@@AEAAXXZ
	?send_log@Debug@@CAXAEBV?$basic_stringstream@DU?$char_traits@D@std@@V?$allocator@D@2@@std@@AEBW4Color@@@Z
	?set@ThreadStoreBase@base@libeYs3D@@QEAAXPEAX@Z
	?setAlpha@DepthFilterOptions@devices@libeYs3D@@QEAAXM@Z
	?setBytesPerPixel@DepthFilterOptions@devices@libeYs3D@@IEAAXH@Z
	?setCameraDevicePropertyValue@CameraDevice@devices@libeYs3D@@UEAAHW4CAMERA_PROPERTY@CameraDeviceProperties@23@H@Z
	?setCameraPropertySupport@CameraDeviceProperties@devices@libeYs3D@@QEAAHW4CAMERA_PROPERTY@123@_N@Z
	?setCameraPropertyValue@CameraDeviceProperties@devices@libeYs3D@@QEAAHW4CAMERA_PROPERTY@123@H@Z
	?setDefaultCameraProperties@CameraDeviceProperties@devices@libeYs3D@@QEAAHXZ
	?setDepthAccuracyOptions@CameraDevice@devices@libeYs3D@@UEAAXVDepthAccuracyOptions@23@@Z
	?setDepthFilterOptions@CameraDevice@devices@libeYs3D@@UEAAXVDepthFilterOptions@23@@Z
	?setDepthOfField@CameraDevice@devices@libeYs3D@@QEAAXGG@Z
	?setDepthROICenterPoint@CameraDevice@devices@libeYs3D@@UEAAXHH@Z
	?setDepthROIPixels@CameraDevice@devices@libeYs3D@@UEAAXH@Z
	?setDeviceName@CameraDeviceProperties@devices@libeYs3D@@QEAAXPEBD@Z
	?setEdgeLevel@DepthFilterOptions@devices@libeYs3D@@QEAAXH@Z
	?setFWRegister@CameraDevice@devices@libeYs3D@@QEAAHGG@Z
	?setFlyingDepthCancellationLocked@DepthFilterOptions@devices@libeYs3D@@QEAAX_N@Z
	?setGroundTruthDistanceMM@DepthAccuracyOptions@devices@libeYs3D@@QEAAXM@Z
	?setHWRegister@CameraDevice@devices@libeYs3D@@QEAAHGG@Z
	?setHistory@DepthFilterOptions@devices@libeYs3D@@QEAAXH@Z
	?setHorizontal@DepthFilterOptions@devices@libeYs3D@@QEAAX_N@Z
	?setIRProperty@CameraDevice@devices@libeYs3D@@UEAAHVIRProperty@23@@Z
	?setKernelSize@DepthFilterOptions@devices@libeYs3D@@QEAAXH@Z
	?setLevel@DepthFilterOptions@devices@libeYs3D@@QEAAXH@Z
	?setLumda@DepthFilterOptions@devices@libeYs3D@@QEAAXM@Z
	?setManuelExposureTimeMs@CameraDevice@devices@libeYs3D@@UEAAXM@Z
	?setManuelExposureTimeMs@CameraDeviceProperties@devices@libeYs3D@@QEAAXM@Z
	?setManuelGlobalGain@CameraDevice@devices@libeYs3D@@UEAAXM@Z
	?setManuelGlobalGain@CameraDeviceProperties@devices@libeYs3D@@QEAAXM@Z
	?setModuleID@CameraDevice@devices@libeYs3D@@QEAAHE@Z
	?setRegionRatio@DepthAccuracyOptions@devices@libeYs3D@@QEAAXM@Z
	?setRegisterReadWriteOptionsForRead@CameraDevice@devices@libeYs3D@@UEAAXVRegisterReadWriteOptions@23@@Z
	?setRegisterReadWriteOptionsForWrite@CameraDevice@devices@libeYs3D@@UEAAXVRegisterReadWriteOptions@23@@Z
	?setSensorRegister@CameraDevice@devices@libeYs3D@@QEAAHGGW4SENSORMODE_INFO@@H@Z
	?setSerialNumber@IMUDevice@devices@libeYs3D@@UEAAXPEBD@Z
	?setSigma@DepthFilterOptions@devices@libeYs3D@@QEAAXM@Z
	?setSubSampleFactor@DepthFilterOptions@devices@libeYs3D@@QEAAXH@Z
	?setSubSampleMode@DepthFilterOptions@devices@libeYs3D@@QEAAXH@Z
	?setType@DepthFilterOptions@devices@libeYs3D@@QEAAXH@Z
	?setbuf@?$basic_filebuf@DU?$char_traits@D@std@@@std@@MEAAPEAV?$basic_streambuf@DU?$char_traits@D@std@@@2@PEAD_J@Z
	?setupIR@CameraDevice@devices@libeYs3D@@QEAAHG@Z
	?size@MessageChannelBase@base@libeYs3D@@QEBA_KXZ
	?sleep@@YAII@Z
	?sleepMs@Thread@base@libeYs3D@@SAXI@Z
	?sleepUs@Thread@base@libeYs3D@@SAXI@Z
	?start@?$ThreadPool@VCallbackWorkItem@video@libeYs3D@@@base@libeYs3D@@QEAA_NXZ
	?start@Thread@base@libeYs3D@@QEAA_NXZ
	?startCalibration@IMUDevice@devices@libeYs3D@@UEAAXXZ
	?stop@?$CircularQueue@USensorData@sensors@libeYs3D@@$0BAA@@Pipeline@devices@libeYs3D@@QEAAXXZ
	?stop@?$CircularQueue@VFrame@video@libeYs3D@@$0EA@@Pipeline@devices@libeYs3D@@QEAAXXZ
	?stop@?$CircularQueue@VPCFrame@video@libeYs3D@@$0CA@@Pipeline@devices@libeYs3D@@QEAAXXZ
	?stop@FrameProducer@video@libeYs3D@@UEAAXXZ
	?stop@FrameSetPipeline@devices@libeYs3D@@AEAAXXZ
	?stop@MessageChannelBase@base@libeYs3D@@QEAAXXZ
	?stop@PCFrameProducer@video@libeYs3D@@UEAAXXZ
	?stop@Pipeline@devices@libeYs3D@@AEAAXXZ
	?stop@RegisterReadWriteController@devices@libeYs3D@@QEAAXXZ
	?stop@SensorDataProducer@sensors@libeYs3D@@UEAAXXZ
	?str@?$basic_stringbuf@DU?$char_traits@D@std@@V?$allocator@D@2@@std@@QEBA?AV?$basic_string@DU?$char_traits@D@std@@V?$allocator@D@2@@2@XZ
	?string_trim@@YAPEADPEAD@Z
	?swap@?$function@$$A6AXPEAVFrame@video@libeYs3D@@@Z@std@@QEAAXAEAV12@@Z
	?swap@?$function@$$A6A_NPEBUSensorDataSet@sensors@libeYs3D@@@Z@std@@QEAAXAEAV12@@Z
	?swap@?$function@$$A6A_NPEBVFrame@video@libeYs3D@@@Z@std@@QEAAXAEAV12@@Z
	?sync@?$basic_filebuf@DU?$char_traits@D@std@@@std@@MEAAHXZ
	?thread_main@Thread@base@libeYs3D@@CAKPEAX@Z
	?timedWait@ConditionVariable@base@libeYs3D@@QEAA_NPEAVStaticLock@23@_J@Z
	?toPrettyString@CameraDeviceProperties@devices@libeYs3D@@QEBAHPEADH@Z
	?toString@CameraDevice@devices@libeYs3D@@QEAAHPEADH@Z
	?toString@CameraDeviceInfo@devices@libeYs3D@@QEBAHAEAV?$basic_string@DU?$char_traits@D@std@@V?$allocator@D@2@@std@@@Z
	?toString@CameraDeviceInfo@devices@libeYs3D@@QEBAHPEADH@Z
	?toString@CameraDeviceProperties@devices@libeYs3D@@QEBAHAEAV?$basic_string@DU?$char_traits@D@std@@V?$allocator@D@2@@std@@@Z
	?toString@CameraDeviceProperties@devices@libeYs3D@@QEBAHPEADH@Z
	?toString@DepthAccuracyOptions@devices@libeYs3D@@QEBAHAEAV?$basic_string@DU?$char_traits@D@std@@V?$allocator@D@2@@std@@@Z
	?toString@DepthAccuracyOptions@devices@libeYs3D@@QEBAHPEADH@Z
	?toString@DepthFilterOptions@devices@libeYs3D@@QEBAHAEAV?$basic_string@DU?$char_traits@D@std@@V?$allocator@D@2@@std@@@Z
	?toString@DepthFilterOptions@devices@libeYs3D@@QEBAHPEADH@Z
	?toString@DeviceSellectInfo@libeYs3D@@QEBAHPEADH@Z
	?toString@DeviceSellectInfo@libeYs3D@@QEBAHV?$basic_string@DU?$char_traits@D@std@@V?$allocator@D@2@@std@@@Z
	?toString@Frame@video@libeYs3D@@QEBAHAEAV?$basic_string@DU?$char_traits@D@std@@V?$allocator@D@2@@std@@@Z
	?toString@Frame@video@libeYs3D@@QEBAHPEADH@Z
	?toString@IMUDevice@devices@libeYs3D@@QEAAHPEADH@Z
	?toString@IMUDeviceInfo@IMUDevice@devices@libeYs3D@@QEAAHPEADH@Z
	?toString@IRProperty@devices@libeYs3D@@QEBAHPEADH@Z
	?toString@PCFrame@video@libeYs3D@@QEBAHAEAV?$basic_string@DU?$char_traits@D@std@@V?$allocator@D@2@@std@@@Z
	?toString@PCFrame@video@libeYs3D@@QEBAHPEADH@Z
	?toString@RegisterReadWriteOptions@devices@libeYs3D@@QEBAHPEADH@Z
	?toString@SensorData@sensors@libeYs3D@@QEBAHPEADH@Z
	?toString@SensorDataSet@sensors@libeYs3D@@QEBAHPEADH@Z
	?toStringFull@Frame@video@libeYs3D@@QEBAHPEADH@Z
	?toStringFull@SensorData@sensors@libeYs3D@@QEBAHPEADH@Z
	?toStringFull@SensorDataSet@sensors@libeYs3D@@QEBAHPEADH@Z
	?toStringSimple@Frame@video@libeYs3D@@QEBAHPEADH@Z
	?toStringSimple@PCFrame@video@libeYs3D@@QEBAHPEADH@Z
	?tryWait@Thread@base@libeYs3D@@QEAA_NPEA_J@Z
	?uflow@?$basic_filebuf@DU?$char_traits@D@std@@@std@@MEAAHXZ
	?underflow@?$basic_filebuf@DU?$char_traits@D@std@@@std@@MEAAHXZ
	?underflow@?$basic_stringbuf@DU?$char_traits@D@std@@V?$allocator@D@2@@std@@MEAAHXZ
	?update@CameraDeviceProperties@devices@libeYs3D@@QEAAHXZ
	?updateCameraProperty@CameraDeviceProperties@devices@libeYs3D@@QEAAHW4CAMERA_PROPERTY@123@@Z
	?updateColorPalette@CameraDevice@devices@libeYs3D@@MEAAXXZ
	?updateZDTable@CameraDevice@devices@libeYs3D@@MEAAHXZ
	?usleep@@YAX_J@Z
	?vasprintf@@YAHPEAPEADPEBDPEAD@Z
	?wait@Thread@base@libeYs3D@@UEAA_NPEA_J@Z
	?waitForColorFrame@Pipeline@devices@libeYs3D@@QEAA?AW4RESULT@123@PEAVFrame@video@3@H@Z
	?waitForDepthFrame@Pipeline@devices@libeYs3D@@QEAA?AW4RESULT@123@PEAVFrame@video@3@H@Z
	?waitForEmpty@MessageChannelBase@base@libeYs3D@@QEAAXXZ
	?waitForFrameSet@FrameSetPipeline@devices@libeYs3D@@QEAA?AW4RESULT@123@PEAUFrameSet@video@3@H@Z
	?waitForIMUData@Pipeline@devices@libeYs3D@@QEAA?AW4RESULT@123@PEAUSensorData@sensors@3@H@Z
	?waitForPCFrame@Pipeline@devices@libeYs3D@@QEAA?AW4RESULT@123@PEAVPCFrame@video@3@H@Z
	?waitForPoke@FrameProducer@video@libeYs3D@@QEAAXXZ
	?waitForPoke@PCFrameProducer@video@libeYs3D@@QEAAXXZ
	?what@exception@std@@UEBAPEBDXZ
	?worker@?$WorkerThread@V?$Optional@VCallbackWorkItem@sensors@libeYs3D@@@base@libeYs3D@@@base@libeYs3D@@AEAAXXZ
	?worker@?$WorkerThread@V?$Optional@VCallbackWorkItem@video@libeYs3D@@@base@libeYs3D@@@base@libeYs3D@@AEAAXXZ
	?worker@?$WorkerThread@V?$Optional@VDACalculateWorkItem@video@libeYs3D@@@base@libeYs3D@@@base@libeYs3D@@AEAAXXZ
	?writePly@PlyWriter@@SAHAEAV?$vector@UCloudPoint@@V?$allocator@UCloudPoint@@@std@@@std@@V?$basic_string@DU?$char_traits@D@std@@V?$allocator@D@2@@3@@Z
	?writeRegisters@RegisterReadWriteController@devices@libeYs3D@@AEAAXXZ
	?write_fully@@YAHHPEBX_KPEBD@Z
	?xsgetn@?$basic_filebuf@DU?$char_traits@D@std@@@std@@MEAA_JPEAD_J@Z
	?xsputn@?$basic_filebuf@DU?$char_traits@D@std@@@std@@MEAA_JPEBD_J@Z
	?yield@Thread@base@libeYs3D@@SAXXZ
	RegisterDebugCallback
	TransformDepthDataType
	__local_stdio_printf_options
	__local_stdio_scanf_options
	close_device
	enableExtendIR
	fprintf
	fprintf
	generate_point_cloud_gpu
	getDefaultZFar
	getDefaultZNear
	getIRValue
	get_color_frame
	get_config
	get_depth_by_coordinate
	get_depth_frame
	get_mode_config_by_pif
	get_pif
	get_pif
	hid_close
	hid_enumerate
	hid_error
	hid_exit
	hid_free_enumeration
	hid_get_feature_report
	hid_get_indexed_string
	hid_get_manufacturer_string
	hid_get_product_string
	hid_get_serial_number_string
	hid_init
	hid_open
	hid_open_path
	hid_read
	hid_read_timeout
	hid_send_feature_report
	hid_set_nonblocking
	hid_write
	init_device
	open_device
	printf
	printf
	regenerate_palette
	release_device
	reset_palette
	setupIR
	setupIR
	snprintf
	sprintf
	sprintf
	sqlite3_aggregate_context
	sqlite3_aggregate_count
	sqlite3_auto_extension
	sqlite3_backup_finish
	sqlite3_backup_init
	sqlite3_backup_pagecount
	sqlite3_backup_remaining
	sqlite3_backup_step
	sqlite3_bind_blob
	sqlite3_bind_blob64
	sqlite3_bind_double
	sqlite3_bind_int
	sqlite3_bind_int64
	sqlite3_bind_null
	sqlite3_bind_parameter_count
	sqlite3_bind_parameter_index
	sqlite3_bind_parameter_name
	sqlite3_bind_pointer
	sqlite3_bind_text
	sqlite3_bind_text16
	sqlite3_bind_text64
	sqlite3_bind_value
	sqlite3_bind_zeroblob
	sqlite3_bind_zeroblob64
	sqlite3_blob_bytes
	sqlite3_blob_close
	sqlite3_blob_open
	sqlite3_blob_read
	sqlite3_blob_reopen
	sqlite3_blob_write
	sqlite3_busy_handler
	sqlite3_busy_timeout
	sqlite3_cancel_auto_extension
	sqlite3_changes
	sqlite3_clear_bindings
	sqlite3_close
	sqlite3_close_v2
	sqlite3_collation_needed
	sqlite3_collation_needed16
	sqlite3_column_blob
	sqlite3_column_bytes
	sqlite3_column_bytes16
	sqlite3_column_count
	sqlite3_column_decltype
	sqlite3_column_decltype16
	sqlite3_column_double
	sqlite3_column_int
	sqlite3_column_int64
	sqlite3_column_name
	sqlite3_column_name16
	sqlite3_column_text
	sqlite3_column_text16
	sqlite3_column_type
	sqlite3_column_value
	sqlite3_commit_hook
	sqlite3_compileoption_get
	sqlite3_compileoption_used
	sqlite3_complete
	sqlite3_complete16
	sqlite3_config
	sqlite3_context_db_handle
	sqlite3_create_collation
	sqlite3_create_collation16
	sqlite3_create_collation_v2
	sqlite3_create_function
	sqlite3_create_function16
	sqlite3_create_function_v2
	sqlite3_create_module
	sqlite3_create_module_v2
	sqlite3_create_window_function
	sqlite3_data_count
	sqlite3_db_cacheflush
	sqlite3_db_config
	sqlite3_db_filename
	sqlite3_db_handle
	sqlite3_db_mutex
	sqlite3_db_readonly
	sqlite3_db_release_memory
	sqlite3_db_status
	sqlite3_declare_vtab
	sqlite3_enable_load_extension
	sqlite3_enable_shared_cache
	sqlite3_errcode
	sqlite3_errmsg
	sqlite3_errmsg16
	sqlite3_errstr
	sqlite3_exec
	sqlite3_expanded_sql
	sqlite3_expired
	sqlite3_extended_errcode
	sqlite3_extended_result_codes
	sqlite3_file_control
	sqlite3_finalize
	sqlite3_free
	sqlite3_free_table
	sqlite3_get_autocommit
	sqlite3_get_auxdata
	sqlite3_get_table
	sqlite3_global_recover
	sqlite3_initialize
	sqlite3_interrupt
	sqlite3_keyword_check
	sqlite3_keyword_count
	sqlite3_keyword_name
	sqlite3_last_insert_rowid
	sqlite3_libversion
	sqlite3_libversion_number
	sqlite3_limit
	sqlite3_load_extension
	sqlite3_log
	sqlite3_malloc
	sqlite3_malloc64
	sqlite3_memory_alarm
	sqlite3_memory_highwater
	sqlite3_memory_used
	sqlite3_mprintf
	sqlite3_msize
	sqlite3_mutex_alloc
	sqlite3_mutex_enter
	sqlite3_mutex_free
	sqlite3_mutex_leave
	sqlite3_mutex_try
	sqlite3_next_stmt
	sqlite3_open
	sqlite3_open16
	sqlite3_open_v2
	sqlite3_os_end
	sqlite3_os_init
	sqlite3_overload_function
	sqlite3_prepare
	sqlite3_prepare16
	sqlite3_prepare16_v2
	sqlite3_prepare16_v3
	sqlite3_prepare_v2
	sqlite3_prepare_v3
	sqlite3_profile
	sqlite3_progress_handler
	sqlite3_randomness
	sqlite3_realloc
	sqlite3_realloc64
	sqlite3_release_memory
	sqlite3_reset
	sqlite3_reset_auto_extension
	sqlite3_result_blob
	sqlite3_result_blob64
	sqlite3_result_double
	sqlite3_result_error
	sqlite3_result_error16
	sqlite3_result_error_code
	sqlite3_result_error_nomem
	sqlite3_result_error_toobig
	sqlite3_result_int
	sqlite3_result_int64
	sqlite3_result_null
	sqlite3_result_pointer
	sqlite3_result_subtype
	sqlite3_result_text
	sqlite3_result_text16
	sqlite3_result_text16be
	sqlite3_result_text16le
	sqlite3_result_text64
	sqlite3_result_value
	sqlite3_result_zeroblob
	sqlite3_result_zeroblob64
	sqlite3_rollback_hook
	sqlite3_set_authorizer
	sqlite3_set_auxdata
	sqlite3_set_last_insert_rowid
	sqlite3_shutdown
	sqlite3_sleep
	sqlite3_snprintf
	sqlite3_soft_heap_limit
	sqlite3_soft_heap_limit64
	sqlite3_sourceid
	sqlite3_sql
	sqlite3_status
	sqlite3_status64
	sqlite3_step
	sqlite3_stmt_busy
	sqlite3_stmt_isexplain
	sqlite3_stmt_readonly
	sqlite3_stmt_status
	sqlite3_str_append
	sqlite3_str_appendall
	sqlite3_str_appendchar
	sqlite3_str_appendf
	sqlite3_str_errcode
	sqlite3_str_finish
	sqlite3_str_length
	sqlite3_str_new
	sqlite3_str_reset
	sqlite3_str_value
	sqlite3_str_vappendf
	sqlite3_strglob
	sqlite3_stricmp
	sqlite3_strlike
	sqlite3_strnicmp
	sqlite3_system_errno
	sqlite3_table_column_metadata
	sqlite3_test_control
	sqlite3_thread_cleanup
	sqlite3_threadsafe
	sqlite3_total_changes
	sqlite3_trace
	sqlite3_trace_v2
	sqlite3_transfer_bindings
	sqlite3_update_hook
	sqlite3_uri_boolean
	sqlite3_uri_int64
	sqlite3_uri_parameter
	sqlite3_user_data
	sqlite3_value_blob
	sqlite3_value_bytes
	sqlite3_value_bytes16
	sqlite3_value_double
	sqlite3_value_dup
	sqlite3_value_free
	sqlite3_value_frombind
	sqlite3_value_int
	sqlite3_value_int64
	sqlite3_value_nochange
	sqlite3_value_numeric_type
	sqlite3_value_pointer
	sqlite3_value_subtype
	sqlite3_value_text
	sqlite3_value_text16
	sqlite3_value_text16be
	sqlite3_value_text16le
	sqlite3_value_type
	sqlite3_vfs_find
	sqlite3_vfs_register
	sqlite3_vfs_unregister
	sqlite3_vmprintf
	sqlite3_vsnprintf
	sqlite3_vtab_collation
	sqlite3_vtab_config
	sqlite3_vtab_nochange
	sqlite3_vtab_on_conflict
	sqlite3_wal_autocheckpoint
	sqlite3_wal_checkpoint
	sqlite3_wal_checkpoint_v2
	sqlite3_wal_hook
	sqlite3_win32_is_nt
	sqlite3_win32_mbcs_to_utf8
	sqlite3_win32_mbcs_to_utf8_v2
	sqlite3_win32_set_directory
	sqlite3_win32_set_directory16
	sqlite3_win32_set_directory8
	sqlite3_win32_sleep
	sqlite3_win32_unicode_to_utf8
	sqlite3_win32_utf8_to_mbcs
	sqlite3_win32_utf8_to_mbcs_v2
	sqlite3_win32_utf8_to_unicode
	sqlite3_win32_write_debug
	sscanf
	sscanf
	vsnprintf
